(dp1
S'output'
p2
S"<type 'exceptions.AttributeError'> 'NoneType' object has no attribute 'title'"
p3
sS'layer'
p4
S'/home/fish/Desktop/web2py/applications/vsalad/controllers/default.py'
p5
sS'code'
p6
S'# -*- coding: utf-8 -*-\n# this file is released under public domain and you can use without limitations\n\n#########################################################################\n## This is a samples controller\n## - index is the default action of any application\n## - user is required for authentication and authorization\n## - download is for downloading files uploaded in the db (does streaming)\n## - call exposes all registered services (none by default)\n#########################################################################\n\ndef index():\n    rows=db().select(db.article.ALL)\n    return dict(articles=rows)\n\ndef user():\n    """\n    exposes:\n    http://..../[app]/default/user/login\n    http://..../[app]/default/user/logout\n    http://..../[app]/default/user/register\n    http://..../[app]/default/user/profile\n    http://..../[app]/default/user/retrieve_password\n    http://..../[app]/default/user/change_password\n    use @auth.requires_login()\n        @auth.requires_membership(\'group name\')\n        @auth.requires_permission(\'read\',\'table name\',record_id)\n    to decorate functions that need access control\n    """\n    return dict(form=auth())\n\n\ndef download():\n    """\n    allows downloading of uploaded files\n    http://..../[app]/default/download/[filename]\n    """\n    return response.download(request,db)\n\n\ndef call():\n    """\n    exposes services. for example:\n    http://..../[app]/default/call/jsonrpc\n    decorate with @services.jsonrpc the functions to expose\n    supports xml, json, xmlrpc, jsonrpc, amfrpc, rss, csv\n    """\n    return service()\n\n\n@auth.requires_signature()\ndef data():\n    """\n    http://..../[app]/default/data/tables\n    http://..../[app]/default/data/create/[table]\n    http://..../[app]/default/data/read/[table]/[id]\n    http://..../[app]/default/data/update/[table]/[id]\n    http://..../[app]/default/data/delete/[table]/[id]\n    http://..../[app]/default/data/select/[table]\n    http://..../[app]/default/data/search/[table]\n    but URLs must be signed, i.e. linked with\n      A(\'table\',_href=URL(\'data/tables\',user_signature=True))\n    or with the signed load operator\n      LOAD(\'default\',\'data.load\',args=\'tables\',ajax=True,user_signature=True)\n    """\n    return dict(form=crud())\n\ndef article():\n    if request.args(0):\n        t = db(db.article.id==request.args(0)).select(db.article.title, db.article.content).first()\n        return dict(title=t.title, content=t.content)\n    else:\n        return "Error : No article selected"\n        \ndef create():\n    form=SQLFORM(db.article)\n    form.process()\n    articles = db().select(db.article.ALL)\n    return dict(article=form, allar=articles)\n\nresponse._vars=response._caller(article)\n'
p7
sS'snapshot'
p8
(dp9
S'exception'
p10
(dp11
S'__hash__'
p12
S"<method-wrapper '__hash__' of exceptions.AttributeError object>"
p13
sS'__setattr__'
p14
S"<method-wrapper '__setattr__' of exceptions.AttributeError object>"
p15
sS'__reduce_ex__'
p16
S'<built-in method __reduce_ex__ of exceptions.AttributeError object>'
p17
sS'__getslice__'
p18
S"<method-wrapper '__getslice__' of exceptions.AttributeError object>"
p19
sS'__getitem__'
p20
S"<method-wrapper '__getitem__' of exceptions.AttributeError object>"
p21
sS'__setstate__'
p22
S'<built-in method __setstate__ of exceptions.AttributeError object>'
p23
sS'args'
p24
S'("\'NoneType\' object has no attribute \'title\'",)'
p25
sS'__reduce__'
p26
S'<built-in method __reduce__ of exceptions.AttributeError object>'
p27
sS'__str__'
p28
S"<method-wrapper '__str__' of exceptions.AttributeError object>"
p29
sS'__format__'
p30
S'<built-in method __format__ of exceptions.AttributeError object>'
p31
sS'__getattribute__'
p32
S"<method-wrapper '__getattribute__' of exceptions.AttributeError object>"
p33
sS'__class__'
p34
S"<type 'exceptions.AttributeError'>"
p35
sS'__unicode__'
p36
S'<built-in method __unicode__ of exceptions.AttributeError object>'
p37
sS'__delattr__'
p38
S"<method-wrapper '__delattr__' of exceptions.AttributeError object>"
p39
sS'__subclasshook__'
p40
S'<built-in method __subclasshook__ of type object>'
p41
sS'__repr__'
p42
S"<method-wrapper '__repr__' of exceptions.AttributeError object>"
p43
sS'__dict__'
p44
S'{}'
p45
sS'__sizeof__'
p46
S'<built-in method __sizeof__ of exceptions.AttributeError object>'
p47
sS'__doc__'
p48
S"'Attribute not found.'"
p49
sS'__init__'
p50
S"<method-wrapper '__init__' of exceptions.AttributeError object>"
p51
sS'__new__'
p52
S'<built-in method __new__ of type object>'
p53
ssS'evalue'
p54
S"'NoneType' object has no attribute 'title'"
p55
sS'request'
p56
ccopy_reg
_reconstructor
p57
(cgluon.html
BEAUTIFY
p58
c__builtin__
object
p59
NtRp60
(dp61
S'attributes'
p62
(dp63
sS'components'
p64
(lp65
g57
(cgluon.html
TABLE
p66
g59
NtRp67
(dp68
g62
(dp69
S'level'
p70
I5
ssS'parent'
p71
Nsg64
(lp72
g57
(cgluon.html
TR
p73
g59
NtRp74
(dp75
g62
(dp76
sg71
g67
sg64
(lp77
g57
(cgluon.html
TD
p78
g59
NtRp79
(dp80
g62
(dp81
S'_style'
p82
S'font-weight:bold;vertical-align:top'
p83
ssg71
g74
sg64
(lp84
S'ajax'
p85
asbag57
(g78
g59
NtRp86
(dp87
g62
(dp88
S'_valign'
p89
S'top'
p90
ssg71
g74
sg64
(lp91
S':'
asbag57
(g78
g59
NtRp92
(dp93
g62
(dp94
sg71
g74
sg64
(lp95
g57
(g58
g59
NtRp96
(dp97
g62
(dp98
g70
I5
ssg71
g92
sg64
(lp99
S'False'
p100
asbasbasbag57
(g73
g59
NtRp101
(dp102
g62
(dp103
sg71
g67
sg64
(lp104
g57
(g78
g59
NtRp105
(dp106
g62
(dp107
g82
g83
ssg71
g101
sg64
(lp108
S'application'
p109
asbag57
(g78
g59
NtRp110
(dp111
g62
(dp112
g89
g90
ssg71
g101
sg64
(lp113
S':'
asbag57
(g78
g59
NtRp114
(dp115
g62
(dp116
sg71
g101
sg64
(lp117
g57
(g58
g59
NtRp118
(dp119
g62
(dp120
g70
I5
ssg71
g114
sg64
(lp121
S'vsalad'
p122
asbasbasbag57
(g73
g59
NtRp123
(dp124
g62
(dp125
sg71
g67
sg64
(lp126
g57
(g78
g59
NtRp127
(dp128
g62
(dp129
g82
g83
ssg71
g123
sg64
(lp130
g24
asbag57
(g78
g59
NtRp131
(dp132
g62
(dp133
g89
g90
ssg71
g123
sg64
(lp134
S':'
asbag57
(g78
g59
NtRp135
(dp136
g62
(dp137
sg71
g123
sg64
(lp138
g57
(g58
g59
NtRp139
(dp140
g62
(dp141
g70
I5
ssg71
g135
sg64
(lp142
g57
(g66
g59
NtRp143
(dp144
g62
(dp145
g70
I4
ssg71
Nsg64
(lp146
g57
(g73
g59
NtRp147
(dp148
g62
(dp149
sg71
g143
sg64
(lp150
g57
(g78
g59
NtRp151
(dp152
g62
(dp153
sg71
g147
sg64
(lp154
g57
(g58
g59
NtRp155
(dp156
g62
(dp157
g70
I4
ssg71
g151
sg64
(lp158
S'1'
asbasbasbasbasbasbasbag57
(g73
g59
NtRp159
(dp160
g62
(dp161
sg71
g67
sg64
(lp162
g57
(g78
g59
NtRp163
(dp164
g62
(dp165
g82
g83
ssg71
g159
sg64
(lp166
S'body'
p167
asbag57
(g78
g59
NtRp168
(dp169
g62
(dp170
g89
g90
ssg71
g159
sg64
(lp171
S':'
asbag57
(g78
g59
NtRp172
(dp173
g62
(dp174
sg71
g159
sg64
(lp175
g57
(g58
g59
NtRp176
(dp177
g62
(dp178
g70
I5
ssg71
g172
sg64
(lp179
S'<cStringIO.StringO object at 0x357a030>'
p180
asbasbasbag57
(g73
g59
NtRp181
(dp182
g62
(dp183
sg71
g67
sg64
(lp184
g57
(g78
g59
NtRp185
(dp186
g62
(dp187
g82
g83
ssg71
g181
sg64
(lp188
S'client'
p189
asbag57
(g78
g59
NtRp190
(dp191
g62
(dp192
g89
g90
ssg71
g181
sg64
(lp193
S':'
asbag57
(g78
g59
NtRp194
(dp195
g62
(dp196
sg71
g181
sg64
(lp197
g57
(g58
g59
NtRp198
(dp199
g62
(dp200
g70
I5
ssg71
g194
sg64
(lp201
S'127.0.0.1'
p202
asbasbasbag57
(g73
g59
NtRp203
(dp204
g62
(dp205
sg71
g67
sg64
(lp206
g57
(g78
g59
NtRp207
(dp208
g62
(dp209
g82
g83
ssg71
g203
sg64
(lp210
S'controller'
p211
asbag57
(g78
g59
NtRp212
(dp213
g62
(dp214
g89
g90
ssg71
g203
sg64
(lp215
S':'
asbag57
(g78
g59
NtRp216
(dp217
g62
(dp218
sg71
g203
sg64
(lp219
g57
(g58
g59
NtRp220
(dp221
g62
(dp222
g70
I5
ssg71
g216
sg64
(lp223
S'default'
p224
asbasbasbag57
(g73
g59
NtRp225
(dp226
g62
(dp227
sg71
g67
sg64
(lp228
g57
(g78
g59
NtRp229
(dp230
g62
(dp231
g82
g83
ssg71
g225
sg64
(lp232
S'cookies'
p233
asbag57
(g78
g59
NtRp234
(dp235
g62
(dp236
g89
g90
ssg71
g225
sg64
(lp237
S':'
asbag57
(g78
g59
NtRp238
(dp239
g62
(dp240
sg71
g225
sg64
(lp241
g57
(g58
g59
NtRp242
(dp243
g62
(dp244
g70
I5
ssg71
g238
sg64
(lp245
g57
(g66
g59
NtRp246
(dp247
g62
(dp248
g70
I4
ssg71
Nsg64
(lp249
g57
(g73
g59
NtRp250
(dp251
g62
(dp252
sg71
g246
sg64
(lp253
g57
(g78
g59
NtRp254
(dp255
g62
(dp256
g82
g83
ssg71
g250
sg64
(lp257
S'session_id_admin'
p258
asbag57
(g78
g59
NtRp259
(dp260
g62
(dp261
g89
g90
ssg71
g250
sg64
(lp262
S':'
asbag57
(g78
g59
NtRp263
(dp264
g62
(dp265
sg71
g250
sg64
(lp266
g57
(g58
g59
NtRp267
(dp268
g62
(dp269
g70
I4
ssg71
g263
sg64
(lp270
g57
(g66
g59
NtRp271
(dp272
g62
(dp273
g70
I3
ssg71
Nsg64
(lp274
g57
(g73
g59
NtRp275
(dp276
g62
(dp277
sg71
g271
sg64
(lp278
g57
(g78
g59
NtRp279
(dp280
g62
(dp281
g82
g83
ssg71
g275
sg64
(lp282
S'comment'
p283
asbag57
(g78
g59
NtRp284
(dp285
g62
(dp286
g89
g90
ssg71
g275
sg64
(lp287
S':'
asbag57
(g78
g59
NtRp288
(dp289
g62
(dp290
sg71
g275
sg64
(lp291
g57
(g58
g59
NtRp292
(dp293
g62
(dp294
g70
I3
ssg71
g288
sg64
(lp295
S''
asbasbasbag57
(g73
g59
NtRp296
(dp297
g62
(dp298
sg71
g271
sg64
(lp299
g57
(g78
g59
NtRp300
(dp301
g62
(dp302
g82
g83
ssg71
g296
sg64
(lp303
S'domain'
p304
asbag57
(g78
g59
NtRp305
(dp306
g62
(dp307
g89
g90
ssg71
g296
sg64
(lp308
S':'
asbag57
(g78
g59
NtRp309
(dp310
g62
(dp311
sg71
g296
sg64
(lp312
g57
(g58
g59
NtRp313
(dp314
g62
(dp315
g70
I3
ssg71
g309
sg64
(lp316
S''
asbasbasbag57
(g73
g59
NtRp317
(dp318
g62
(dp319
sg71
g271
sg64
(lp320
g57
(g78
g59
NtRp321
(dp322
g62
(dp323
g82
g83
ssg71
g317
sg64
(lp324
S'expires'
p325
asbag57
(g78
g59
NtRp326
(dp327
g62
(dp328
g89
g90
ssg71
g317
sg64
(lp329
S':'
asbag57
(g78
g59
NtRp330
(dp331
g62
(dp332
sg71
g317
sg64
(lp333
g57
(g58
g59
NtRp334
(dp335
g62
(dp336
g70
I3
ssg71
g330
sg64
(lp337
S''
asbasbasbag57
(g73
g59
NtRp338
(dp339
g62
(dp340
sg71
g271
sg64
(lp341
g57
(g78
g59
NtRp342
(dp343
g62
(dp344
g82
g83
ssg71
g338
sg64
(lp345
S'httponly'
p346
asbag57
(g78
g59
NtRp347
(dp348
g62
(dp349
g89
g90
ssg71
g338
sg64
(lp350
S':'
asbag57
(g78
g59
NtRp351
(dp352
g62
(dp353
sg71
g338
sg64
(lp354
g57
(g58
g59
NtRp355
(dp356
g62
(dp357
g70
I3
ssg71
g351
sg64
(lp358
S''
asbasbasbag57
(g73
g59
NtRp359
(dp360
g62
(dp361
sg71
g271
sg64
(lp362
g57
(g78
g59
NtRp363
(dp364
g62
(dp365
g82
g83
ssg71
g359
sg64
(lp366
S'max-age'
p367
asbag57
(g78
g59
NtRp368
(dp369
g62
(dp370
g89
g90
ssg71
g359
sg64
(lp371
S':'
asbag57
(g78
g59
NtRp372
(dp373
g62
(dp374
sg71
g359
sg64
(lp375
g57
(g58
g59
NtRp376
(dp377
g62
(dp378
g70
I3
ssg71
g372
sg64
(lp379
S''
asbasbasbag57
(g73
g59
NtRp380
(dp381
g62
(dp382
sg71
g271
sg64
(lp383
g57
(g78
g59
NtRp384
(dp385
g62
(dp386
g82
g83
ssg71
g380
sg64
(lp387
S'path'
p388
asbag57
(g78
g59
NtRp389
(dp390
g62
(dp391
g89
g90
ssg71
g380
sg64
(lp392
S':'
asbag57
(g78
g59
NtRp393
(dp394
g62
(dp395
sg71
g380
sg64
(lp396
g57
(g58
g59
NtRp397
(dp398
g62
(dp399
g70
I3
ssg71
g393
sg64
(lp400
S''
asbasbasbag57
(g73
g59
NtRp401
(dp402
g62
(dp403
sg71
g271
sg64
(lp404
g57
(g78
g59
NtRp405
(dp406
g62
(dp407
g82
g83
ssg71
g401
sg64
(lp408
S'secure'
p409
asbag57
(g78
g59
NtRp410
(dp411
g62
(dp412
g89
g90
ssg71
g401
sg64
(lp413
S':'
asbag57
(g78
g59
NtRp414
(dp415
g62
(dp416
sg71
g401
sg64
(lp417
g57
(g58
g59
NtRp418
(dp419
g62
(dp420
g70
I3
ssg71
g414
sg64
(lp421
S''
asbasbasbag57
(g73
g59
NtRp422
(dp423
g62
(dp424
sg71
g271
sg64
(lp425
g57
(g78
g59
NtRp426
(dp427
g62
(dp428
g82
g83
ssg71
g422
sg64
(lp429
S'version'
p430
asbag57
(g78
g59
NtRp431
(dp432
g62
(dp433
g89
g90
ssg71
g422
sg64
(lp434
S':'
asbag57
(g78
g59
NtRp435
(dp436
g62
(dp437
sg71
g422
sg64
(lp438
g57
(g58
g59
NtRp439
(dp440
g62
(dp441
g70
I3
ssg71
g435
sg64
(lp442
S''
asbasbasbasbasbasbasbag57
(g73
g59
NtRp443
(dp444
g62
(dp445
sg71
g246
sg64
(lp446
g57
(g78
g59
NtRp447
(dp448
g62
(dp449
g82
g83
ssg71
g443
sg64
(lp450
S'session_id_vsalad'
p451
asbag57
(g78
g59
NtRp452
(dp453
g62
(dp454
g89
g90
ssg71
g443
sg64
(lp455
S':'
asbag57
(g78
g59
NtRp456
(dp457
g62
(dp458
sg71
g443
sg64
(lp459
g57
(g58
g59
NtRp460
(dp461
g62
(dp462
g70
I4
ssg71
g456
sg64
(lp463
g57
(g66
g59
NtRp464
(dp465
g62
(dp466
g70
I3
ssg71
Nsg64
(lp467
g57
(g73
g59
NtRp468
(dp469
g62
(dp470
sg71
g464
sg64
(lp471
g57
(g78
g59
NtRp472
(dp473
g62
(dp474
g82
g83
ssg71
g468
sg64
(lp475
g283
asbag57
(g78
g59
NtRp476
(dp477
g62
(dp478
g89
g90
ssg71
g468
sg64
(lp479
S':'
asbag57
(g78
g59
NtRp480
(dp481
g62
(dp482
sg71
g468
sg64
(lp483
g57
(g58
g59
NtRp484
(dp485
g62
(dp486
g70
I3
ssg71
g480
sg64
(lp487
S''
asbasbasbag57
(g73
g59
NtRp488
(dp489
g62
(dp490
sg71
g464
sg64
(lp491
g57
(g78
g59
NtRp492
(dp493
g62
(dp494
g82
g83
ssg71
g488
sg64
(lp495
g304
asbag57
(g78
g59
NtRp496
(dp497
g62
(dp498
g89
g90
ssg71
g488
sg64
(lp499
S':'
asbag57
(g78
g59
NtRp500
(dp501
g62
(dp502
sg71
g488
sg64
(lp503
g57
(g58
g59
NtRp504
(dp505
g62
(dp506
g70
I3
ssg71
g500
sg64
(lp507
S''
asbasbasbag57
(g73
g59
NtRp508
(dp509
g62
(dp510
sg71
g464
sg64
(lp511
g57
(g78
g59
NtRp512
(dp513
g62
(dp514
g82
g83
ssg71
g508
sg64
(lp515
g325
asbag57
(g78
g59
NtRp516
(dp517
g62
(dp518
g89
g90
ssg71
g508
sg64
(lp519
S':'
asbag57
(g78
g59
NtRp520
(dp521
g62
(dp522
sg71
g508
sg64
(lp523
g57
(g58
g59
NtRp524
(dp525
g62
(dp526
g70
I3
ssg71
g520
sg64
(lp527
S''
asbasbasbag57
(g73
g59
NtRp528
(dp529
g62
(dp530
sg71
g464
sg64
(lp531
g57
(g78
g59
NtRp532
(dp533
g62
(dp534
g82
g83
ssg71
g528
sg64
(lp535
g346
asbag57
(g78
g59
NtRp536
(dp537
g62
(dp538
g89
g90
ssg71
g528
sg64
(lp539
S':'
asbag57
(g78
g59
NtRp540
(dp541
g62
(dp542
sg71
g528
sg64
(lp543
g57
(g58
g59
NtRp544
(dp545
g62
(dp546
g70
I3
ssg71
g540
sg64
(lp547
S''
asbasbasbag57
(g73
g59
NtRp548
(dp549
g62
(dp550
sg71
g464
sg64
(lp551
g57
(g78
g59
NtRp552
(dp553
g62
(dp554
g82
g83
ssg71
g548
sg64
(lp555
g367
asbag57
(g78
g59
NtRp556
(dp557
g62
(dp558
g89
g90
ssg71
g548
sg64
(lp559
S':'
asbag57
(g78
g59
NtRp560
(dp561
g62
(dp562
sg71
g548
sg64
(lp563
g57
(g58
g59
NtRp564
(dp565
g62
(dp566
g70
I3
ssg71
g560
sg64
(lp567
S''
asbasbasbag57
(g73
g59
NtRp568
(dp569
g62
(dp570
sg71
g464
sg64
(lp571
g57
(g78
g59
NtRp572
(dp573
g62
(dp574
g82
g83
ssg71
g568
sg64
(lp575
g388
asbag57
(g78
g59
NtRp576
(dp577
g62
(dp578
g89
g90
ssg71
g568
sg64
(lp579
S':'
asbag57
(g78
g59
NtRp580
(dp581
g62
(dp582
sg71
g568
sg64
(lp583
g57
(g58
g59
NtRp584
(dp585
g62
(dp586
g70
I3
ssg71
g580
sg64
(lp587
S''
asbasbasbag57
(g73
g59
NtRp588
(dp589
g62
(dp590
sg71
g464
sg64
(lp591
g57
(g78
g59
NtRp592
(dp593
g62
(dp594
g82
g83
ssg71
g588
sg64
(lp595
g409
asbag57
(g78
g59
NtRp596
(dp597
g62
(dp598
g89
g90
ssg71
g588
sg64
(lp599
S':'
asbag57
(g78
g59
NtRp600
(dp601
g62
(dp602
sg71
g588
sg64
(lp603
g57
(g58
g59
NtRp604
(dp605
g62
(dp606
g70
I3
ssg71
g600
sg64
(lp607
S''
asbasbasbag57
(g73
g59
NtRp608
(dp609
g62
(dp610
sg71
g464
sg64
(lp611
g57
(g78
g59
NtRp612
(dp613
g62
(dp614
g82
g83
ssg71
g608
sg64
(lp615
g430
asbag57
(g78
g59
NtRp616
(dp617
g62
(dp618
g89
g90
ssg71
g608
sg64
(lp619
S':'
asbag57
(g78
g59
NtRp620
(dp621
g62
(dp622
sg71
g608
sg64
(lp623
g57
(g58
g59
NtRp624
(dp625
g62
(dp626
g70
I3
ssg71
g620
sg64
(lp627
S''
asbasbasbasbasbasbasbag57
(g73
g59
NtRp628
(dp629
g62
(dp630
sg71
g246
sg64
(lp631
g57
(g78
g59
NtRp632
(dp633
g62
(dp634
g82
g83
ssg71
g628
sg64
(lp635
S'session_id_welcome'
p636
asbag57
(g78
g59
NtRp637
(dp638
g62
(dp639
g89
g90
ssg71
g628
sg64
(lp640
S':'
asbag57
(g78
g59
NtRp641
(dp642
g62
(dp643
sg71
g628
sg64
(lp644
g57
(g58
g59
NtRp645
(dp646
g62
(dp647
g70
I4
ssg71
g641
sg64
(lp648
g57
(g66
g59
NtRp649
(dp650
g62
(dp651
g70
I3
ssg71
Nsg64
(lp652
g57
(g73
g59
NtRp653
(dp654
g62
(dp655
sg71
g649
sg64
(lp656
g57
(g78
g59
NtRp657
(dp658
g62
(dp659
g82
g83
ssg71
g653
sg64
(lp660
g283
asbag57
(g78
g59
NtRp661
(dp662
g62
(dp663
g89
g90
ssg71
g653
sg64
(lp664
S':'
asbag57
(g78
g59
NtRp665
(dp666
g62
(dp667
sg71
g653
sg64
(lp668
g57
(g58
g59
NtRp669
(dp670
g62
(dp671
g70
I3
ssg71
g665
sg64
(lp672
S''
asbasbasbag57
(g73
g59
NtRp673
(dp674
g62
(dp675
sg71
g649
sg64
(lp676
g57
(g78
g59
NtRp677
(dp678
g62
(dp679
g82
g83
ssg71
g673
sg64
(lp680
g304
asbag57
(g78
g59
NtRp681
(dp682
g62
(dp683
g89
g90
ssg71
g673
sg64
(lp684
S':'
asbag57
(g78
g59
NtRp685
(dp686
g62
(dp687
sg71
g673
sg64
(lp688
g57
(g58
g59
NtRp689
(dp690
g62
(dp691
g70
I3
ssg71
g685
sg64
(lp692
S''
asbasbasbag57
(g73
g59
NtRp693
(dp694
g62
(dp695
sg71
g649
sg64
(lp696
g57
(g78
g59
NtRp697
(dp698
g62
(dp699
g82
g83
ssg71
g693
sg64
(lp700
g325
asbag57
(g78
g59
NtRp701
(dp702
g62
(dp703
g89
g90
ssg71
g693
sg64
(lp704
S':'
asbag57
(g78
g59
NtRp705
(dp706
g62
(dp707
sg71
g693
sg64
(lp708
g57
(g58
g59
NtRp709
(dp710
g62
(dp711
g70
I3
ssg71
g705
sg64
(lp712
S''
asbasbasbag57
(g73
g59
NtRp713
(dp714
g62
(dp715
sg71
g649
sg64
(lp716
g57
(g78
g59
NtRp717
(dp718
g62
(dp719
g82
g83
ssg71
g713
sg64
(lp720
g346
asbag57
(g78
g59
NtRp721
(dp722
g62
(dp723
g89
g90
ssg71
g713
sg64
(lp724
S':'
asbag57
(g78
g59
NtRp725
(dp726
g62
(dp727
sg71
g713
sg64
(lp728
g57
(g58
g59
NtRp729
(dp730
g62
(dp731
g70
I3
ssg71
g725
sg64
(lp732
S''
asbasbasbag57
(g73
g59
NtRp733
(dp734
g62
(dp735
sg71
g649
sg64
(lp736
g57
(g78
g59
NtRp737
(dp738
g62
(dp739
g82
g83
ssg71
g733
sg64
(lp740
g367
asbag57
(g78
g59
NtRp741
(dp742
g62
(dp743
g89
g90
ssg71
g733
sg64
(lp744
S':'
asbag57
(g78
g59
NtRp745
(dp746
g62
(dp747
sg71
g733
sg64
(lp748
g57
(g58
g59
NtRp749
(dp750
g62
(dp751
g70
I3
ssg71
g745
sg64
(lp752
S''
asbasbasbag57
(g73
g59
NtRp753
(dp754
g62
(dp755
sg71
g649
sg64
(lp756
g57
(g78
g59
NtRp757
(dp758
g62
(dp759
g82
g83
ssg71
g753
sg64
(lp760
g388
asbag57
(g78
g59
NtRp761
(dp762
g62
(dp763
g89
g90
ssg71
g753
sg64
(lp764
S':'
asbag57
(g78
g59
NtRp765
(dp766
g62
(dp767
sg71
g753
sg64
(lp768
g57
(g58
g59
NtRp769
(dp770
g62
(dp771
g70
I3
ssg71
g765
sg64
(lp772
S''
asbasbasbag57
(g73
g59
NtRp773
(dp774
g62
(dp775
sg71
g649
sg64
(lp776
g57
(g78
g59
NtRp777
(dp778
g62
(dp779
g82
g83
ssg71
g773
sg64
(lp780
g409
asbag57
(g78
g59
NtRp781
(dp782
g62
(dp783
g89
g90
ssg71
g773
sg64
(lp784
S':'
asbag57
(g78
g59
NtRp785
(dp786
g62
(dp787
sg71
g773
sg64
(lp788
g57
(g58
g59
NtRp789
(dp790
g62
(dp791
g70
I3
ssg71
g785
sg64
(lp792
S''
asbasbasbag57
(g73
g59
NtRp793
(dp794
g62
(dp795
sg71
g649
sg64
(lp796
g57
(g78
g59
NtRp797
(dp798
g62
(dp799
g82
g83
ssg71
g793
sg64
(lp800
g430
asbag57
(g78
g59
NtRp801
(dp802
g62
(dp803
g89
g90
ssg71
g793
sg64
(lp804
S':'
asbag57
(g78
g59
NtRp805
(dp806
g62
(dp807
sg71
g793
sg64
(lp808
g57
(g58
g59
NtRp809
(dp810
g62
(dp811
g70
I3
ssg71
g805
sg64
(lp812
S''
asbasbasbasbasbasbasbasbasbasbasbag57
(g73
g59
NtRp813
(dp814
g62
(dp815
sg71
g67
sg64
(lp816
g57
(g78
g59
NtRp817
(dp818
g62
(dp819
g82
g83
ssg71
g813
sg64
(lp820
S'env'
p821
asbag57
(g78
g59
NtRp822
(dp823
g62
(dp824
g89
g90
ssg71
g813
sg64
(lp825
S':'
asbag57
(g78
g59
NtRp826
(dp827
g62
(dp828
sg71
g813
sg64
(lp829
g57
(g58
g59
NtRp830
(dp831
g62
(dp832
g70
I5
ssg71
g826
sg64
(lp833
g57
(g66
g59
NtRp834
(dp835
g62
(dp836
g70
I4
ssg71
Nsg64
(lp837
g57
(g73
g59
NtRp838
(dp839
g62
(dp840
sg71
g834
sg64
(lp841
g57
(g78
g59
NtRp842
(dp843
g62
(dp844
g82
g83
ssg71
g838
sg64
(lp845
S'app_folders'
p846
asbag57
(g78
g59
NtRp847
(dp848
g62
(dp849
g89
g90
ssg71
g838
sg64
(lp850
S':'
asbag57
(g78
g59
NtRp851
(dp852
g62
(dp853
sg71
g838
sg64
(lp854
g57
(g58
g59
NtRp855
(dp856
g62
(dp857
g70
I4
ssg71
g851
sg64
(lp858
S"set(['/home/fish/Desktop/web2py/applications/admin/', '/home/fish/Desktop/web2py/applications/welcome/', '/home/fish/Desktop/web2py/applications/vsalad/'])"
p859
asbasbasbag57
(g73
g59
NtRp860
(dp861
g62
(dp862
sg71
g834
sg64
(lp863
g57
(g78
g59
NtRp864
(dp865
g62
(dp866
g82
g83
ssg71
g860
sg64
(lp867
S'applications_parent'
p868
asbag57
(g78
g59
NtRp869
(dp870
g62
(dp871
g89
g90
ssg71
g860
sg64
(lp872
S':'
asbag57
(g78
g59
NtRp873
(dp874
g62
(dp875
sg71
g860
sg64
(lp876
g57
(g58
g59
NtRp877
(dp878
g62
(dp879
g70
I4
ssg71
g873
sg64
(lp880
S'/home/fish/Desktop/web2py'
p881
asbasbasbag57
(g73
g59
NtRp882
(dp883
g62
(dp884
sg71
g834
sg64
(lp885
g57
(g78
g59
NtRp886
(dp887
g62
(dp888
g82
g83
ssg71
g882
sg64
(lp889
S'cmd_args'
p890
asbag57
(g78
g59
NtRp891
(dp892
g62
(dp893
g89
g90
ssg71
g882
sg64
(lp894
S':'
asbag57
(g78
g59
NtRp895
(dp896
g62
(dp897
sg71
g882
sg64
(lp898
g57
(g58
g59
NtRp899
(dp900
g62
(dp901
g70
I4
ssg71
g895
sg64
(lp902
g57
(g66
g59
NtRp903
(dp904
g62
(dp905
g70
I3
ssg71
Nsg64
(lp906
sbasbasbasbag57
(g73
g59
NtRp907
(dp908
g62
(dp909
sg71
g834
sg64
(lp910
g57
(g78
g59
NtRp911
(dp912
g62
(dp913
g82
g83
ssg71
g907
sg64
(lp914
S'cmd_options'
p915
asbag57
(g78
g59
NtRp916
(dp917
g62
(dp918
g89
g90
ssg71
g907
sg64
(lp919
S':'
asbag57
(g78
g59
NtRp920
(dp921
g62
(dp922
sg71
g907
sg64
(lp923
g57
(g58
g59
NtRp924
(dp925
g62
(dp926
g70
I4
ssg71
g920
sg64
(lp927
S"<Values at 0x255e518: {'verbose': False, 'ip': '127.0.0.1', 'shutdown_timeout': 5, 'taskbar': False, 'nocron': False, 'pid_filename': 'httpserver.pid', 'maxthreads': None, 'softcron': False, 'server_name': 'Master-Fish', 'bpython': False, 'nogui': False, 'port': 8000, 'extcron': False, 'debuglevel': 30, 'test': None, 'folder': '/home/fish/Desktop/web2py', 'config': '', 'import_models': False, 'winservice': '', 'shell': None, 'run': '', 'log_filename': 'httpserver.log', 'args': [''], 'socket_timeout': 5, 'ssl_ca_certificate': None, 'scheduler': None, 'profiler_filename': None, 'ssl_private_key': '', 'password': '<ask>', 'request_queue_size': 5, 'ssl_certificate': '', 'cronjob': False, 'numthreads': None, 'quiet': False, 'interfaces': None, 'minthreads': None, 'timeout': 10, 'plain': False, 'nobanner': False}>"
p928
asbasbasbag57
(g73
g59
NtRp929
(dp930
g62
(dp931
sg71
g834
sg64
(lp932
g57
(g78
g59
NtRp933
(dp934
g62
(dp935
g82
g83
ssg71
g929
sg64
(lp936
S'db_sessions'
p937
asbag57
(g78
g59
NtRp938
(dp939
g62
(dp940
g89
g90
ssg71
g929
sg64
(lp941
S':'
asbag57
(g78
g59
NtRp942
(dp943
g62
(dp944
sg71
g929
sg64
(lp945
g57
(g58
g59
NtRp946
(dp947
g62
(dp948
g70
I4
ssg71
g942
sg64
(lp949
S'set([])'
p950
asbasbasbag57
(g73
g59
NtRp951
(dp952
g62
(dp953
sg71
g834
sg64
(lp954
g57
(g78
g59
NtRp955
(dp956
g62
(dp957
g82
g83
ssg71
g951
sg64
(lp958
S'debugging'
p959
asbag57
(g78
g59
NtRp960
(dp961
g62
(dp962
g89
g90
ssg71
g951
sg64
(lp963
S':'
asbag57
(g78
g59
NtRp964
(dp965
g62
(dp966
sg71
g951
sg64
(lp967
g57
(g58
g59
NtRp968
(dp969
g62
(dp970
g70
I4
ssg71
g964
sg64
(lp971
g100
asbasbasbag57
(g73
g59
NtRp972
(dp973
g62
(dp974
sg71
g834
sg64
(lp975
g57
(g78
g59
NtRp976
(dp977
g62
(dp978
g82
g83
ssg71
g972
sg64
(lp979
S'gluon_parent'
p980
asbag57
(g78
g59
NtRp981
(dp982
g62
(dp983
g89
g90
ssg71
g972
sg64
(lp984
S':'
asbag57
(g78
g59
NtRp985
(dp986
g62
(dp987
sg71
g972
sg64
(lp988
g57
(g58
g59
NtRp989
(dp990
g62
(dp991
g70
I4
ssg71
g985
sg64
(lp992
S'/home/fish/Desktop/web2py'
p993
asbasbasbag57
(g73
g59
NtRp994
(dp995
g62
(dp996
sg71
g834
sg64
(lp997
g57
(g78
g59
NtRp998
(dp999
g62
(dp1000
g82
g83
ssg71
g994
sg64
(lp1001
S'http_accept'
p1002
asbag57
(g78
g59
NtRp1003
(dp1004
g62
(dp1005
g89
g90
ssg71
g994
sg64
(lp1006
S':'
asbag57
(g78
g59
NtRp1007
(dp1008
g62
(dp1009
sg71
g994
sg64
(lp1010
g57
(g58
g59
NtRp1011
(dp1012
g62
(dp1013
g70
I4
ssg71
g1007
sg64
(lp1014
S'text/html,application/xhtml+xml,application/xml;q=0.9,*/*;q=0.8'
p1015
asbasbasbag57
(g73
g59
NtRp1016
(dp1017
g62
(dp1018
sg71
g834
sg64
(lp1019
g57
(g78
g59
NtRp1020
(dp1021
g62
(dp1022
g82
g83
ssg71
g1016
sg64
(lp1023
S'http_accept_charset'
p1024
asbag57
(g78
g59
NtRp1025
(dp1026
g62
(dp1027
g89
g90
ssg71
g1016
sg64
(lp1028
S':'
asbag57
(g78
g59
NtRp1029
(dp1030
g62
(dp1031
sg71
g1016
sg64
(lp1032
g57
(g58
g59
NtRp1033
(dp1034
g62
(dp1035
g70
I4
ssg71
g1029
sg64
(lp1036
S'ISO-8859-1,utf-8;q=0.7,*;q=0.3'
p1037
asbasbasbag57
(g73
g59
NtRp1038
(dp1039
g62
(dp1040
sg71
g834
sg64
(lp1041
g57
(g78
g59
NtRp1042
(dp1043
g62
(dp1044
g82
g83
ssg71
g1038
sg64
(lp1045
S'http_accept_encoding'
p1046
asbag57
(g78
g59
NtRp1047
(dp1048
g62
(dp1049
g89
g90
ssg71
g1038
sg64
(lp1050
S':'
asbag57
(g78
g59
NtRp1051
(dp1052
g62
(dp1053
sg71
g1038
sg64
(lp1054
g57
(g58
g59
NtRp1055
(dp1056
g62
(dp1057
g70
I4
ssg71
g1051
sg64
(lp1058
S'gzip,deflate,sdch'
p1059
asbasbasbag57
(g73
g59
NtRp1060
(dp1061
g62
(dp1062
sg71
g834
sg64
(lp1063
g57
(g78
g59
NtRp1064
(dp1065
g62
(dp1066
g82
g83
ssg71
g1060
sg64
(lp1067
S'http_accept_language'
p1068
asbag57
(g78
g59
NtRp1069
(dp1070
g62
(dp1071
g89
g90
ssg71
g1060
sg64
(lp1072
S':'
asbag57
(g78
g59
NtRp1073
(dp1074
g62
(dp1075
sg71
g1060
sg64
(lp1076
g57
(g58
g59
NtRp1077
(dp1078
g62
(dp1079
g70
I4
ssg71
g1073
sg64
(lp1080
S'en-US,en;q=0.8,fr;q=0.6'
p1081
asbasbasbag57
(g73
g59
NtRp1082
(dp1083
g62
(dp1084
sg71
g834
sg64
(lp1085
g57
(g78
g59
NtRp1086
(dp1087
g62
(dp1088
g82
g83
ssg71
g1082
sg64
(lp1089
S'http_connection'
p1090
asbag57
(g78
g59
NtRp1091
(dp1092
g62
(dp1093
g89
g90
ssg71
g1082
sg64
(lp1094
S':'
asbag57
(g78
g59
NtRp1095
(dp1096
g62
(dp1097
sg71
g1082
sg64
(lp1098
g57
(g58
g59
NtRp1099
(dp1100
g62
(dp1101
g70
I4
ssg71
g1095
sg64
(lp1102
S'keep-alive'
p1103
asbasbasbag57
(g73
g59
NtRp1104
(dp1105
g62
(dp1106
sg71
g834
sg64
(lp1107
g57
(g78
g59
NtRp1108
(dp1109
g62
(dp1110
g82
g83
ssg71
g1104
sg64
(lp1111
S'http_cookie'
p1112
asbag57
(g78
g59
NtRp1113
(dp1114
g62
(dp1115
g89
g90
ssg71
g1104
sg64
(lp1116
S':'
asbag57
(g78
g59
NtRp1117
(dp1118
g62
(dp1119
sg71
g1104
sg64
(lp1120
g57
(g58
g59
NtRp1121
(dp1122
g62
(dp1123
g70
I4
ssg71
g1117
sg64
(lp1124
S'session_id_welcome=127.0.0.1-ca03d1c8-fce4-40ec-877f-7a5659c560fd; session_id_admin=127.0.0.1-dc074c73-6f98-4dc3-830d-e23ec66fde78; session_id_vsalad=127.0.0.1-65c5fec7-9058-48a5-9599-65c6d4c50931'
p1125
asbasbasbag57
(g73
g59
NtRp1126
(dp1127
g62
(dp1128
sg71
g834
sg64
(lp1129
g57
(g78
g59
NtRp1130
(dp1131
g62
(dp1132
g82
g83
ssg71
g1126
sg64
(lp1133
S'http_host'
p1134
asbag57
(g78
g59
NtRp1135
(dp1136
g62
(dp1137
g89
g90
ssg71
g1126
sg64
(lp1138
S':'
asbag57
(g78
g59
NtRp1139
(dp1140
g62
(dp1141
sg71
g1126
sg64
(lp1142
g57
(g58
g59
NtRp1143
(dp1144
g62
(dp1145
g70
I4
ssg71
g1139
sg64
(lp1146
S'127.0.0.1:8000'
p1147
asbasbasbag57
(g73
g59
NtRp1148
(dp1149
g62
(dp1150
sg71
g834
sg64
(lp1151
g57
(g78
g59
NtRp1152
(dp1153
g62
(dp1154
g82
g83
ssg71
g1148
sg64
(lp1155
S'http_user_agent'
p1156
asbag57
(g78
g59
NtRp1157
(dp1158
g62
(dp1159
g89
g90
ssg71
g1148
sg64
(lp1160
S':'
asbag57
(g78
g59
NtRp1161
(dp1162
g62
(dp1163
sg71
g1148
sg64
(lp1164
g57
(g58
g59
NtRp1165
(dp1166
g62
(dp1167
g70
I4
ssg71
g1161
sg64
(lp1168
S'Mozilla/5.0 (X11; Linux x86_64) AppleWebKit/535.19 (KHTML, like Gecko) Chrome/18.0.1025.162 Safari/535.19'
p1169
asbasbasbag57
(g73
g59
NtRp1170
(dp1171
g62
(dp1172
sg71
g834
sg64
(lp1173
g57
(g78
g59
NtRp1174
(dp1175
g62
(dp1176
g82
g83
ssg71
g1170
sg64
(lp1177
S'is_jython'
p1178
asbag57
(g78
g59
NtRp1179
(dp1180
g62
(dp1181
g89
g90
ssg71
g1170
sg64
(lp1182
S':'
asbag57
(g78
g59
NtRp1183
(dp1184
g62
(dp1185
sg71
g1170
sg64
(lp1186
g57
(g58
g59
NtRp1187
(dp1188
g62
(dp1189
g70
I4
ssg71
g1183
sg64
(lp1190
g100
asbasbasbag57
(g73
g59
NtRp1191
(dp1192
g62
(dp1193
sg71
g834
sg64
(lp1194
g57
(g78
g59
NtRp1195
(dp1196
g62
(dp1197
g82
g83
ssg71
g1191
sg64
(lp1198
S'is_pypy'
p1199
asbag57
(g78
g59
NtRp1200
(dp1201
g62
(dp1202
g89
g90
ssg71
g1191
sg64
(lp1203
S':'
asbag57
(g78
g59
NtRp1204
(dp1205
g62
(dp1206
sg71
g1191
sg64
(lp1207
g57
(g58
g59
NtRp1208
(dp1209
g62
(dp1210
g70
I4
ssg71
g1204
sg64
(lp1211
g100
asbasbasbag57
(g73
g59
NtRp1212
(dp1213
g62
(dp1214
sg71
g834
sg64
(lp1215
g57
(g78
g59
NtRp1216
(dp1217
g62
(dp1218
g82
g83
ssg71
g1212
sg64
(lp1219
S'path_info'
p1220
asbag57
(g78
g59
NtRp1221
(dp1222
g62
(dp1223
g89
g90
ssg71
g1212
sg64
(lp1224
S':'
asbag57
(g78
g59
NtRp1225
(dp1226
g62
(dp1227
sg71
g1212
sg64
(lp1228
g57
(g58
g59
NtRp1229
(dp1230
g62
(dp1231
g70
I4
ssg71
g1225
sg64
(lp1232
S'/vsalad/default/article/1'
p1233
asbasbasbag57
(g73
g59
NtRp1234
(dp1235
g62
(dp1236
sg71
g834
sg64
(lp1237
g57
(g78
g59
NtRp1238
(dp1239
g62
(dp1240
g82
g83
ssg71
g1234
sg64
(lp1241
S'query_string'
p1242
asbag57
(g78
g59
NtRp1243
(dp1244
g62
(dp1245
g89
g90
ssg71
g1234
sg64
(lp1246
S':'
asbag57
(g78
g59
NtRp1247
(dp1248
g62
(dp1249
sg71
g1234
sg64
(lp1250
g57
(g58
g59
NtRp1251
(dp1252
g62
(dp1253
g70
I4
ssg71
g1247
sg64
(lp1254
S''
asbasbasbag57
(g73
g59
NtRp1255
(dp1256
g62
(dp1257
sg71
g834
sg64
(lp1258
g57
(g78
g59
NtRp1259
(dp1260
g62
(dp1261
g82
g83
ssg71
g1255
sg64
(lp1262
S'remote_addr'
p1263
asbag57
(g78
g59
NtRp1264
(dp1265
g62
(dp1266
g89
g90
ssg71
g1255
sg64
(lp1267
S':'
asbag57
(g78
g59
NtRp1268
(dp1269
g62
(dp1270
sg71
g1255
sg64
(lp1271
g57
(g58
g59
NtRp1272
(dp1273
g62
(dp1274
g70
I4
ssg71
g1268
sg64
(lp1275
g202
asbasbasbag57
(g73
g59
NtRp1276
(dp1277
g62
(dp1278
sg71
g834
sg64
(lp1279
g57
(g78
g59
NtRp1280
(dp1281
g62
(dp1282
g82
g83
ssg71
g1276
sg64
(lp1283
S'remote_port'
p1284
asbag57
(g78
g59
NtRp1285
(dp1286
g62
(dp1287
g89
g90
ssg71
g1276
sg64
(lp1288
S':'
asbag57
(g78
g59
NtRp1289
(dp1290
g62
(dp1291
sg71
g1276
sg64
(lp1292
g57
(g58
g59
NtRp1293
(dp1294
g62
(dp1295
g70
I4
ssg71
g1289
sg64
(lp1296
S'36993'
p1297
asbasbasbag57
(g73
g59
NtRp1298
(dp1299
g62
(dp1300
sg71
g834
sg64
(lp1301
g57
(g78
g59
NtRp1302
(dp1303
g62
(dp1304
g82
g83
ssg71
g1298
sg64
(lp1305
S'request_method'
p1306
asbag57
(g78
g59
NtRp1307
(dp1308
g62
(dp1309
g89
g90
ssg71
g1298
sg64
(lp1310
S':'
asbag57
(g78
g59
NtRp1311
(dp1312
g62
(dp1313
sg71
g1298
sg64
(lp1314
g57
(g58
g59
NtRp1315
(dp1316
g62
(dp1317
g70
I4
ssg71
g1311
sg64
(lp1318
S'GET'
p1319
asbasbasbag57
(g73
g59
NtRp1320
(dp1321
g62
(dp1322
sg71
g834
sg64
(lp1323
g57
(g78
g59
NtRp1324
(dp1325
g62
(dp1326
g82
g83
ssg71
g1320
sg64
(lp1327
S'script_name'
p1328
asbag57
(g78
g59
NtRp1329
(dp1330
g62
(dp1331
g89
g90
ssg71
g1320
sg64
(lp1332
S':'
asbag57
(g78
g59
NtRp1333
(dp1334
g62
(dp1335
sg71
g1320
sg64
(lp1336
g57
(g58
g59
NtRp1337
(dp1338
g62
(dp1339
g70
I4
ssg71
g1333
sg64
(lp1340
S''
asbasbasbag57
(g73
g59
NtRp1341
(dp1342
g62
(dp1343
sg71
g834
sg64
(lp1344
g57
(g78
g59
NtRp1345
(dp1346
g62
(dp1347
g82
g83
ssg71
g1341
sg64
(lp1348
S'server_name'
p1349
asbag57
(g78
g59
NtRp1350
(dp1351
g62
(dp1352
g89
g90
ssg71
g1341
sg64
(lp1353
S':'
asbag57
(g78
g59
NtRp1354
(dp1355
g62
(dp1356
sg71
g1341
sg64
(lp1357
g57
(g58
g59
NtRp1358
(dp1359
g62
(dp1360
g70
I4
ssg71
g1354
sg64
(lp1361
S'Master-Fish'
p1362
asbasbasbag57
(g73
g59
NtRp1363
(dp1364
g62
(dp1365
sg71
g834
sg64
(lp1366
g57
(g78
g59
NtRp1367
(dp1368
g62
(dp1369
g82
g83
ssg71
g1363
sg64
(lp1370
S'server_port'
p1371
asbag57
(g78
g59
NtRp1372
(dp1373
g62
(dp1374
g89
g90
ssg71
g1363
sg64
(lp1375
S':'
asbag57
(g78
g59
NtRp1376
(dp1377
g62
(dp1378
sg71
g1363
sg64
(lp1379
g57
(g58
g59
NtRp1380
(dp1381
g62
(dp1382
g70
I4
ssg71
g1376
sg64
(lp1383
S'8000'
p1384
asbasbasbag57
(g73
g59
NtRp1385
(dp1386
g62
(dp1387
sg71
g834
sg64
(lp1388
g57
(g78
g59
NtRp1389
(dp1390
g62
(dp1391
g82
g83
ssg71
g1385
sg64
(lp1392
S'server_protocol'
p1393
asbag57
(g78
g59
NtRp1394
(dp1395
g62
(dp1396
g89
g90
ssg71
g1385
sg64
(lp1397
S':'
asbag57
(g78
g59
NtRp1398
(dp1399
g62
(dp1400
sg71
g1385
sg64
(lp1401
g57
(g58
g59
NtRp1402
(dp1403
g62
(dp1404
g70
I4
ssg71
g1398
sg64
(lp1405
S'HTTP/1.1'
p1406
asbasbasbag57
(g73
g59
NtRp1407
(dp1408
g62
(dp1409
sg71
g834
sg64
(lp1410
g57
(g78
g59
NtRp1411
(dp1412
g62
(dp1413
g82
g83
ssg71
g1407
sg64
(lp1414
S'server_software'
p1415
asbag57
(g78
g59
NtRp1416
(dp1417
g62
(dp1418
g89
g90
ssg71
g1407
sg64
(lp1419
S':'
asbag57
(g78
g59
NtRp1420
(dp1421
g62
(dp1422
sg71
g1407
sg64
(lp1423
g57
(g58
g59
NtRp1424
(dp1425
g62
(dp1426
g70
I4
ssg71
g1420
sg64
(lp1427
S'Rocket 1.2.4'
p1428
asbasbasbag57
(g73
g59
NtRp1429
(dp1430
g62
(dp1431
sg71
g834
sg64
(lp1432
g57
(g78
g59
NtRp1433
(dp1434
g62
(dp1435
g82
g83
ssg71
g1429
sg64
(lp1436
S'web2py_crontype'
p1437
asbag57
(g78
g59
NtRp1438
(dp1439
g62
(dp1440
g89
g90
ssg71
g1429
sg64
(lp1441
S':'
asbag57
(g78
g59
NtRp1442
(dp1443
g62
(dp1444
sg71
g1429
sg64
(lp1445
g57
(g58
g59
NtRp1446
(dp1447
g62
(dp1448
g70
I4
ssg71
g1442
sg64
(lp1449
S'hard'
p1450
asbasbasbag57
(g73
g59
NtRp1451
(dp1452
g62
(dp1453
sg71
g834
sg64
(lp1454
g57
(g78
g59
NtRp1455
(dp1456
g62
(dp1457
g82
g83
ssg71
g1451
sg64
(lp1458
S'web2py_path'
p1459
asbag57
(g78
g59
NtRp1460
(dp1461
g62
(dp1462
g89
g90
ssg71
g1451
sg64
(lp1463
S':'
asbag57
(g78
g59
NtRp1464
(dp1465
g62
(dp1466
sg71
g1451
sg64
(lp1467
g57
(g58
g59
NtRp1468
(dp1469
g62
(dp1470
g70
I4
ssg71
g1464
sg64
(lp1471
g881
asbasbasbag57
(g73
g59
NtRp1472
(dp1473
g62
(dp1474
sg71
g834
sg64
(lp1475
g57
(g78
g59
NtRp1476
(dp1477
g62
(dp1478
g82
g83
ssg71
g1472
sg64
(lp1479
S'web2py_version'
p1480
asbag57
(g78
g59
NtRp1481
(dp1482
g62
(dp1483
g89
g90
ssg71
g1472
sg64
(lp1484
S':'
asbag57
(g78
g59
NtRp1485
(dp1486
g62
(dp1487
sg71
g1472
sg64
(lp1488
g57
(g58
g59
NtRp1489
(dp1490
g62
(dp1491
g70
I4
ssg71
g1485
sg64
(lp1492
g57
(g66
g59
NtRp1493
(dp1494
g62
(dp1495
g70
I3
ssg71
Nsg64
(lp1496
g57
(g73
g59
NtRp1497
(dp1498
g62
(dp1499
sg71
g1493
sg64
(lp1500
g57
(g78
g59
NtRp1501
(dp1502
g62
(dp1503
sg71
g1497
sg64
(lp1504
g57
(g58
g59
NtRp1505
(dp1506
g62
(dp1507
g70
I3
ssg71
g1501
sg64
(lp1508
S'1'
asbasbasbag57
(g73
g59
NtRp1509
(dp1510
g62
(dp1511
sg71
g1493
sg64
(lp1512
g57
(g78
g59
NtRp1513
(dp1514
g62
(dp1515
sg71
g1509
sg64
(lp1516
g57
(g58
g59
NtRp1517
(dp1518
g62
(dp1519
g70
I3
ssg71
g1513
sg64
(lp1520
S'99'
p1521
asbasbasbag57
(g73
g59
NtRp1522
(dp1523
g62
(dp1524
sg71
g1493
sg64
(lp1525
g57
(g78
g59
NtRp1526
(dp1527
g62
(dp1528
sg71
g1522
sg64
(lp1529
g57
(g58
g59
NtRp1530
(dp1531
g62
(dp1532
g70
I3
ssg71
g1526
sg64
(lp1533
S'7'
asbasbasbag57
(g73
g59
NtRp1534
(dp1535
g62
(dp1536
sg71
g1493
sg64
(lp1537
g57
(g78
g59
NtRp1538
(dp1539
g62
(dp1540
sg71
g1534
sg64
(lp1541
g57
(g58
g59
NtRp1542
(dp1543
g62
(dp1544
g70
I3
ssg71
g1538
sg64
(lp1545
S'datetime.datetime(2012, 3, 4, 22, 12, 8)'
p1546
asbasbasbag57
(g73
g59
NtRp1547
(dp1548
g62
(dp1549
sg71
g1493
sg64
(lp1550
g57
(g78
g59
NtRp1551
(dp1552
g62
(dp1553
sg71
g1547
sg64
(lp1554
g57
(g58
g59
NtRp1555
(dp1556
g62
(dp1557
g70
I3
ssg71
g1551
sg64
(lp1558
S'stable'
p1559
asbasbasbasbasbasbasbag57
(g73
g59
NtRp1560
(dp1561
g62
(dp1562
sg71
g834
sg64
(lp1563
g57
(g78
g59
NtRp1564
(dp1565
g62
(dp1566
g82
g83
ssg71
g1560
sg64
(lp1567
S'wsgi_errors'
p1568
asbag57
(g78
g59
NtRp1569
(dp1570
g62
(dp1571
g89
g90
ssg71
g1560
sg64
(lp1572
S':'
asbag57
(g78
g59
NtRp1573
(dp1574
g62
(dp1575
sg71
g1560
sg64
(lp1576
g57
(g58
g59
NtRp1577
(dp1578
g62
(dp1579
g70
I4
ssg71
g1573
sg64
(lp1580
S"<open file '<stderr>', mode 'w' at 0x7f82c0a93270>"
p1581
asbasbasbag57
(g73
g59
NtRp1582
(dp1583
g62
(dp1584
sg71
g834
sg64
(lp1585
g57
(g78
g59
NtRp1586
(dp1587
g62
(dp1588
g82
g83
ssg71
g1582
sg64
(lp1589
S'wsgi_file_wrapper'
p1590
asbag57
(g78
g59
NtRp1591
(dp1592
g62
(dp1593
g89
g90
ssg71
g1582
sg64
(lp1594
S':'
asbag57
(g78
g59
NtRp1595
(dp1596
g62
(dp1597
sg71
g1582
sg64
(lp1598
g57
(g58
g59
NtRp1599
(dp1600
g62
(dp1601
g70
I4
ssg71
g1595
sg64
(lp1602
S'<class wsgiref.util.FileWrapper at 0x2436870>'
p1603
asbasbasbag57
(g73
g59
NtRp1604
(dp1605
g62
(dp1606
sg71
g834
sg64
(lp1607
g57
(g78
g59
NtRp1608
(dp1609
g62
(dp1610
g82
g83
ssg71
g1604
sg64
(lp1611
S'wsgi_input'
p1612
asbag57
(g78
g59
NtRp1613
(dp1614
g62
(dp1615
g89
g90
ssg71
g1604
sg64
(lp1616
S':'
asbag57
(g78
g59
NtRp1617
(dp1618
g62
(dp1619
sg71
g1604
sg64
(lp1620
g57
(g58
g59
NtRp1621
(dp1622
g62
(dp1623
g70
I4
ssg71
g1617
sg64
(lp1624
S'<socket._fileobject object at 0x2b81d50>'
p1625
asbasbasbag57
(g73
g59
NtRp1626
(dp1627
g62
(dp1628
sg71
g834
sg64
(lp1629
g57
(g78
g59
NtRp1630
(dp1631
g62
(dp1632
g82
g83
ssg71
g1626
sg64
(lp1633
S'wsgi_multiprocess'
p1634
asbag57
(g78
g59
NtRp1635
(dp1636
g62
(dp1637
g89
g90
ssg71
g1626
sg64
(lp1638
S':'
asbag57
(g78
g59
NtRp1639
(dp1640
g62
(dp1641
sg71
g1626
sg64
(lp1642
g57
(g58
g59
NtRp1643
(dp1644
g62
(dp1645
g70
I4
ssg71
g1639
sg64
(lp1646
g100
asbasbasbag57
(g73
g59
NtRp1647
(dp1648
g62
(dp1649
sg71
g834
sg64
(lp1650
g57
(g78
g59
NtRp1651
(dp1652
g62
(dp1653
g82
g83
ssg71
g1647
sg64
(lp1654
S'wsgi_multithread'
p1655
asbag57
(g78
g59
NtRp1656
(dp1657
g62
(dp1658
g89
g90
ssg71
g1647
sg64
(lp1659
S':'
asbag57
(g78
g59
NtRp1660
(dp1661
g62
(dp1662
sg71
g1647
sg64
(lp1663
g57
(g58
g59
NtRp1664
(dp1665
g62
(dp1666
g70
I4
ssg71
g1660
sg64
(lp1667
S'True'
p1668
asbasbasbag57
(g73
g59
NtRp1669
(dp1670
g62
(dp1671
sg71
g834
sg64
(lp1672
g57
(g78
g59
NtRp1673
(dp1674
g62
(dp1675
g82
g83
ssg71
g1669
sg64
(lp1676
S'wsgi_run_once'
p1677
asbag57
(g78
g59
NtRp1678
(dp1679
g62
(dp1680
g89
g90
ssg71
g1669
sg64
(lp1681
S':'
asbag57
(g78
g59
NtRp1682
(dp1683
g62
(dp1684
sg71
g1669
sg64
(lp1685
g57
(g58
g59
NtRp1686
(dp1687
g62
(dp1688
g70
I4
ssg71
g1682
sg64
(lp1689
g100
asbasbasbag57
(g73
g59
NtRp1690
(dp1691
g62
(dp1692
sg71
g834
sg64
(lp1693
g57
(g78
g59
NtRp1694
(dp1695
g62
(dp1696
g82
g83
ssg71
g1690
sg64
(lp1697
S'wsgi_url_scheme'
p1698
asbag57
(g78
g59
NtRp1699
(dp1700
g62
(dp1701
g89
g90
ssg71
g1690
sg64
(lp1702
S':'
asbag57
(g78
g59
NtRp1703
(dp1704
g62
(dp1705
sg71
g1690
sg64
(lp1706
g57
(g58
g59
NtRp1707
(dp1708
g62
(dp1709
g70
I4
ssg71
g1703
sg64
(lp1710
S'http'
p1711
asbasbasbag57
(g73
g59
NtRp1712
(dp1713
g62
(dp1714
sg71
g834
sg64
(lp1715
g57
(g78
g59
NtRp1716
(dp1717
g62
(dp1718
g82
g83
ssg71
g1712
sg64
(lp1719
S'wsgi_version'
p1720
asbag57
(g78
g59
NtRp1721
(dp1722
g62
(dp1723
g89
g90
ssg71
g1712
sg64
(lp1724
S':'
asbag57
(g78
g59
NtRp1725
(dp1726
g62
(dp1727
sg71
g1712
sg64
(lp1728
g57
(g58
g59
NtRp1729
(dp1730
g62
(dp1731
g70
I4
ssg71
g1725
sg64
(lp1732
g57
(g66
g59
NtRp1733
(dp1734
g62
(dp1735
g70
I3
ssg71
Nsg64
(lp1736
g57
(g73
g59
NtRp1737
(dp1738
g62
(dp1739
sg71
g1733
sg64
(lp1740
g57
(g78
g59
NtRp1741
(dp1742
g62
(dp1743
sg71
g1737
sg64
(lp1744
g57
(g58
g59
NtRp1745
(dp1746
g62
(dp1747
g70
I3
ssg71
g1741
sg64
(lp1748
S'1'
asbasbasbag57
(g73
g59
NtRp1749
(dp1750
g62
(dp1751
sg71
g1733
sg64
(lp1752
g57
(g78
g59
NtRp1753
(dp1754
g62
(dp1755
sg71
g1749
sg64
(lp1756
g57
(g58
g59
NtRp1757
(dp1758
g62
(dp1759
g70
I3
ssg71
g1753
sg64
(lp1760
S'0'
asbasbasbasbasbasbasbasbasbasbasbag57
(g73
g59
NtRp1761
(dp1762
g62
(dp1763
sg71
g67
sg64
(lp1764
g57
(g78
g59
NtRp1765
(dp1766
g62
(dp1767
g82
g83
ssg71
g1761
sg64
(lp1768
S'extension'
p1769
asbag57
(g78
g59
NtRp1770
(dp1771
g62
(dp1772
g89
g90
ssg71
g1761
sg64
(lp1773
S':'
asbag57
(g78
g59
NtRp1774
(dp1775
g62
(dp1776
sg71
g1761
sg64
(lp1777
g57
(g58
g59
NtRp1778
(dp1779
g62
(dp1780
g70
I5
ssg71
g1774
sg64
(lp1781
S'html'
p1782
asbasbasbag57
(g73
g59
NtRp1783
(dp1784
g62
(dp1785
sg71
g67
sg64
(lp1786
g57
(g78
g59
NtRp1787
(dp1788
g62
(dp1789
g82
g83
ssg71
g1783
sg64
(lp1790
S'folder'
p1791
asbag57
(g78
g59
NtRp1792
(dp1793
g62
(dp1794
g89
g90
ssg71
g1783
sg64
(lp1795
S':'
asbag57
(g78
g59
NtRp1796
(dp1797
g62
(dp1798
sg71
g1783
sg64
(lp1799
g57
(g58
g59
NtRp1800
(dp1801
g62
(dp1802
g70
I5
ssg71
g1796
sg64
(lp1803
S'/home/fish/Desktop/web2py/applications/vsalad/'
p1804
asbasbasbag57
(g73
g59
NtRp1805
(dp1806
g62
(dp1807
sg71
g67
sg64
(lp1808
g57
(g78
g59
NtRp1809
(dp1810
g62
(dp1811
g82
g83
ssg71
g1805
sg64
(lp1812
S'function'
p1813
asbag57
(g78
g59
NtRp1814
(dp1815
g62
(dp1816
g89
g90
ssg71
g1805
sg64
(lp1817
S':'
asbag57
(g78
g59
NtRp1818
(dp1819
g62
(dp1820
sg71
g1805
sg64
(lp1821
g57
(g58
g59
NtRp1822
(dp1823
g62
(dp1824
g70
I5
ssg71
g1818
sg64
(lp1825
S'article'
p1826
asbasbasbag57
(g73
g59
NtRp1827
(dp1828
g62
(dp1829
sg71
g67
sg64
(lp1830
g57
(g78
g59
NtRp1831
(dp1832
g62
(dp1833
g82
g83
ssg71
g1827
sg64
(lp1834
S'get_vars'
p1835
asbag57
(g78
g59
NtRp1836
(dp1837
g62
(dp1838
g89
g90
ssg71
g1827
sg64
(lp1839
S':'
asbag57
(g78
g59
NtRp1840
(dp1841
g62
(dp1842
sg71
g1827
sg64
(lp1843
g57
(g58
g59
NtRp1844
(dp1845
g62
(dp1846
g70
I5
ssg71
g1840
sg64
(lp1847
g57
(g66
g59
NtRp1848
(dp1849
g62
(dp1850
g70
I4
ssg71
Nsg64
(lp1851
sbasbasbasbag57
(g73
g59
NtRp1852
(dp1853
g62
(dp1854
sg71
g67
sg64
(lp1855
g57
(g78
g59
NtRp1856
(dp1857
g62
(dp1858
g82
g83
ssg71
g1852
sg64
(lp1859
S'global_settings'
p1860
asbag57
(g78
g59
NtRp1861
(dp1862
g62
(dp1863
g89
g90
ssg71
g1852
sg64
(lp1864
S':'
asbag57
(g78
g59
NtRp1865
(dp1866
g62
(dp1867
sg71
g1852
sg64
(lp1868
g57
(g58
g59
NtRp1869
(dp1870
g62
(dp1871
g70
I5
ssg71
g1865
sg64
(lp1872
g57
(g66
g59
NtRp1873
(dp1874
g62
(dp1875
g70
I4
ssg71
Nsg64
(lp1876
g57
(g73
g59
NtRp1877
(dp1878
g62
(dp1879
sg71
g1873
sg64
(lp1880
g57
(g78
g59
NtRp1881
(dp1882
g62
(dp1883
g82
g83
ssg71
g1877
sg64
(lp1884
g846
asbag57
(g78
g59
NtRp1885
(dp1886
g62
(dp1887
g89
g90
ssg71
g1877
sg64
(lp1888
S':'
asbag57
(g78
g59
NtRp1889
(dp1890
g62
(dp1891
sg71
g1877
sg64
(lp1892
g57
(g58
g59
NtRp1893
(dp1894
g62
(dp1895
g70
I4
ssg71
g1889
sg64
(lp1896
S"set(['/home/fish/Desktop/web2py/applications/admin/', '/home/fish/Desktop/web2py/applications/welcome/', '/home/fish/Desktop/web2py/applications/vsalad/'])"
p1897
asbasbasbag57
(g73
g59
NtRp1898
(dp1899
g62
(dp1900
sg71
g1873
sg64
(lp1901
g57
(g78
g59
NtRp1902
(dp1903
g62
(dp1904
g82
g83
ssg71
g1898
sg64
(lp1905
g868
asbag57
(g78
g59
NtRp1906
(dp1907
g62
(dp1908
g89
g90
ssg71
g1898
sg64
(lp1909
S':'
asbag57
(g78
g59
NtRp1910
(dp1911
g62
(dp1912
sg71
g1898
sg64
(lp1913
g57
(g58
g59
NtRp1914
(dp1915
g62
(dp1916
g70
I4
ssg71
g1910
sg64
(lp1917
g881
asbasbasbag57
(g73
g59
NtRp1918
(dp1919
g62
(dp1920
sg71
g1873
sg64
(lp1921
g57
(g78
g59
NtRp1922
(dp1923
g62
(dp1924
g82
g83
ssg71
g1918
sg64
(lp1925
g890
asbag57
(g78
g59
NtRp1926
(dp1927
g62
(dp1928
g89
g90
ssg71
g1918
sg64
(lp1929
S':'
asbag57
(g78
g59
NtRp1930
(dp1931
g62
(dp1932
sg71
g1918
sg64
(lp1933
g57
(g58
g59
NtRp1934
(dp1935
g62
(dp1936
g70
I4
ssg71
g1930
sg64
(lp1937
g57
(g66
g59
NtRp1938
(dp1939
g62
(dp1940
g70
I3
ssg71
Nsg64
(lp1941
sbasbasbasbag57
(g73
g59
NtRp1942
(dp1943
g62
(dp1944
sg71
g1873
sg64
(lp1945
g57
(g78
g59
NtRp1946
(dp1947
g62
(dp1948
g82
g83
ssg71
g1942
sg64
(lp1949
g915
asbag57
(g78
g59
NtRp1950
(dp1951
g62
(dp1952
g89
g90
ssg71
g1942
sg64
(lp1953
S':'
asbag57
(g78
g59
NtRp1954
(dp1955
g62
(dp1956
sg71
g1942
sg64
(lp1957
g57
(g58
g59
NtRp1958
(dp1959
g62
(dp1960
g70
I4
ssg71
g1954
sg64
(lp1961
S"<Values at 0x255e518: {'verbose': False, 'ip': '127.0.0.1', 'shutdown_timeout': 5, 'taskbar': False, 'nocron': False, 'pid_filename': 'httpserver.pid', 'maxthreads': None, 'softcron': False, 'server_name': 'Master-Fish', 'bpython': False, 'nogui': False, 'port': 8000, 'extcron': False, 'debuglevel': 30, 'test': None, 'folder': '/home/fish/Desktop/web2py', 'config': '', 'import_models': False, 'winservice': '', 'shell': None, 'run': '', 'log_filename': 'httpserver.log', 'args': [''], 'socket_timeout': 5, 'ssl_ca_certificate': None, 'scheduler': None, 'profiler_filename': None, 'ssl_private_key': '', 'password': '<ask>', 'request_queue_size': 5, 'ssl_certificate': '', 'cronjob': False, 'numthreads': None, 'quiet': False, 'interfaces': None, 'minthreads': None, 'timeout': 10, 'plain': False, 'nobanner': False}>"
p1962
asbasbasbag57
(g73
g59
NtRp1963
(dp1964
g62
(dp1965
sg71
g1873
sg64
(lp1966
g57
(g78
g59
NtRp1967
(dp1968
g62
(dp1969
g82
g83
ssg71
g1963
sg64
(lp1970
g937
asbag57
(g78
g59
NtRp1971
(dp1972
g62
(dp1973
g89
g90
ssg71
g1963
sg64
(lp1974
S':'
asbag57
(g78
g59
NtRp1975
(dp1976
g62
(dp1977
sg71
g1963
sg64
(lp1978
g57
(g58
g59
NtRp1979
(dp1980
g62
(dp1981
g70
I4
ssg71
g1975
sg64
(lp1982
S'set([])'
p1983
asbasbasbag57
(g73
g59
NtRp1984
(dp1985
g62
(dp1986
sg71
g1873
sg64
(lp1987
g57
(g78
g59
NtRp1988
(dp1989
g62
(dp1990
g82
g83
ssg71
g1984
sg64
(lp1991
g959
asbag57
(g78
g59
NtRp1992
(dp1993
g62
(dp1994
g89
g90
ssg71
g1984
sg64
(lp1995
S':'
asbag57
(g78
g59
NtRp1996
(dp1997
g62
(dp1998
sg71
g1984
sg64
(lp1999
g57
(g58
g59
NtRp2000
(dp2001
g62
(dp2002
g70
I4
ssg71
g1996
sg64
(lp2003
g100
asbasbasbag57
(g73
g59
NtRp2004
(dp2005
g62
(dp2006
sg71
g1873
sg64
(lp2007
g57
(g78
g59
NtRp2008
(dp2009
g62
(dp2010
g82
g83
ssg71
g2004
sg64
(lp2011
g980
asbag57
(g78
g59
NtRp2012
(dp2013
g62
(dp2014
g89
g90
ssg71
g2004
sg64
(lp2015
S':'
asbag57
(g78
g59
NtRp2016
(dp2017
g62
(dp2018
sg71
g2004
sg64
(lp2019
g57
(g58
g59
NtRp2020
(dp2021
g62
(dp2022
g70
I4
ssg71
g2016
sg64
(lp2023
g993
asbasbasbag57
(g73
g59
NtRp2024
(dp2025
g62
(dp2026
sg71
g1873
sg64
(lp2027
g57
(g78
g59
NtRp2028
(dp2029
g62
(dp2030
g82
g83
ssg71
g2024
sg64
(lp2031
g1178
asbag57
(g78
g59
NtRp2032
(dp2033
g62
(dp2034
g89
g90
ssg71
g2024
sg64
(lp2035
S':'
asbag57
(g78
g59
NtRp2036
(dp2037
g62
(dp2038
sg71
g2024
sg64
(lp2039
g57
(g58
g59
NtRp2040
(dp2041
g62
(dp2042
g70
I4
ssg71
g2036
sg64
(lp2043
g100
asbasbasbag57
(g73
g59
NtRp2044
(dp2045
g62
(dp2046
sg71
g1873
sg64
(lp2047
g57
(g78
g59
NtRp2048
(dp2049
g62
(dp2050
g82
g83
ssg71
g2044
sg64
(lp2051
g1199
asbag57
(g78
g59
NtRp2052
(dp2053
g62
(dp2054
g89
g90
ssg71
g2044
sg64
(lp2055
S':'
asbag57
(g78
g59
NtRp2056
(dp2057
g62
(dp2058
sg71
g2044
sg64
(lp2059
g57
(g58
g59
NtRp2060
(dp2061
g62
(dp2062
g70
I4
ssg71
g2056
sg64
(lp2063
g100
asbasbasbag57
(g73
g59
NtRp2064
(dp2065
g62
(dp2066
sg71
g1873
sg64
(lp2067
g57
(g78
g59
NtRp2068
(dp2069
g62
(dp2070
g82
g83
ssg71
g2064
sg64
(lp2071
g1437
asbag57
(g78
g59
NtRp2072
(dp2073
g62
(dp2074
g89
g90
ssg71
g2064
sg64
(lp2075
S':'
asbag57
(g78
g59
NtRp2076
(dp2077
g62
(dp2078
sg71
g2064
sg64
(lp2079
g57
(g58
g59
NtRp2080
(dp2081
g62
(dp2082
g70
I4
ssg71
g2076
sg64
(lp2083
g1450
asbasbasbag57
(g73
g59
NtRp2084
(dp2085
g62
(dp2086
sg71
g1873
sg64
(lp2087
g57
(g78
g59
NtRp2088
(dp2089
g62
(dp2090
g82
g83
ssg71
g2084
sg64
(lp2091
g1480
asbag57
(g78
g59
NtRp2092
(dp2093
g62
(dp2094
g89
g90
ssg71
g2084
sg64
(lp2095
S':'
asbag57
(g78
g59
NtRp2096
(dp2097
g62
(dp2098
sg71
g2084
sg64
(lp2099
g57
(g58
g59
NtRp2100
(dp2101
g62
(dp2102
g70
I4
ssg71
g2096
sg64
(lp2103
g57
(g66
g59
NtRp2104
(dp2105
g62
(dp2106
g70
I3
ssg71
Nsg64
(lp2107
g57
(g73
g59
NtRp2108
(dp2109
g62
(dp2110
sg71
g2104
sg64
(lp2111
g57
(g78
g59
NtRp2112
(dp2113
g62
(dp2114
sg71
g2108
sg64
(lp2115
g57
(g58
g59
NtRp2116
(dp2117
g62
(dp2118
g70
I3
ssg71
g2112
sg64
(lp2119
S'1'
asbasbasbag57
(g73
g59
NtRp2120
(dp2121
g62
(dp2122
sg71
g2104
sg64
(lp2123
g57
(g78
g59
NtRp2124
(dp2125
g62
(dp2126
sg71
g2120
sg64
(lp2127
g57
(g58
g59
NtRp2128
(dp2129
g62
(dp2130
g70
I3
ssg71
g2124
sg64
(lp2131
S'99'
p2132
asbasbasbag57
(g73
g59
NtRp2133
(dp2134
g62
(dp2135
sg71
g2104
sg64
(lp2136
g57
(g78
g59
NtRp2137
(dp2138
g62
(dp2139
sg71
g2133
sg64
(lp2140
g57
(g58
g59
NtRp2141
(dp2142
g62
(dp2143
g70
I3
ssg71
g2137
sg64
(lp2144
S'7'
asbasbasbag57
(g73
g59
NtRp2145
(dp2146
g62
(dp2147
sg71
g2104
sg64
(lp2148
g57
(g78
g59
NtRp2149
(dp2150
g62
(dp2151
sg71
g2145
sg64
(lp2152
g57
(g58
g59
NtRp2153
(dp2154
g62
(dp2155
g70
I3
ssg71
g2149
sg64
(lp2156
S'datetime.datetime(2012, 3, 4, 22, 12, 8)'
p2157
asbasbasbag57
(g73
g59
NtRp2158
(dp2159
g62
(dp2160
sg71
g2104
sg64
(lp2161
g57
(g78
g59
NtRp2162
(dp2163
g62
(dp2164
sg71
g2158
sg64
(lp2165
g57
(g58
g59
NtRp2166
(dp2167
g62
(dp2168
g70
I3
ssg71
g2162
sg64
(lp2169
g1559
asbasbasbasbasbasbasbasbasbasbasbag57
(g73
g59
NtRp2170
(dp2171
g62
(dp2172
sg71
g67
sg64
(lp2173
g57
(g78
g59
NtRp2174
(dp2175
g62
(dp2176
g82
g83
ssg71
g2170
sg64
(lp2177
S'is_https'
p2178
asbag57
(g78
g59
NtRp2179
(dp2180
g62
(dp2181
g89
g90
ssg71
g2170
sg64
(lp2182
S':'
asbag57
(g78
g59
NtRp2183
(dp2184
g62
(dp2185
sg71
g2170
sg64
(lp2186
g57
(g58
g59
NtRp2187
(dp2188
g62
(dp2189
g70
I5
ssg71
g2183
sg64
(lp2190
g100
asbasbasbag57
(g73
g59
NtRp2191
(dp2192
g62
(dp2193
sg71
g67
sg64
(lp2194
g57
(g78
g59
NtRp2195
(dp2196
g62
(dp2197
g82
g83
ssg71
g2191
sg64
(lp2198
S'is_local'
p2199
asbag57
(g78
g59
NtRp2200
(dp2201
g62
(dp2202
g89
g90
ssg71
g2191
sg64
(lp2203
S':'
asbag57
(g78
g59
NtRp2204
(dp2205
g62
(dp2206
sg71
g2191
sg64
(lp2207
g57
(g58
g59
NtRp2208
(dp2209
g62
(dp2210
g70
I5
ssg71
g2204
sg64
(lp2211
g1668
asbasbasbag57
(g73
g59
NtRp2212
(dp2213
g62
(dp2214
sg71
g67
sg64
(lp2215
g57
(g78
g59
NtRp2216
(dp2217
g62
(dp2218
g82
g83
ssg71
g2212
sg64
(lp2219
S'is_restful'
p2220
asbag57
(g78
g59
NtRp2221
(dp2222
g62
(dp2223
g89
g90
ssg71
g2212
sg64
(lp2224
S':'
asbag57
(g78
g59
NtRp2225
(dp2226
g62
(dp2227
sg71
g2212
sg64
(lp2228
g57
(g58
g59
NtRp2229
(dp2230
g62
(dp2231
g70
I5
ssg71
g2225
sg64
(lp2232
g100
asbasbasbag57
(g73
g59
NtRp2233
(dp2234
g62
(dp2235
sg71
g67
sg64
(lp2236
g57
(g78
g59
NtRp2237
(dp2238
g62
(dp2239
g82
g83
ssg71
g2233
sg64
(lp2240
S'now'
p2241
asbag57
(g78
g59
NtRp2242
(dp2243
g62
(dp2244
g89
g90
ssg71
g2233
sg64
(lp2245
S':'
asbag57
(g78
g59
NtRp2246
(dp2247
g62
(dp2248
sg71
g2233
sg64
(lp2249
g57
(g58
g59
NtRp2250
(dp2251
g62
(dp2252
g70
I5
ssg71
g2246
sg64
(lp2253
S'datetime.datetime(2012, 4, 19, 3, 32, 50, 778865)'
p2254
asbasbasbag57
(g73
g59
NtRp2255
(dp2256
g62
(dp2257
sg71
g67
sg64
(lp2258
g57
(g78
g59
NtRp2259
(dp2260
g62
(dp2261
g82
g83
ssg71
g2255
sg64
(lp2262
S'post_vars'
p2263
asbag57
(g78
g59
NtRp2264
(dp2265
g62
(dp2266
g89
g90
ssg71
g2255
sg64
(lp2267
S':'
asbag57
(g78
g59
NtRp2268
(dp2269
g62
(dp2270
sg71
g2255
sg64
(lp2271
g57
(g58
g59
NtRp2272
(dp2273
g62
(dp2274
g70
I5
ssg71
g2268
sg64
(lp2275
g57
(g66
g59
NtRp2276
(dp2277
g62
(dp2278
g70
I4
ssg71
Nsg64
(lp2279
sbasbasbasbag57
(g73
g59
NtRp2280
(dp2281
g62
(dp2282
sg71
g67
sg64
(lp2283
g57
(g78
g59
NtRp2284
(dp2285
g62
(dp2286
g82
g83
ssg71
g2280
sg64
(lp2287
S'raw_args'
p2288
asbag57
(g78
g59
NtRp2289
(dp2290
g62
(dp2291
g89
g90
ssg71
g2280
sg64
(lp2292
S':'
asbag57
(g78
g59
NtRp2293
(dp2294
g62
(dp2295
sg71
g2280
sg64
(lp2296
g57
(g58
g59
NtRp2297
(dp2298
g62
(dp2299
g70
I5
ssg71
g2293
sg64
(lp2300
S'1'
asbasbasbag57
(g73
g59
NtRp2301
(dp2302
g62
(dp2303
sg71
g67
sg64
(lp2304
g57
(g78
g59
NtRp2305
(dp2306
g62
(dp2307
g82
g83
ssg71
g2301
sg64
(lp2308
S'url'
p2309
asbag57
(g78
g59
NtRp2310
(dp2311
g62
(dp2312
g89
g90
ssg71
g2301
sg64
(lp2313
S':'
asbag57
(g78
g59
NtRp2314
(dp2315
g62
(dp2316
sg71
g2301
sg64
(lp2317
g57
(g58
g59
NtRp2318
(dp2319
g62
(dp2320
g70
I5
ssg71
g2314
sg64
(lp2321
S'/vsalad/default/article/1'
p2322
asbasbasbag57
(g73
g59
NtRp2323
(dp2324
g62
(dp2325
sg71
g67
sg64
(lp2326
g57
(g78
g59
NtRp2327
(dp2328
g62
(dp2329
g82
g83
ssg71
g2323
sg64
(lp2330
S'utcnow'
p2331
asbag57
(g78
g59
NtRp2332
(dp2333
g62
(dp2334
g89
g90
ssg71
g2323
sg64
(lp2335
S':'
asbag57
(g78
g59
NtRp2336
(dp2337
g62
(dp2338
sg71
g2323
sg64
(lp2339
g57
(g58
g59
NtRp2340
(dp2341
g62
(dp2342
g70
I5
ssg71
g2336
sg64
(lp2343
S'datetime.datetime(2012, 4, 18, 23, 32, 50, 778886)'
p2344
asbasbasbag57
(g73
g59
NtRp2345
(dp2346
g62
(dp2347
sg71
g67
sg64
(lp2348
g57
(g78
g59
NtRp2349
(dp2350
g62
(dp2351
g82
g83
ssg71
g2345
sg64
(lp2352
S'uuid'
p2353
asbag57
(g78
g59
NtRp2354
(dp2355
g62
(dp2356
g89
g90
ssg71
g2345
sg64
(lp2357
S':'
asbag57
(g78
g59
NtRp2358
(dp2359
g62
(dp2360
sg71
g2345
sg64
(lp2361
g57
(g58
g59
NtRp2362
(dp2363
g62
(dp2364
g70
I5
ssg71
g2358
sg64
(lp2365
S'vsalad/127.0.0.1.2012-04-19.03-32-50.02359be8-cd17-4596-9ebc-df93f27177c8'
p2366
asbasbasbag57
(g73
g59
NtRp2367
(dp2368
g62
(dp2369
sg71
g67
sg64
(lp2370
g57
(g78
g59
NtRp2371
(dp2372
g62
(dp2373
g82
g83
ssg71
g2367
sg64
(lp2374
S'vars'
p2375
asbag57
(g78
g59
NtRp2376
(dp2377
g62
(dp2378
g89
g90
ssg71
g2367
sg64
(lp2379
S':'
asbag57
(g78
g59
NtRp2380
(dp2381
g62
(dp2382
sg71
g2367
sg64
(lp2383
g57
(g58
g59
NtRp2384
(dp2385
g62
(dp2386
g70
I5
ssg71
g2380
sg64
(lp2387
g57
(g66
g59
NtRp2388
(dp2389
g62
(dp2390
g70
I4
ssg71
Nsg64
(lp2391
sbasbasbasbag57
(g73
g59
NtRp2392
(dp2393
g62
(dp2394
sg71
g67
sg64
(lp2395
g57
(g78
g59
NtRp2396
(dp2397
g62
(dp2398
g82
g83
ssg71
g2392
sg64
(lp2399
S'wsgi'
p2400
asbag57
(g78
g59
NtRp2401
(dp2402
g62
(dp2403
g89
g90
ssg71
g2392
sg64
(lp2404
S':'
asbag57
(g78
g59
NtRp2405
(dp2406
g62
(dp2407
sg71
g2392
sg64
(lp2408
g57
(g58
g59
NtRp2409
(dp2410
g62
(dp2411
g70
I5
ssg71
g2405
sg64
(lp2412
g57
(g66
g59
NtRp2413
(dp2414
g62
(dp2415
g70
I4
ssg71
Nsg64
(lp2416
g57
(g73
g59
NtRp2417
(dp2418
g62
(dp2419
sg71
g2413
sg64
(lp2420
g57
(g78
g59
NtRp2421
(dp2422
g62
(dp2423
g82
g83
ssg71
g2417
sg64
(lp2424
S'environ'
p2425
asbag57
(g78
g59
NtRp2426
(dp2427
g62
(dp2428
g89
g90
ssg71
g2417
sg64
(lp2429
S':'
asbag57
(g78
g59
NtRp2430
(dp2431
g62
(dp2432
sg71
g2417
sg64
(lp2433
g57
(g58
g59
NtRp2434
(dp2435
g62
(dp2436
g70
I4
ssg71
g2430
sg64
(lp2437
g57
(g66
g59
NtRp2438
(dp2439
g62
(dp2440
g70
I3
ssg71
Nsg64
(lp2441
g57
(g73
g59
NtRp2442
(dp2443
g62
(dp2444
sg71
g2438
sg64
(lp2445
g57
(g78
g59
NtRp2446
(dp2447
g62
(dp2448
g82
g83
ssg71
g2442
sg64
(lp2449
S'HTTP_ACCEPT'
p2450
asbag57
(g78
g59
NtRp2451
(dp2452
g62
(dp2453
g89
g90
ssg71
g2442
sg64
(lp2454
S':'
asbag57
(g78
g59
NtRp2455
(dp2456
g62
(dp2457
sg71
g2442
sg64
(lp2458
g57
(g58
g59
NtRp2459
(dp2460
g62
(dp2461
g70
I3
ssg71
g2455
sg64
(lp2462
g1015
asbasbasbag57
(g73
g59
NtRp2463
(dp2464
g62
(dp2465
sg71
g2438
sg64
(lp2466
g57
(g78
g59
NtRp2467
(dp2468
g62
(dp2469
g82
g83
ssg71
g2463
sg64
(lp2470
S'HTTP_ACCEPT_CHARSET'
p2471
asbag57
(g78
g59
NtRp2472
(dp2473
g62
(dp2474
g89
g90
ssg71
g2463
sg64
(lp2475
S':'
asbag57
(g78
g59
NtRp2476
(dp2477
g62
(dp2478
sg71
g2463
sg64
(lp2479
g57
(g58
g59
NtRp2480
(dp2481
g62
(dp2482
g70
I3
ssg71
g2476
sg64
(lp2483
g1037
asbasbasbag57
(g73
g59
NtRp2484
(dp2485
g62
(dp2486
sg71
g2438
sg64
(lp2487
g57
(g78
g59
NtRp2488
(dp2489
g62
(dp2490
g82
g83
ssg71
g2484
sg64
(lp2491
S'HTTP_ACCEPT_ENCODING'
p2492
asbag57
(g78
g59
NtRp2493
(dp2494
g62
(dp2495
g89
g90
ssg71
g2484
sg64
(lp2496
S':'
asbag57
(g78
g59
NtRp2497
(dp2498
g62
(dp2499
sg71
g2484
sg64
(lp2500
g57
(g58
g59
NtRp2501
(dp2502
g62
(dp2503
g70
I3
ssg71
g2497
sg64
(lp2504
g1059
asbasbasbag57
(g73
g59
NtRp2505
(dp2506
g62
(dp2507
sg71
g2438
sg64
(lp2508
g57
(g78
g59
NtRp2509
(dp2510
g62
(dp2511
g82
g83
ssg71
g2505
sg64
(lp2512
S'HTTP_ACCEPT_LANGUAGE'
p2513
asbag57
(g78
g59
NtRp2514
(dp2515
g62
(dp2516
g89
g90
ssg71
g2505
sg64
(lp2517
S':'
asbag57
(g78
g59
NtRp2518
(dp2519
g62
(dp2520
sg71
g2505
sg64
(lp2521
g57
(g58
g59
NtRp2522
(dp2523
g62
(dp2524
g70
I3
ssg71
g2518
sg64
(lp2525
g1081
asbasbasbag57
(g73
g59
NtRp2526
(dp2527
g62
(dp2528
sg71
g2438
sg64
(lp2529
g57
(g78
g59
NtRp2530
(dp2531
g62
(dp2532
g82
g83
ssg71
g2526
sg64
(lp2533
S'HTTP_CONNECTION'
p2534
asbag57
(g78
g59
NtRp2535
(dp2536
g62
(dp2537
g89
g90
ssg71
g2526
sg64
(lp2538
S':'
asbag57
(g78
g59
NtRp2539
(dp2540
g62
(dp2541
sg71
g2526
sg64
(lp2542
g57
(g58
g59
NtRp2543
(dp2544
g62
(dp2545
g70
I3
ssg71
g2539
sg64
(lp2546
g1103
asbasbasbag57
(g73
g59
NtRp2547
(dp2548
g62
(dp2549
sg71
g2438
sg64
(lp2550
g57
(g78
g59
NtRp2551
(dp2552
g62
(dp2553
g82
g83
ssg71
g2547
sg64
(lp2554
S'HTTP_COOKIE'
p2555
asbag57
(g78
g59
NtRp2556
(dp2557
g62
(dp2558
g89
g90
ssg71
g2547
sg64
(lp2559
S':'
asbag57
(g78
g59
NtRp2560
(dp2561
g62
(dp2562
sg71
g2547
sg64
(lp2563
g57
(g58
g59
NtRp2564
(dp2565
g62
(dp2566
g70
I3
ssg71
g2560
sg64
(lp2567
g1125
asbasbasbag57
(g73
g59
NtRp2568
(dp2569
g62
(dp2570
sg71
g2438
sg64
(lp2571
g57
(g78
g59
NtRp2572
(dp2573
g62
(dp2574
g82
g83
ssg71
g2568
sg64
(lp2575
S'HTTP_HOST'
p2576
asbag57
(g78
g59
NtRp2577
(dp2578
g62
(dp2579
g89
g90
ssg71
g2568
sg64
(lp2580
S':'
asbag57
(g78
g59
NtRp2581
(dp2582
g62
(dp2583
sg71
g2568
sg64
(lp2584
g57
(g58
g59
NtRp2585
(dp2586
g62
(dp2587
g70
I3
ssg71
g2581
sg64
(lp2588
g1147
asbasbasbag57
(g73
g59
NtRp2589
(dp2590
g62
(dp2591
sg71
g2438
sg64
(lp2592
g57
(g78
g59
NtRp2593
(dp2594
g62
(dp2595
g82
g83
ssg71
g2589
sg64
(lp2596
S'HTTP_USER_AGENT'
p2597
asbag57
(g78
g59
NtRp2598
(dp2599
g62
(dp2600
g89
g90
ssg71
g2589
sg64
(lp2601
S':'
asbag57
(g78
g59
NtRp2602
(dp2603
g62
(dp2604
sg71
g2589
sg64
(lp2605
g57
(g58
g59
NtRp2606
(dp2607
g62
(dp2608
g70
I3
ssg71
g2602
sg64
(lp2609
g1169
asbasbasbag57
(g73
g59
NtRp2610
(dp2611
g62
(dp2612
sg71
g2438
sg64
(lp2613
g57
(g78
g59
NtRp2614
(dp2615
g62
(dp2616
g82
g83
ssg71
g2610
sg64
(lp2617
S'PATH_INFO'
p2618
asbag57
(g78
g59
NtRp2619
(dp2620
g62
(dp2621
g89
g90
ssg71
g2610
sg64
(lp2622
S':'
asbag57
(g78
g59
NtRp2623
(dp2624
g62
(dp2625
sg71
g2610
sg64
(lp2626
g57
(g58
g59
NtRp2627
(dp2628
g62
(dp2629
g70
I3
ssg71
g2623
sg64
(lp2630
g1233
asbasbasbag57
(g73
g59
NtRp2631
(dp2632
g62
(dp2633
sg71
g2438
sg64
(lp2634
g57
(g78
g59
NtRp2635
(dp2636
g62
(dp2637
g82
g83
ssg71
g2631
sg64
(lp2638
S'QUERY_STRING'
p2639
asbag57
(g78
g59
NtRp2640
(dp2641
g62
(dp2642
g89
g90
ssg71
g2631
sg64
(lp2643
S':'
asbag57
(g78
g59
NtRp2644
(dp2645
g62
(dp2646
sg71
g2631
sg64
(lp2647
g57
(g58
g59
NtRp2648
(dp2649
g62
(dp2650
g70
I3
ssg71
g2644
sg64
(lp2651
S''
asbasbasbag57
(g73
g59
NtRp2652
(dp2653
g62
(dp2654
sg71
g2438
sg64
(lp2655
g57
(g78
g59
NtRp2656
(dp2657
g62
(dp2658
g82
g83
ssg71
g2652
sg64
(lp2659
S'REMOTE_ADDR'
p2660
asbag57
(g78
g59
NtRp2661
(dp2662
g62
(dp2663
g89
g90
ssg71
g2652
sg64
(lp2664
S':'
asbag57
(g78
g59
NtRp2665
(dp2666
g62
(dp2667
sg71
g2652
sg64
(lp2668
g57
(g58
g59
NtRp2669
(dp2670
g62
(dp2671
g70
I3
ssg71
g2665
sg64
(lp2672
g202
asbasbasbag57
(g73
g59
NtRp2673
(dp2674
g62
(dp2675
sg71
g2438
sg64
(lp2676
g57
(g78
g59
NtRp2677
(dp2678
g62
(dp2679
g82
g83
ssg71
g2673
sg64
(lp2680
S'REMOTE_PORT'
p2681
asbag57
(g78
g59
NtRp2682
(dp2683
g62
(dp2684
g89
g90
ssg71
g2673
sg64
(lp2685
S':'
asbag57
(g78
g59
NtRp2686
(dp2687
g62
(dp2688
sg71
g2673
sg64
(lp2689
g57
(g58
g59
NtRp2690
(dp2691
g62
(dp2692
g70
I3
ssg71
g2686
sg64
(lp2693
g1297
asbasbasbag57
(g73
g59
NtRp2694
(dp2695
g62
(dp2696
sg71
g2438
sg64
(lp2697
g57
(g78
g59
NtRp2698
(dp2699
g62
(dp2700
g82
g83
ssg71
g2694
sg64
(lp2701
S'REQUEST_METHOD'
p2702
asbag57
(g78
g59
NtRp2703
(dp2704
g62
(dp2705
g89
g90
ssg71
g2694
sg64
(lp2706
S':'
asbag57
(g78
g59
NtRp2707
(dp2708
g62
(dp2709
sg71
g2694
sg64
(lp2710
g57
(g58
g59
NtRp2711
(dp2712
g62
(dp2713
g70
I3
ssg71
g2707
sg64
(lp2714
g1319
asbasbasbag57
(g73
g59
NtRp2715
(dp2716
g62
(dp2717
sg71
g2438
sg64
(lp2718
g57
(g78
g59
NtRp2719
(dp2720
g62
(dp2721
g82
g83
ssg71
g2715
sg64
(lp2722
S'SCRIPT_NAME'
p2723
asbag57
(g78
g59
NtRp2724
(dp2725
g62
(dp2726
g89
g90
ssg71
g2715
sg64
(lp2727
S':'
asbag57
(g78
g59
NtRp2728
(dp2729
g62
(dp2730
sg71
g2715
sg64
(lp2731
g57
(g58
g59
NtRp2732
(dp2733
g62
(dp2734
g70
I3
ssg71
g2728
sg64
(lp2735
S''
asbasbasbag57
(g73
g59
NtRp2736
(dp2737
g62
(dp2738
sg71
g2438
sg64
(lp2739
g57
(g78
g59
NtRp2740
(dp2741
g62
(dp2742
g82
g83
ssg71
g2736
sg64
(lp2743
S'SERVER_NAME'
p2744
asbag57
(g78
g59
NtRp2745
(dp2746
g62
(dp2747
g89
g90
ssg71
g2736
sg64
(lp2748
S':'
asbag57
(g78
g59
NtRp2749
(dp2750
g62
(dp2751
sg71
g2736
sg64
(lp2752
g57
(g58
g59
NtRp2753
(dp2754
g62
(dp2755
g70
I3
ssg71
g2749
sg64
(lp2756
g1362
asbasbasbag57
(g73
g59
NtRp2757
(dp2758
g62
(dp2759
sg71
g2438
sg64
(lp2760
g57
(g78
g59
NtRp2761
(dp2762
g62
(dp2763
g82
g83
ssg71
g2757
sg64
(lp2764
S'SERVER_PORT'
p2765
asbag57
(g78
g59
NtRp2766
(dp2767
g62
(dp2768
g89
g90
ssg71
g2757
sg64
(lp2769
S':'
asbag57
(g78
g59
NtRp2770
(dp2771
g62
(dp2772
sg71
g2757
sg64
(lp2773
g57
(g58
g59
NtRp2774
(dp2775
g62
(dp2776
g70
I3
ssg71
g2770
sg64
(lp2777
g1384
asbasbasbag57
(g73
g59
NtRp2778
(dp2779
g62
(dp2780
sg71
g2438
sg64
(lp2781
g57
(g78
g59
NtRp2782
(dp2783
g62
(dp2784
g82
g83
ssg71
g2778
sg64
(lp2785
S'SERVER_PROTOCOL'
p2786
asbag57
(g78
g59
NtRp2787
(dp2788
g62
(dp2789
g89
g90
ssg71
g2778
sg64
(lp2790
S':'
asbag57
(g78
g59
NtRp2791
(dp2792
g62
(dp2793
sg71
g2778
sg64
(lp2794
g57
(g58
g59
NtRp2795
(dp2796
g62
(dp2797
g70
I3
ssg71
g2791
sg64
(lp2798
g1406
asbasbasbag57
(g73
g59
NtRp2799
(dp2800
g62
(dp2801
sg71
g2438
sg64
(lp2802
g57
(g78
g59
NtRp2803
(dp2804
g62
(dp2805
g82
g83
ssg71
g2799
sg64
(lp2806
S'SERVER_SOFTWARE'
p2807
asbag57
(g78
g59
NtRp2808
(dp2809
g62
(dp2810
g89
g90
ssg71
g2799
sg64
(lp2811
S':'
asbag57
(g78
g59
NtRp2812
(dp2813
g62
(dp2814
sg71
g2799
sg64
(lp2815
g57
(g58
g59
NtRp2816
(dp2817
g62
(dp2818
g70
I3
ssg71
g2812
sg64
(lp2819
g1428
asbasbasbag57
(g73
g59
NtRp2820
(dp2821
g62
(dp2822
sg71
g2438
sg64
(lp2823
g57
(g78
g59
NtRp2824
(dp2825
g62
(dp2826
g82
g83
ssg71
g2820
sg64
(lp2827
S'wsgi.errors'
p2828
asbag57
(g78
g59
NtRp2829
(dp2830
g62
(dp2831
g89
g90
ssg71
g2820
sg64
(lp2832
S':'
asbag57
(g78
g59
NtRp2833
(dp2834
g62
(dp2835
sg71
g2820
sg64
(lp2836
g57
(g58
g59
NtRp2837
(dp2838
g62
(dp2839
g70
I3
ssg71
g2833
sg64
(lp2840
S"<open file '<stderr>', mode 'w' at 0x7f82c0a93270>"
p2841
asbasbasbag57
(g73
g59
NtRp2842
(dp2843
g62
(dp2844
sg71
g2438
sg64
(lp2845
g57
(g78
g59
NtRp2846
(dp2847
g62
(dp2848
g82
g83
ssg71
g2842
sg64
(lp2849
S'wsgi.file_wrapper'
p2850
asbag57
(g78
g59
NtRp2851
(dp2852
g62
(dp2853
g89
g90
ssg71
g2842
sg64
(lp2854
S':'
asbag57
(g78
g59
NtRp2855
(dp2856
g62
(dp2857
sg71
g2842
sg64
(lp2858
g57
(g58
g59
NtRp2859
(dp2860
g62
(dp2861
g70
I3
ssg71
g2855
sg64
(lp2862
S'<class wsgiref.util.FileWrapper at 0x2436870>'
p2863
asbasbasbag57
(g73
g59
NtRp2864
(dp2865
g62
(dp2866
sg71
g2438
sg64
(lp2867
g57
(g78
g59
NtRp2868
(dp2869
g62
(dp2870
g82
g83
ssg71
g2864
sg64
(lp2871
S'wsgi.input'
p2872
asbag57
(g78
g59
NtRp2873
(dp2874
g62
(dp2875
g89
g90
ssg71
g2864
sg64
(lp2876
S':'
asbag57
(g78
g59
NtRp2877
(dp2878
g62
(dp2879
sg71
g2864
sg64
(lp2880
g57
(g58
g59
NtRp2881
(dp2882
g62
(dp2883
g70
I3
ssg71
g2877
sg64
(lp2884
S'<cStringIO.StringO object at 0x357a030>'
p2885
asbasbasbag57
(g73
g59
NtRp2886
(dp2887
g62
(dp2888
sg71
g2438
sg64
(lp2889
g57
(g78
g59
NtRp2890
(dp2891
g62
(dp2892
g82
g83
ssg71
g2886
sg64
(lp2893
S'wsgi.multiprocess'
p2894
asbag57
(g78
g59
NtRp2895
(dp2896
g62
(dp2897
g89
g90
ssg71
g2886
sg64
(lp2898
S':'
asbag57
(g78
g59
NtRp2899
(dp2900
g62
(dp2901
sg71
g2886
sg64
(lp2902
g57
(g58
g59
NtRp2903
(dp2904
g62
(dp2905
g70
I3
ssg71
g2899
sg64
(lp2906
g100
asbasbasbag57
(g73
g59
NtRp2907
(dp2908
g62
(dp2909
sg71
g2438
sg64
(lp2910
g57
(g78
g59
NtRp2911
(dp2912
g62
(dp2913
g82
g83
ssg71
g2907
sg64
(lp2914
S'wsgi.multithread'
p2915
asbag57
(g78
g59
NtRp2916
(dp2917
g62
(dp2918
g89
g90
ssg71
g2907
sg64
(lp2919
S':'
asbag57
(g78
g59
NtRp2920
(dp2921
g62
(dp2922
sg71
g2907
sg64
(lp2923
g57
(g58
g59
NtRp2924
(dp2925
g62
(dp2926
g70
I3
ssg71
g2920
sg64
(lp2927
g1668
asbasbasbag57
(g73
g59
NtRp2928
(dp2929
g62
(dp2930
sg71
g2438
sg64
(lp2931
g57
(g78
g59
NtRp2932
(dp2933
g62
(dp2934
g82
g83
ssg71
g2928
sg64
(lp2935
S'wsgi.run_once'
p2936
asbag57
(g78
g59
NtRp2937
(dp2938
g62
(dp2939
g89
g90
ssg71
g2928
sg64
(lp2940
S':'
asbag57
(g78
g59
NtRp2941
(dp2942
g62
(dp2943
sg71
g2928
sg64
(lp2944
g57
(g58
g59
NtRp2945
(dp2946
g62
(dp2947
g70
I3
ssg71
g2941
sg64
(lp2948
g100
asbasbasbag57
(g73
g59
NtRp2949
(dp2950
g62
(dp2951
sg71
g2438
sg64
(lp2952
g57
(g78
g59
NtRp2953
(dp2954
g62
(dp2955
g82
g83
ssg71
g2949
sg64
(lp2956
S'wsgi.url_scheme'
p2957
asbag57
(g78
g59
NtRp2958
(dp2959
g62
(dp2960
g89
g90
ssg71
g2949
sg64
(lp2961
S':'
asbag57
(g78
g59
NtRp2962
(dp2963
g62
(dp2964
sg71
g2949
sg64
(lp2965
g57
(g58
g59
NtRp2966
(dp2967
g62
(dp2968
g70
I3
ssg71
g2962
sg64
(lp2969
g1711
asbasbasbag57
(g73
g59
NtRp2970
(dp2971
g62
(dp2972
sg71
g2438
sg64
(lp2973
g57
(g78
g59
NtRp2974
(dp2975
g62
(dp2976
g82
g83
ssg71
g2970
sg64
(lp2977
S'wsgi.version'
p2978
asbag57
(g78
g59
NtRp2979
(dp2980
g62
(dp2981
g89
g90
ssg71
g2970
sg64
(lp2982
S':'
asbag57
(g78
g59
NtRp2983
(dp2984
g62
(dp2985
sg71
g2970
sg64
(lp2986
g57
(g58
g59
NtRp2987
(dp2988
g62
(dp2989
g70
I3
ssg71
g2983
sg64
(lp2990
S'1'
asbasbasbasbasbasbasbasbasbasbasbasbasbsS'frames'
p2991
(lp2992
(dp2993
S'file'
p2994
S'/home/fish/Desktop/web2py/gluon/restricted.py'
p2995
sS'dump'
p2996
(dp2997
S'environment'
p2998
S"{'A': <class 'gluon.html.A'>, 'Auth': <class 'gluon.tools.Auth'>, 'B': <class 'gluon.html.B'>, 'BEAUTIFY': <class 'gluon.html.BEAUTIFY'>, 'BODY': <class 'gluon.html.BODY'>, 'BR': <class 'gluon.html.BR'>, 'BUTTON': <class 'gluon.html.BUTTON'>, 'CAT': <class 'gluon.html.CAT'>, 'CENTER': <class 'gluon.html.CENTER'>, 'CLEANUP': <class 'gluon.validators.CLEANUP'>, ...}"
p2999
sS'ccode'
p3000
S'<code object <module> at 0x2b98cb0, file "/home/...ications/vsalad/controllers/default.py", line 12>'
p3001
ssS'lnum'
p3002
I205
sS'lines'
p3003
(dp3004
I200
S'    try:'
p3005
sI201
S'        if type(code) == types.CodeType:'
p3006
sI202
S'            ccode = code'
p3007
sI203
S'        else:'
p3008
sI204
S'            ccode = compile2(code,layer)'
p3009
sI205
S'        exec ccode in environment'
p3010
sI206
S'    except HTTP:'
p3011
sI207
S'        raise'
p3012
sI208
S'    except RestrictedError:'
p3013
sI209
S'        # do not encapsulate (obfuscate) the original RestrictedError'
p3014
ssS'call'
p3015
S"(code='# -*- coding: utf-8 -*-\\n# this file is released ...icles)\\n\\nresponse._vars=response._caller(article)\\n', environment={'A': <class 'gluon.html.A'>, 'Auth': <class 'gluon.tools.Auth'>, 'B': <class 'gluon.html.B'>, 'BEAUTIFY': <class 'gluon.html.BEAUTIFY'>, 'BODY': <class 'gluon.html.BODY'>, 'BR': <class 'gluon.html.BR'>, 'BUTTON': <class 'gluon.html.BUTTON'>, 'CAT': <class 'gluon.html.CAT'>, 'CENTER': <class 'gluon.html.CENTER'>, 'CLEANUP': <class 'gluon.validators.CLEANUP'>, ...}, layer='/home/fish/Desktop/web2py/applications/vsalad/controllers/default.py')"
p3016
sS'func'
p3017
S'restricted'
p3018
sa(dp3019
g2994
S'/home/fish/Desktop/web2py/applications/vsalad/controllers/default.py'
p3020
sg2996
(dp3021
sg3002
I81
sg3003
(dp3022
I70
S'        t = db(db.article.id==request.args(0)).select(db.article.title, db.article.content).first()'
p3023
sI71
S'        return dict(title=t.title, content=t.content)'
p3024
sI72
S'    else:'
p3025
sI73
S'        return "Error : No article selected"'
p3026
sI74
S''
sI75
S'def create():'
p3027
sI76
S'    form=SQLFORM(db.article)'
p3028
sI77
S'    form.process()'
p3029
sI78
S'    articles = db().select(db.article.ALL)'
p3030
sI79
S'    return dict(article=form, allar=articles)'
p3031
ssg3015
S'()'
p3032
sg3017
S'<module>'
p3033
sa(dp3034
g2994
S'/home/fish/Desktop/web2py/gluon/globals.py'
p3035
sg2996
(dp3036
S'self'
p3037
S'undefined'
p3038
sS'f'
S'<function article>'
p3039
ssg3002
I173
sg3003
(dp3040
I168
S'        self.menu = []             # used by the default view layout'
p3041
sI169
S'        self.files = []            # used by web2py_ajax.html'
p3042
sI170
S'        self.generic_patterns = [] # patterns to allow generic views'
p3043
sI171
S"        self.delimiters = ('{{','}}')"
p3044
sI172
S'        self._vars = None'
p3045
sI173
S'        self._caller = lambda f: f()'
p3046
sI174
S'        self._view_environment = None'
p3047
sI175
S'        self._custom_commit = None'
p3048
sI176
S'        self._custom_rollback = None'
p3049
sI177
S''
ssg3015
S'(f=<function article>)'
p3050
sg3017
S'<lambda>'
p3051
sa(dp3052
g2994
S'/home/fish/Desktop/web2py/applications/vsalad/controllers/default.py'
p3053
sg2996
(dp3054
S'title'
p3055
g3038
sS'content'
p3056
g3038
sS't.content'
p3057
g3038
sS't'
S'None'
p3058
sS't.title'
p3059
g3038
sS'builtindict'
p3060
S"<type 'dict'>"
p3061
ssg3002
I71
sg3003
(dp3062
I66
S'    return dict(form=crud())'
p3063
sI67
S''
sI68
S'def article():'
p3064
sI69
S'    if request.args(0):'
p3065
sI70
S'        t = db(db.article.id==request.args(0)).select(db.article.title, db.article.content).first()'
p3066
sI71
S'        return dict(title=t.title, content=t.content)'
p3067
sI72
S'    else:'
p3068
sI73
S'        return "Error : No article selected"'
p3069
sI74
S''
sI75
S'def create():'
p3070
ssg3015
S'()'
p3071
sg3017
S'article'
p3072
sasS'pyver'
p3073
S'Python 2.7.2+: /usr/bin/python'
p3074
sS'session'
p3075
g57
(g58
g59
NtRp3076
(dp3077
g62
(dp3078
sg64
(lp3079
g57
(g66
g59
NtRp3080
(dp3081
g62
(dp3082
g70
I5
ssg71
Nsg64
(lp3083
g57
(g73
g59
NtRp3084
(dp3085
g62
(dp3086
sg71
g3080
sg64
(lp3087
g57
(g78
g59
NtRp3088
(dp3089
g62
(dp3090
g82
g83
ssg71
g3084
sg64
(lp3091
S'last_query'
p3092
asbag57
(g78
g59
NtRp3093
(dp3094
g62
(dp3095
g89
g90
ssg71
g3084
sg64
(lp3096
S':'
asbag57
(g78
g59
NtRp3097
(dp3098
g62
(dp3099
sg71
g3084
sg64
(lp3100
g57
(g58
g59
NtRp3101
(dp3102
g62
(dp3103
g70
I5
ssg71
g3097
sg64
(lp3104
S'db.article.id>0'
p3105
asbasbasbasbasbsS'etype'
p3106
S"<type 'exceptions.AttributeError'>"
p3107
sS'date'
p3108
S'Thu Apr 19 03:32:50 2012'
p3109
sS'response'
p3110
g57
(g58
g59
NtRp3111
(dp3112
g62
(dp3113
sg64
(lp3114
g57
(g66
g59
NtRp3115
(dp3116
g62
(dp3117
g70
I5
ssg71
Nsg64
(lp3118
g57
(g73
g59
NtRp3119
(dp3120
g62
(dp3121
sg71
g3115
sg64
(lp3122
g57
(g78
g59
NtRp3123
(dp3124
g62
(dp3125
g82
g83
ssg71
g3119
sg64
(lp3126
g167
asbag57
(g78
g59
NtRp3127
(dp3128
g62
(dp3129
g89
g90
ssg71
g3119
sg64
(lp3130
S':'
asbag57
(g78
g59
NtRp3131
(dp3132
g62
(dp3133
sg71
g3119
sg64
(lp3134
g57
(g58
g59
NtRp3135
(dp3136
g62
(dp3137
g70
I5
ssg71
g3131
sg64
(lp3138
S'<cStringIO.StringO object at 0x33c2dc0>'
p3139
asbasbasbag57
(g73
g59
NtRp3140
(dp3141
g62
(dp3142
sg71
g3115
sg64
(lp3143
g57
(g78
g59
NtRp3144
(dp3145
g62
(dp3146
g82
g83
ssg71
g3140
sg64
(lp3147
g233
asbag57
(g78
g59
NtRp3148
(dp3149
g62
(dp3150
g89
g90
ssg71
g3140
sg64
(lp3151
S':'
asbag57
(g78
g59
NtRp3152
(dp3153
g62
(dp3154
sg71
g3140
sg64
(lp3155
g57
(g58
g59
NtRp3156
(dp3157
g62
(dp3158
g70
I5
ssg71
g3152
sg64
(lp3159
g57
(g66
g59
NtRp3160
(dp3161
g62
(dp3162
g70
I4
ssg71
Nsg64
(lp3163
g57
(g73
g59
NtRp3164
(dp3165
g62
(dp3166
sg71
g3160
sg64
(lp3167
g57
(g78
g59
NtRp3168
(dp3169
g62
(dp3170
g82
g83
ssg71
g3164
sg64
(lp3171
S'session_id_vsalad'
p3172
asbag57
(g78
g59
NtRp3173
(dp3174
g62
(dp3175
g89
g90
ssg71
g3164
sg64
(lp3176
S':'
asbag57
(g78
g59
NtRp3177
(dp3178
g62
(dp3179
sg71
g3164
sg64
(lp3180
g57
(g58
g59
NtRp3181
(dp3182
g62
(dp3183
g70
I4
ssg71
g3177
sg64
(lp3184
g57
(g66
g59
NtRp3185
(dp3186
g62
(dp3187
g70
I3
ssg71
Nsg64
(lp3188
g57
(g73
g59
NtRp3189
(dp3190
g62
(dp3191
sg71
g3185
sg64
(lp3192
g57
(g78
g59
NtRp3193
(dp3194
g62
(dp3195
g82
g83
ssg71
g3189
sg64
(lp3196
g283
asbag57
(g78
g59
NtRp3197
(dp3198
g62
(dp3199
g89
g90
ssg71
g3189
sg64
(lp3200
S':'
asbag57
(g78
g59
NtRp3201
(dp3202
g62
(dp3203
sg71
g3189
sg64
(lp3204
g57
(g58
g59
NtRp3205
(dp3206
g62
(dp3207
g70
I3
ssg71
g3201
sg64
(lp3208
S''
asbasbasbag57
(g73
g59
NtRp3209
(dp3210
g62
(dp3211
sg71
g3185
sg64
(lp3212
g57
(g78
g59
NtRp3213
(dp3214
g62
(dp3215
g82
g83
ssg71
g3209
sg64
(lp3216
g304
asbag57
(g78
g59
NtRp3217
(dp3218
g62
(dp3219
g89
g90
ssg71
g3209
sg64
(lp3220
S':'
asbag57
(g78
g59
NtRp3221
(dp3222
g62
(dp3223
sg71
g3209
sg64
(lp3224
g57
(g58
g59
NtRp3225
(dp3226
g62
(dp3227
g70
I3
ssg71
g3221
sg64
(lp3228
S''
asbasbasbag57
(g73
g59
NtRp3229
(dp3230
g62
(dp3231
sg71
g3185
sg64
(lp3232
g57
(g78
g59
NtRp3233
(dp3234
g62
(dp3235
g82
g83
ssg71
g3229
sg64
(lp3236
g325
asbag57
(g78
g59
NtRp3237
(dp3238
g62
(dp3239
g89
g90
ssg71
g3229
sg64
(lp3240
S':'
asbag57
(g78
g59
NtRp3241
(dp3242
g62
(dp3243
sg71
g3229
sg64
(lp3244
g57
(g58
g59
NtRp3245
(dp3246
g62
(dp3247
g70
I3
ssg71
g3241
sg64
(lp3248
S''
asbasbasbag57
(g73
g59
NtRp3249
(dp3250
g62
(dp3251
sg71
g3185
sg64
(lp3252
g57
(g78
g59
NtRp3253
(dp3254
g62
(dp3255
g82
g83
ssg71
g3249
sg64
(lp3256
g346
asbag57
(g78
g59
NtRp3257
(dp3258
g62
(dp3259
g89
g90
ssg71
g3249
sg64
(lp3260
S':'
asbag57
(g78
g59
NtRp3261
(dp3262
g62
(dp3263
sg71
g3249
sg64
(lp3264
g57
(g58
g59
NtRp3265
(dp3266
g62
(dp3267
g70
I3
ssg71
g3261
sg64
(lp3268
S''
asbasbasbag57
(g73
g59
NtRp3269
(dp3270
g62
(dp3271
sg71
g3185
sg64
(lp3272
g57
(g78
g59
NtRp3273
(dp3274
g62
(dp3275
g82
g83
ssg71
g3269
sg64
(lp3276
g367
asbag57
(g78
g59
NtRp3277
(dp3278
g62
(dp3279
g89
g90
ssg71
g3269
sg64
(lp3280
S':'
asbag57
(g78
g59
NtRp3281
(dp3282
g62
(dp3283
sg71
g3269
sg64
(lp3284
g57
(g58
g59
NtRp3285
(dp3286
g62
(dp3287
g70
I3
ssg71
g3281
sg64
(lp3288
S''
asbasbasbag57
(g73
g59
NtRp3289
(dp3290
g62
(dp3291
sg71
g3185
sg64
(lp3292
g57
(g78
g59
NtRp3293
(dp3294
g62
(dp3295
g82
g83
ssg71
g3289
sg64
(lp3296
g388
asbag57
(g78
g59
NtRp3297
(dp3298
g62
(dp3299
g89
g90
ssg71
g3289
sg64
(lp3300
S':'
asbag57
(g78
g59
NtRp3301
(dp3302
g62
(dp3303
sg71
g3289
sg64
(lp3304
g57
(g58
g59
NtRp3305
(dp3306
g62
(dp3307
g70
I3
ssg71
g3301
sg64
(lp3308
S'/'
asbasbasbag57
(g73
g59
NtRp3309
(dp3310
g62
(dp3311
sg71
g3185
sg64
(lp3312
g57
(g78
g59
NtRp3313
(dp3314
g62
(dp3315
g82
g83
ssg71
g3309
sg64
(lp3316
g409
asbag57
(g78
g59
NtRp3317
(dp3318
g62
(dp3319
g89
g90
ssg71
g3309
sg64
(lp3320
S':'
asbag57
(g78
g59
NtRp3321
(dp3322
g62
(dp3323
sg71
g3309
sg64
(lp3324
g57
(g58
g59
NtRp3325
(dp3326
g62
(dp3327
g70
I3
ssg71
g3321
sg64
(lp3328
S''
asbasbasbag57
(g73
g59
NtRp3329
(dp3330
g62
(dp3331
sg71
g3185
sg64
(lp3332
g57
(g78
g59
NtRp3333
(dp3334
g62
(dp3335
g82
g83
ssg71
g3329
sg64
(lp3336
g430
asbag57
(g78
g59
NtRp3337
(dp3338
g62
(dp3339
g89
g90
ssg71
g3329
sg64
(lp3340
S':'
asbag57
(g78
g59
NtRp3341
(dp3342
g62
(dp3343
sg71
g3329
sg64
(lp3344
g57
(g58
g59
NtRp3345
(dp3346
g62
(dp3347
g70
I3
ssg71
g3341
sg64
(lp3348
S''
asbasbasbasbasbasbasbasbasbasbasbag57
(g73
g59
NtRp3349
(dp3350
g62
(dp3351
sg71
g3115
sg64
(lp3352
g57
(g78
g59
NtRp3353
(dp3354
g62
(dp3355
g82
g83
ssg71
g3349
sg64
(lp3356
S'delimiters'
p3357
asbag57
(g78
g59
NtRp3358
(dp3359
g62
(dp3360
g89
g90
ssg71
g3349
sg64
(lp3361
S':'
asbag57
(g78
g59
NtRp3362
(dp3363
g62
(dp3364
sg71
g3349
sg64
(lp3365
g57
(g58
g59
NtRp3366
(dp3367
g62
(dp3368
g70
I5
ssg71
g3362
sg64
(lp3369
g57
(g66
g59
NtRp3370
(dp3371
g62
(dp3372
g70
I4
ssg71
Nsg64
(lp3373
g57
(g73
g59
NtRp3374
(dp3375
g62
(dp3376
sg71
g3370
sg64
(lp3377
g57
(g78
g59
NtRp3378
(dp3379
g62
(dp3380
sg71
g3374
sg64
(lp3381
g57
(g58
g59
NtRp3382
(dp3383
g62
(dp3384
g70
I4
ssg71
g3378
sg64
(lp3385
S'{{'
p3386
asbasbasbag57
(g73
g59
NtRp3387
(dp3388
g62
(dp3389
sg71
g3370
sg64
(lp3390
g57
(g78
g59
NtRp3391
(dp3392
g62
(dp3393
sg71
g3387
sg64
(lp3394
g57
(g58
g59
NtRp3395
(dp3396
g62
(dp3397
g70
I4
ssg71
g3391
sg64
(lp3398
S'}}'
p3399
asbasbasbasbasbasbasbag57
(g73
g59
NtRp3400
(dp3401
g62
(dp3402
sg71
g3115
sg64
(lp3403
g57
(g78
g59
NtRp3404
(dp3405
g62
(dp3406
g82
g83
ssg71
g3400
sg64
(lp3407
S'files'
p3408
asbag57
(g78
g59
NtRp3409
(dp3410
g62
(dp3411
g89
g90
ssg71
g3400
sg64
(lp3412
S':'
asbag57
(g78
g59
NtRp3413
(dp3414
g62
(dp3415
sg71
g3400
sg64
(lp3416
g57
(g58
g59
NtRp3417
(dp3418
g62
(dp3419
g70
I5
ssg71
g3413
sg64
(lp3420
g57
(g66
g59
NtRp3421
(dp3422
g62
(dp3423
g70
I4
ssg71
Nsg64
(lp3424
sbasbasbasbag57
(g73
g59
NtRp3425
(dp3426
g62
(dp3427
sg71
g3115
sg64
(lp3428
g57
(g78
g59
NtRp3429
(dp3430
g62
(dp3431
g82
g83
ssg71
g3425
sg64
(lp3432
S'flash'
p3433
asbag57
(g78
g59
NtRp3434
(dp3435
g62
(dp3436
g89
g90
ssg71
g3425
sg64
(lp3437
S':'
asbag57
(g78
g59
NtRp3438
(dp3439
g62
(dp3440
sg71
g3425
sg64
(lp3441
g57
(g58
g59
NtRp3442
(dp3443
g62
(dp3444
g70
I5
ssg71
g3438
sg64
(lp3445
S''
asbasbasbag57
(g73
g59
NtRp3446
(dp3447
g62
(dp3448
sg71
g3115
sg64
(lp3449
g57
(g78
g59
NtRp3450
(dp3451
g62
(dp3452
g82
g83
ssg71
g3446
sg64
(lp3453
S'generic_patterns'
p3454
asbag57
(g78
g59
NtRp3455
(dp3456
g62
(dp3457
g89
g90
ssg71
g3446
sg64
(lp3458
S':'
asbag57
(g78
g59
NtRp3459
(dp3460
g62
(dp3461
sg71
g3446
sg64
(lp3462
g57
(g58
g59
NtRp3463
(dp3464
g62
(dp3465
g70
I5
ssg71
g3459
sg64
(lp3466
g57
(g66
g59
NtRp3467
(dp3468
g62
(dp3469
g70
I4
ssg71
Nsg64
(lp3470
g57
(g73
g59
NtRp3471
(dp3472
g62
(dp3473
sg71
g3467
sg64
(lp3474
g57
(g78
g59
NtRp3475
(dp3476
g62
(dp3477
sg71
g3471
sg64
(lp3478
g57
(g58
g59
NtRp3479
(dp3480
g62
(dp3481
g70
I4
ssg71
g3475
sg64
(lp3482
S'*'
asbasbasbasbasbasbasbag57
(g73
g59
NtRp3483
(dp3484
g62
(dp3485
sg71
g3115
sg64
(lp3486
g57
(g78
g59
NtRp3487
(dp3488
g62
(dp3489
g82
g83
ssg71
g3483
sg64
(lp3490
S'headers'
p3491
asbag57
(g78
g59
NtRp3492
(dp3493
g62
(dp3494
g89
g90
ssg71
g3483
sg64
(lp3495
S':'
asbag57
(g78
g59
NtRp3496
(dp3497
g62
(dp3498
sg71
g3483
sg64
(lp3499
g57
(g58
g59
NtRp3500
(dp3501
g62
(dp3502
g70
I5
ssg71
g3496
sg64
(lp3503
g57
(g66
g59
NtRp3504
(dp3505
g62
(dp3506
g70
I4
ssg71
Nsg64
(lp3507
g57
(g73
g59
NtRp3508
(dp3509
g62
(dp3510
sg71
g3504
sg64
(lp3511
g57
(g78
g59
NtRp3512
(dp3513
g62
(dp3514
g82
g83
ssg71
g3508
sg64
(lp3515
S'Cache-Control'
p3516
asbag57
(g78
g59
NtRp3517
(dp3518
g62
(dp3519
g89
g90
ssg71
g3508
sg64
(lp3520
S':'
asbag57
(g78
g59
NtRp3521
(dp3522
g62
(dp3523
sg71
g3508
sg64
(lp3524
g57
(g58
g59
NtRp3525
(dp3526
g62
(dp3527
g70
I4
ssg71
g3521
sg64
(lp3528
S'no-store, no-cache, must-revalidate, post-check=0, pre-check=0'
p3529
asbasbasbag57
(g73
g59
NtRp3530
(dp3531
g62
(dp3532
sg71
g3504
sg64
(lp3533
g57
(g78
g59
NtRp3534
(dp3535
g62
(dp3536
g82
g83
ssg71
g3530
sg64
(lp3537
S'Content-Type'
p3538
asbag57
(g78
g59
NtRp3539
(dp3540
g62
(dp3541
g89
g90
ssg71
g3530
sg64
(lp3542
S':'
asbag57
(g78
g59
NtRp3543
(dp3544
g62
(dp3545
sg71
g3530
sg64
(lp3546
g57
(g58
g59
NtRp3547
(dp3548
g62
(dp3549
g70
I4
ssg71
g3543
sg64
(lp3550
S'text/html; charset=utf-8'
p3551
asbasbasbag57
(g73
g59
NtRp3552
(dp3553
g62
(dp3554
sg71
g3504
sg64
(lp3555
g57
(g78
g59
NtRp3556
(dp3557
g62
(dp3558
g82
g83
ssg71
g3552
sg64
(lp3559
S'Expires'
p3560
asbag57
(g78
g59
NtRp3561
(dp3562
g62
(dp3563
g89
g90
ssg71
g3552
sg64
(lp3564
S':'
asbag57
(g78
g59
NtRp3565
(dp3566
g62
(dp3567
sg71
g3552
sg64
(lp3568
g57
(g58
g59
NtRp3569
(dp3570
g62
(dp3571
g70
I4
ssg71
g3565
sg64
(lp3572
S'Wed, 18 Apr 2012 23:32:50 GMT'
p3573
asbasbasbag57
(g73
g59
NtRp3574
(dp3575
g62
(dp3576
sg71
g3504
sg64
(lp3577
g57
(g78
g59
NtRp3578
(dp3579
g62
(dp3580
g82
g83
ssg71
g3574
sg64
(lp3581
S'Pragma'
p3582
asbag57
(g78
g59
NtRp3583
(dp3584
g62
(dp3585
g89
g90
ssg71
g3574
sg64
(lp3586
S':'
asbag57
(g78
g59
NtRp3587
(dp3588
g62
(dp3589
sg71
g3574
sg64
(lp3590
g57
(g58
g59
NtRp3591
(dp3592
g62
(dp3593
g70
I4
ssg71
g3587
sg64
(lp3594
S'no-cache'
p3595
asbasbasbag57
(g73
g59
NtRp3596
(dp3597
g62
(dp3598
sg71
g3504
sg64
(lp3599
g57
(g78
g59
NtRp3600
(dp3601
g62
(dp3602
g82
g83
ssg71
g3596
sg64
(lp3603
S'X-Powered-By'
p3604
asbag57
(g78
g59
NtRp3605
(dp3606
g62
(dp3607
g89
g90
ssg71
g3596
sg64
(lp3608
S':'
asbag57
(g78
g59
NtRp3609
(dp3610
g62
(dp3611
sg71
g3596
sg64
(lp3612
g57
(g58
g59
NtRp3613
(dp3614
g62
(dp3615
g70
I4
ssg71
g3609
sg64
(lp3616
S'web2py'
p3617
asbasbasbasbasbasbasbag57
(g73
g59
NtRp3618
(dp3619
g62
(dp3620
sg71
g3115
sg64
(lp3621
g57
(g78
g59
NtRp3622
(dp3623
g62
(dp3624
g82
g83
ssg71
g3618
sg64
(lp3625
S'menu'
p3626
asbag57
(g78
g59
NtRp3627
(dp3628
g62
(dp3629
g89
g90
ssg71
g3618
sg64
(lp3630
S':'
asbag57
(g78
g59
NtRp3631
(dp3632
g62
(dp3633
sg71
g3618
sg64
(lp3634
g57
(g58
g59
NtRp3635
(dp3636
g62
(dp3637
g70
I5
ssg71
g3631
sg64
(lp3638
g57
(g66
g59
NtRp3639
(dp3640
g62
(dp3641
g70
I4
ssg71
Nsg64
(lp3642
g57
(g73
g59
NtRp3643
(dp3644
g62
(dp3645
sg71
g3639
sg64
(lp3646
g57
(g78
g59
NtRp3647
(dp3648
g62
(dp3649
sg71
g3643
sg64
(lp3650
g57
(g58
g59
NtRp3651
(dp3652
g62
(dp3653
g70
I4
ssg71
g3647
sg64
(lp3654
g57
(g66
g59
NtRp3655
(dp3656
g62
(dp3657
g70
I3
ssg71
Nsg64
(lp3658
g57
(g73
g59
NtRp3659
(dp3660
g62
(dp3661
sg71
g3655
sg64
(lp3662
g57
(g78
g59
NtRp3663
(dp3664
g62
(dp3665
sg71
g3659
sg64
(lp3666
g57
(g58
g59
NtRp3667
(dp3668
g62
(dp3669
g70
I3
ssg71
g3663
sg64
(lp3670
cgluon.languages
lazyT_unpickle
p3671
(S't\x04\x00\x00\x00Home'
tRp3672
asbasbasbag57
(g73
g59
NtRp3673
(dp3674
g62
(dp3675
sg71
g3655
sg64
(lp3676
g57
(g78
g59
NtRp3677
(dp3678
g62
(dp3679
sg71
g3673
sg64
(lp3680
g57
(g58
g59
NtRp3681
(dp3682
g62
(dp3683
g70
I3
ssg71
g3677
sg64
(lp3684
g100
asbasbasbag57
(g73
g59
NtRp3685
(dp3686
g62
(dp3687
sg71
g3655
sg64
(lp3688
g57
(g78
g59
NtRp3689
(dp3690
g62
(dp3691
sg71
g3685
sg64
(lp3692
g57
(g58
g59
NtRp3693
(dp3694
g62
(dp3695
g70
I3
ssg71
g3689
sg64
(lp3696
S'/vsalad/default/index'
p3697
asbasbasbag57
(g73
g59
NtRp3698
(dp3699
g62
(dp3700
sg71
g3655
sg64
(lp3701
g57
(g78
g59
NtRp3702
(dp3703
g62
(dp3704
sg71
g3698
sg64
(lp3705
g57
(g58
g59
NtRp3706
(dp3707
g62
(dp3708
g70
I3
ssg71
g3702
sg64
(lp3709
g57
(g66
g59
NtRp3710
(dp3711
g62
(dp3712
g70
I2
ssg71
Nsg64
(lp3713
sbasbasbasbasbasbasbasbag57
(g73
g59
NtRp3714
(dp3715
g62
(dp3716
sg71
g3639
sg64
(lp3717
g57
(g78
g59
NtRp3718
(dp3719
g62
(dp3720
sg71
g3714
sg64
(lp3721
g57
(g58
g59
NtRp3722
(dp3723
g62
(dp3724
g70
I4
ssg71
g3718
sg64
(lp3725
g57
(g66
g59
NtRp3726
(dp3727
g62
(dp3728
g70
I3
ssg71
Nsg64
(lp3729
g57
(g73
g59
NtRp3730
(dp3731
g62
(dp3732
sg71
g3726
sg64
(lp3733
g57
(g78
g59
NtRp3734
(dp3735
g62
(dp3736
sg71
g3730
sg64
(lp3737
g57
(g58
g59
NtRp3738
(dp3739
g62
(dp3740
g70
I3
ssg71
g3734
sg64
(lp3741
g57
(cgluon.html
SPAN
p3742
g59
NtRp3743
(dp3744
g62
(dp3745
g82
S'color:yellow'
p3746
ssg71
Nsg64
(lp3747
g3617
asbasbasbasbag57
(g73
g59
NtRp3748
(dp3749
g62
(dp3750
sg71
g3726
sg64
(lp3751
g57
(g78
g59
NtRp3752
(dp3753
g62
(dp3754
sg71
g3748
sg64
(lp3755
g57
(g58
g59
NtRp3756
(dp3757
g62
(dp3758
g70
I3
ssg71
g3752
sg64
(lp3759
g100
asbasbasbag57
(g73
g59
NtRp3760
(dp3761
g62
(dp3762
sg71
g3726
sg64
(lp3763
g57
(g78
g59
NtRp3764
(dp3765
g62
(dp3766
sg71
g3760
sg64
(lp3767
g57
(g58
g59
NtRp3768
(dp3769
g62
(dp3770
g70
I3
ssg71
g3764
sg64
(lp3771
S'None'
p3772
asbasbasbag57
(g73
g59
NtRp3773
(dp3774
g62
(dp3775
sg71
g3726
sg64
(lp3776
g57
(g78
g59
NtRp3777
(dp3778
g62
(dp3779
sg71
g3773
sg64
(lp3780
g57
(g58
g59
NtRp3781
(dp3782
g62
(dp3783
g70
I3
ssg71
g3777
sg64
(lp3784
g57
(g66
g59
NtRp3785
(dp3786
g62
(dp3787
g70
I2
ssg71
Nsg64
(lp3788
g57
(g73
g59
NtRp3789
(dp3790
g62
(dp3791
sg71
g3785
sg64
(lp3792
g57
(g78
g59
NtRp3793
(dp3794
g62
(dp3795
sg71
g3789
sg64
(lp3796
g57
(g58
g59
NtRp3797
(dp3798
g62
(dp3799
g70
I2
ssg71
g3793
sg64
(lp3800
g57
(g66
g59
NtRp3801
(dp3802
g62
(dp3803
g70
I1
ssg71
Nsg64
(lp3804
g57
(g73
g59
NtRp3805
(dp3806
g62
(dp3807
sg71
g3801
sg64
(lp3808
g57
(g78
g59
NtRp3809
(dp3810
g62
(dp3811
sg71
g3805
sg64
(lp3812
g57
(g58
g59
NtRp3813
(dp3814
g62
(dp3815
g70
I1
ssg71
g3809
sg64
(lp3816
g3671
(S's\x08\x00\x00\x00My Sites'
tRp3817
asbasbasbag57
(g73
g59
NtRp3818
(dp3819
g62
(dp3820
sg71
g3801
sg64
(lp3821
g57
(g78
g59
NtRp3822
(dp3823
g62
(dp3824
sg71
g3818
sg64
(lp3825
g57
(g58
g59
NtRp3826
(dp3827
g62
(dp3828
g70
I1
ssg71
g3822
sg64
(lp3829
I00
asbasbasbag57
(g73
g59
NtRp3830
(dp3831
g62
(dp3832
sg71
g3801
sg64
(lp3833
g57
(g78
g59
NtRp3834
(dp3835
g62
(dp3836
sg71
g3830
sg64
(lp3837
g57
(g58
g59
NtRp3838
(dp3839
g62
(dp3840
g70
I1
ssg71
g3834
sg64
(lp3841
S'/admin/default/site'
p3842
asbasbasbasbasbasbasbag57
(g73
g59
NtRp3843
(dp3844
g62
(dp3845
sg71
g3785
sg64
(lp3846
g57
(g78
g59
NtRp3847
(dp3848
g62
(dp3849
sg71
g3843
sg64
(lp3850
g57
(g58
g59
NtRp3851
(dp3852
g62
(dp3853
g70
I2
ssg71
g3847
sg64
(lp3854
g57
(g66
g59
NtRp3855
(dp3856
g62
(dp3857
g70
I1
ssg71
Nsg64
(lp3858
g57
(g73
g59
NtRp3859
(dp3860
g62
(dp3861
sg71
g3855
sg64
(lp3862
g57
(g78
g59
NtRp3863
(dp3864
g62
(dp3865
sg71
g3859
sg64
(lp3866
g57
(g58
g59
NtRp3867
(dp3868
g62
(dp3869
g70
I1
ssg71
g3863
sg64
(lp3870
g3671
(S's\x08\x00\x00\x00This App'
tRp3871
asbasbasbag57
(g73
g59
NtRp3872
(dp3873
g62
(dp3874
sg71
g3855
sg64
(lp3875
g57
(g78
g59
NtRp3876
(dp3877
g62
(dp3878
sg71
g3872
sg64
(lp3879
g57
(g58
g59
NtRp3880
(dp3881
g62
(dp3882
g70
I1
ssg71
g3876
sg64
(lp3883
I00
asbasbasbag57
(g73
g59
NtRp3884
(dp3885
g62
(dp3886
sg71
g3855
sg64
(lp3887
g57
(g78
g59
NtRp3888
(dp3889
g62
(dp3890
sg71
g3884
sg64
(lp3891
g57
(g58
g59
NtRp3892
(dp3893
g62
(dp3894
g70
I1
ssg71
g3888
sg64
(lp3895
S'/admin/default/design/vsalad'
p3896
asbasbasbag57
(g73
g59
NtRp3897
(dp3898
g62
(dp3899
sg71
g3855
sg64
(lp3900
g57
(g78
g59
NtRp3901
(dp3902
g62
(dp3903
sg71
g3897
sg64
(lp3904
g57
(g58
g59
NtRp3905
(dp3906
g62
(dp3907
g70
I1
ssg71
g3901
sg64
(lp3908
(lp3909
(g3671
(S't\n\x00\x00\x00Controller'
tRp3910
I00
S'/admin/default/edit/vsalad/controllers/default.py'
tp3911
a(g3671
(S't\x04\x00\x00\x00View'
tRp3912
I00
S'/admin/default/edit/vsalad/views/default/article.html'
tp3913
a(g3671
(S't\x06\x00\x00\x00Layout'
tRp3914
I00
S'/admin/default/edit/vsalad/views/layout.html'
tp3915
a(g3671
(S't\n\x00\x00\x00Stylesheet'
tRp3916
I00
S'/admin/default/edit/vsalad/static/css/web2py.css'
tp3917
a(g3671
(S's\x08\x00\x00\x00DB Model'
tRp3918
I00
S'/admin/default/edit/vsalad/models/db.py'
tp3919
a(g3671
(S's\n\x00\x00\x00Menu Model'
tRp3920
I00
S'/admin/default/edit/vsalad/models/menu.py'
tp3921
a(g3671
(S't\x08\x00\x00\x00Database'
tRp3922
I00
S'/vsalad/appadmin/index'
tp3923
a(g3671
(S't\x06\x00\x00\x00Errors'
tRp3924
I00
S'/admin/default/errors/vsalad'
tp3925
a(g3671
(S't\x05\x00\x00\x00About'
tRp3926
I00
S'/admin/default/about/vsalad'
tp3927
aasbasbasbasbasbasbasbag57
(g73
g59
NtRp3928
(dp3929
g62
(dp3930
sg71
g3785
sg64
(lp3931
g57
(g78
g59
NtRp3932
(dp3933
g62
(dp3934
sg71
g3928
sg64
(lp3935
g57
(g58
g59
NtRp3936
(dp3937
g62
(dp3938
g70
I2
ssg71
g3932
sg64
(lp3939
g57
(g66
g59
NtRp3940
(dp3941
g62
(dp3942
g70
I1
ssg71
Nsg64
(lp3943
g57
(g73
g59
NtRp3944
(dp3945
g62
(dp3946
sg71
g3940
sg64
(lp3947
g57
(g78
g59
NtRp3948
(dp3949
g62
(dp3950
sg71
g3944
sg64
(lp3951
g57
(g58
g59
NtRp3952
(dp3953
g62
(dp3954
g70
I1
ssg71
g3948
sg64
(lp3955
S'web2py.com'
p3956
asbasbasbag57
(g73
g59
NtRp3957
(dp3958
g62
(dp3959
sg71
g3940
sg64
(lp3960
g57
(g78
g59
NtRp3961
(dp3962
g62
(dp3963
sg71
g3957
sg64
(lp3964
g57
(g58
g59
NtRp3965
(dp3966
g62
(dp3967
g70
I1
ssg71
g3961
sg64
(lp3968
I00
asbasbasbag57
(g73
g59
NtRp3969
(dp3970
g62
(dp3971
sg71
g3940
sg64
(lp3972
g57
(g78
g59
NtRp3973
(dp3974
g62
(dp3975
sg71
g3969
sg64
(lp3976
g57
(g58
g59
NtRp3977
(dp3978
g62
(dp3979
g70
I1
ssg71
g3973
sg64
(lp3980
S'http://www.web2py.com'
p3981
asbasbasbag57
(g73
g59
NtRp3982
(dp3983
g62
(dp3984
sg71
g3940
sg64
(lp3985
g57
(g78
g59
NtRp3986
(dp3987
g62
(dp3988
sg71
g3982
sg64
(lp3989
g57
(g58
g59
NtRp3990
(dp3991
g62
(dp3992
g70
I1
ssg71
g3986
sg64
(lp3993
(lp3994
(g3671
(S't\x08\x00\x00\x00Download'
tRp3995
I00
S'http://www.web2py.com/examples/default/download'
p3996
tp3997
a(g3671
(S't\x07\x00\x00\x00Support'
tRp3998
I00
S'http://www.web2py.com/examples/default/support'
p3999
tp4000
a(g3671
(S't\x04\x00\x00\x00Demo'
tRp4001
I00
S'http://web2py.com/demo_admin'
p4002
tp4003
a(g3671
(S's\x0e\x00\x00\x00Quick Examples'
tRp4004
I00
S'http://web2py.com/examples/default/examples'
p4005
tp4006
a(g3671
(S't\x03\x00\x00\x00FAQ'
tRp4007
I00
S'http://web2py.com/AlterEgo'
p4008
tp4009
a(g3671
(S't\x06\x00\x00\x00Videos'
tRp4010
I00
S'http://www.web2py.com/examples/default/videos/'
p4011
tp4012
a(g3671
(S's\x11\x00\x00\x00Free Applications'
tRp4013
I00
S'http://web2py.com/appliances'
p4014
tp4015
a(g3671
(S't\x07\x00\x00\x00Plugins'
tRp4016
I00
S'http://web2py.com/plugins'
p4017
tp4018
a(g3671
(S't\x07\x00\x00\x00Layouts'
tRp4019
I00
S'http://web2py.com/layouts'
p4020
tp4021
a(g3671
(S't\x07\x00\x00\x00Recipes'
tRp4022
I00
S'http://web2pyslices.com/'
p4023
tp4024
a(g3671
(S't\x08\x00\x00\x00Semantic'
tRp4025
I00
S'http://web2py.com/semantic'
p4026
tp4027
aasbasbasbasbasbasbasbag57
(g73
g59
NtRp4028
(dp4029
g62
(dp4030
sg71
g3785
sg64
(lp4031
g57
(g78
g59
NtRp4032
(dp4033
g62
(dp4034
sg71
g4028
sg64
(lp4035
g57
(g58
g59
NtRp4036
(dp4037
g62
(dp4038
g70
I2
ssg71
g4032
sg64
(lp4039
g57
(g66
g59
NtRp4040
(dp4041
g62
(dp4042
g70
I1
ssg71
Nsg64
(lp4043
g57
(g73
g59
NtRp4044
(dp4045
g62
(dp4046
sg71
g4040
sg64
(lp4047
g57
(g78
g59
NtRp4048
(dp4049
g62
(dp4050
sg71
g4044
sg64
(lp4051
g57
(g58
g59
NtRp4052
(dp4053
g62
(dp4054
g70
I1
ssg71
g4048
sg64
(lp4055
g3671
(S't\r\x00\x00\x00Documentation'
tRp4056
asbasbasbag57
(g73
g59
NtRp4057
(dp4058
g62
(dp4059
sg71
g4040
sg64
(lp4060
g57
(g78
g59
NtRp4061
(dp4062
g62
(dp4063
sg71
g4057
sg64
(lp4064
g57
(g58
g59
NtRp4065
(dp4066
g62
(dp4067
g70
I1
ssg71
g4061
sg64
(lp4068
I00
asbasbasbag57
(g73
g59
NtRp4069
(dp4070
g62
(dp4071
sg71
g4040
sg64
(lp4072
g57
(g78
g59
NtRp4073
(dp4074
g62
(dp4075
sg71
g4069
sg64
(lp4076
g57
(g58
g59
NtRp4077
(dp4078
g62
(dp4079
g70
I1
ssg71
g4073
sg64
(lp4080
S'http://www.web2py.com/book'
p4081
asbasbasbag57
(g73
g59
NtRp4082
(dp4083
g62
(dp4084
sg71
g4040
sg64
(lp4085
g57
(g78
g59
NtRp4086
(dp4087
g62
(dp4088
sg71
g4082
sg64
(lp4089
g57
(g58
g59
NtRp4090
(dp4091
g62
(dp4092
g70
I1
ssg71
g4086
sg64
(lp4093
(lp4094
(g3671
(S't\x07\x00\x00\x00Preface'
tRp4095
I00
S'http://www.web2py.com/book/default/chapter/00'
p4096
tp4097
a(g3671
(S't\x0c\x00\x00\x00Introduction'
tRp4098
I00
S'http://www.web2py.com/book/default/chapter/01'
p4099
tp4100
a(g3671
(S't\x06\x00\x00\x00Python'
tRp4101
I00
S'http://www.web2py.com/book/default/chapter/02'
p4102
tp4103
a(g3671
(S't\x08\x00\x00\x00Overview'
tRp4104
I00
S'http://www.web2py.com/book/default/chapter/03'
p4105
tp4106
a(g3671
(S's\x08\x00\x00\x00The Core'
tRp4107
I00
S'http://www.web2py.com/book/default/chapter/04'
p4108
tp4109
a(g3671
(S's\t\x00\x00\x00The Views'
tRp4110
I00
S'http://www.web2py.com/book/default/chapter/05'
p4111
tp4112
a(g3671
(S't\x08\x00\x00\x00Database'
tRp4113
I00
S'http://www.web2py.com/book/default/chapter/06'
p4114
tp4115
a(g3671
(S's\x14\x00\x00\x00Forms and Validators'
tRp4116
I00
S'http://www.web2py.com/book/default/chapter/07'
p4117
tp4118
a(g3671
(S's\r\x00\x00\x00Email and SMS'
tRp4119
I00
S'http://www.web2py.com/book/default/chapter/08'
p4120
tp4121
a(g3671
(S's\x0e\x00\x00\x00Access Control'
tRp4122
I00
S'http://www.web2py.com/book/default/chapter/09'
p4123
tp4124
a(g3671
(S't\x08\x00\x00\x00Services'
tRp4125
I00
S'http://www.web2py.com/book/default/chapter/10'
p4126
tp4127
a(g3671
(S's\x0c\x00\x00\x00Ajax Recipes'
tRp4128
I00
S'http://www.web2py.com/book/default/chapter/11'
p4129
tp4130
a(g3671
(S's\x16\x00\x00\x00Components and Plugins'
tRp4131
I00
S'http://www.web2py.com/book/default/chapter/12'
p4132
tp4133
a(g3671
(S's\x12\x00\x00\x00Deployment Recipes'
tRp4134
I00
S'http://www.web2py.com/book/default/chapter/13'
p4135
tp4136
a(g3671
(S's\r\x00\x00\x00Other Recipes'
tRp4137
I00
S'http://www.web2py.com/book/default/chapter/14'
p4138
tp4139
a(g3671
(S's\r\x00\x00\x00Buy this book'
tRp4140
I00
S'http://stores.lulu.com/web2py'
p4141
tp4142
aasbasbasbasbasbasbasbag57
(g73
g59
NtRp4143
(dp4144
g62
(dp4145
sg71
g3785
sg64
(lp4146
g57
(g78
g59
NtRp4147
(dp4148
g62
(dp4149
sg71
g4143
sg64
(lp4150
g57
(g58
g59
NtRp4151
(dp4152
g62
(dp4153
g70
I2
ssg71
g4147
sg64
(lp4154
g57
(g66
g59
NtRp4155
(dp4156
g62
(dp4157
g70
I1
ssg71
Nsg64
(lp4158
g57
(g73
g59
NtRp4159
(dp4160
g62
(dp4161
sg71
g4155
sg64
(lp4162
g57
(g78
g59
NtRp4163
(dp4164
g62
(dp4165
sg71
g4159
sg64
(lp4166
g57
(g58
g59
NtRp4167
(dp4168
g62
(dp4169
g70
I1
ssg71
g4163
sg64
(lp4170
g3671
(S't\t\x00\x00\x00Community'
tRp4171
asbasbasbag57
(g73
g59
NtRp4172
(dp4173
g62
(dp4174
sg71
g4155
sg64
(lp4175
g57
(g78
g59
NtRp4176
(dp4177
g62
(dp4178
sg71
g4172
sg64
(lp4179
g57
(g58
g59
NtRp4180
(dp4181
g62
(dp4182
g70
I1
ssg71
g4176
sg64
(lp4183
I00
asbasbasbag57
(g73
g59
NtRp4184
(dp4185
g62
(dp4186
sg71
g4155
sg64
(lp4187
g57
(g78
g59
NtRp4188
(dp4189
g62
(dp4190
sg71
g4184
sg64
(lp4191
g57
(g58
g59
NtRp4192
(dp4193
g62
(dp4194
g70
I1
ssg71
g4188
sg64
(lp4195
Nasbasbasbag57
(g73
g59
NtRp4196
(dp4197
g62
(dp4198
sg71
g4155
sg64
(lp4199
g57
(g78
g59
NtRp4200
(dp4201
g62
(dp4202
sg71
g4196
sg64
(lp4203
g57
(g58
g59
NtRp4204
(dp4205
g62
(dp4206
g70
I1
ssg71
g4200
sg64
(lp4207
(lp4208
(g3671
(S't\x06\x00\x00\x00Groups'
tRp4209
I00
S'http://www.web2py.com/examples/default/usergroups'
p4210
tp4211
a(g3671
(S't\x07\x00\x00\x00Twitter'
tRp4212
I00
S'http://twitter.com/web2py'
p4213
tp4214
a(g3671
(S's\t\x00\x00\x00Live Chat'
tRp4215
I00
S'http://webchat.freenode.net/?channels=web2py'
p4216
tp4217
aasbasbasbasbasbasbasbag57
(g73
g59
NtRp4218
(dp4219
g62
(dp4220
sg71
g3785
sg64
(lp4221
g57
(g78
g59
NtRp4222
(dp4223
g62
(dp4224
sg71
g4218
sg64
(lp4225
g57
(g58
g59
NtRp4226
(dp4227
g62
(dp4228
g70
I2
ssg71
g4222
sg64
(lp4229
g57
(g66
g59
NtRp4230
(dp4231
g62
(dp4232
g70
I1
ssg71
Nsg64
(lp4233
g57
(g73
g59
NtRp4234
(dp4235
g62
(dp4236
sg71
g4230
sg64
(lp4237
g57
(g78
g59
NtRp4238
(dp4239
g62
(dp4240
sg71
g4234
sg64
(lp4241
g57
(g58
g59
NtRp4242
(dp4243
g62
(dp4244
g70
I1
ssg71
g4238
sg64
(lp4245
g3671
(S't\x07\x00\x00\x00Plugins'
tRp4246
asbasbasbag57
(g73
g59
NtRp4247
(dp4248
g62
(dp4249
sg71
g4230
sg64
(lp4250
g57
(g78
g59
NtRp4251
(dp4252
g62
(dp4253
sg71
g4247
sg64
(lp4254
g57
(g58
g59
NtRp4255
(dp4256
g62
(dp4257
g70
I1
ssg71
g4251
sg64
(lp4258
I00
asbasbasbag57
(g73
g59
NtRp4259
(dp4260
g62
(dp4261
sg71
g4230
sg64
(lp4262
g57
(g78
g59
NtRp4263
(dp4264
g62
(dp4265
sg71
g4259
sg64
(lp4266
g57
(g58
g59
NtRp4267
(dp4268
g62
(dp4269
g70
I1
ssg71
g4263
sg64
(lp4270
Nasbasbasbag57
(g73
g59
NtRp4271
(dp4272
g62
(dp4273
sg71
g4230
sg64
(lp4274
g57
(g78
g59
NtRp4275
(dp4276
g62
(dp4277
sg71
g4271
sg64
(lp4278
g57
(g58
g59
NtRp4279
(dp4280
g62
(dp4281
g70
I1
ssg71
g4275
sg64
(lp4282
(lp4283
(S'plugin_wiki'
p4284
I00
S'http://web2py.com/examples/default/download'
p4285
tp4286
a(g3671
(S's\r\x00\x00\x00Other Plugins'
tRp4287
I00
g4017
tp4288
a(g3671
(S's\x0e\x00\x00\x00Layout Plugins'
tRp4289
I00
g4020
tp4290
aasbasbasbasbasbasbasbasbasbasbasbasbasbasbasbasbasbasbasbag57
(g73
g59
NtRp4291
(dp4292
g62
(dp4293
sg71
g3115
sg64
(lp4294
g57
(g78
g59
NtRp4295
(dp4296
g62
(dp4297
g82
g83
ssg71
g4291
sg64
(lp4298
S'meta'
p4299
asbag57
(g78
g59
NtRp4300
(dp4301
g62
(dp4302
g89
g90
ssg71
g4291
sg64
(lp4303
S':'
asbag57
(g78
g59
NtRp4304
(dp4305
g62
(dp4306
sg71
g4291
sg64
(lp4307
g57
(g58
g59
NtRp4308
(dp4309
g62
(dp4310
g70
I5
ssg71
g4304
sg64
(lp4311
g57
(g66
g59
NtRp4312
(dp4313
g62
(dp4314
g70
I4
ssg71
Nsg64
(lp4315
g57
(g73
g59
NtRp4316
(dp4317
g62
(dp4318
sg71
g4312
sg64
(lp4319
g57
(g78
g59
NtRp4320
(dp4321
g62
(dp4322
g82
g83
ssg71
g4316
sg64
(lp4323
S'author'
p4324
asbag57
(g78
g59
NtRp4325
(dp4326
g62
(dp4327
g89
g90
ssg71
g4316
sg64
(lp4328
S':'
asbag57
(g78
g59
NtRp4329
(dp4330
g62
(dp4331
sg71
g4316
sg64
(lp4332
g57
(g58
g59
NtRp4333
(dp4334
g62
(dp4335
g70
I4
ssg71
g4329
sg64
(lp4336
S'Your Name <you@example.com>'
p4337
asbasbasbag57
(g73
g59
NtRp4338
(dp4339
g62
(dp4340
sg71
g4312
sg64
(lp4341
g57
(g78
g59
NtRp4342
(dp4343
g62
(dp4344
g82
g83
ssg71
g4338
sg64
(lp4345
S'copyright'
p4346
asbag57
(g78
g59
NtRp4347
(dp4348
g62
(dp4349
g89
g90
ssg71
g4338
sg64
(lp4350
S':'
asbag57
(g78
g59
NtRp4351
(dp4352
g62
(dp4353
sg71
g4338
sg64
(lp4354
g57
(g58
g59
NtRp4355
(dp4356
g62
(dp4357
g70
I4
ssg71
g4351
sg64
(lp4358
S'Copyright 2011'
p4359
asbasbasbag57
(g73
g59
NtRp4360
(dp4361
g62
(dp4362
sg71
g4312
sg64
(lp4363
g57
(g78
g59
NtRp4364
(dp4365
g62
(dp4366
g82
g83
ssg71
g4360
sg64
(lp4367
S'description'
p4368
asbag57
(g78
g59
NtRp4369
(dp4370
g62
(dp4371
g89
g90
ssg71
g4360
sg64
(lp4372
S':'
asbag57
(g78
g59
NtRp4373
(dp4374
g62
(dp4375
sg71
g4360
sg64
(lp4376
g57
(g58
g59
NtRp4377
(dp4378
g62
(dp4379
g70
I4
ssg71
g4373
sg64
(lp4380
S'a cool new app'
p4381
asbasbasbag57
(g73
g59
NtRp4382
(dp4383
g62
(dp4384
sg71
g4312
sg64
(lp4385
g57
(g78
g59
NtRp4386
(dp4387
g62
(dp4388
g82
g83
ssg71
g4382
sg64
(lp4389
S'generator'
p4390
asbag57
(g78
g59
NtRp4391
(dp4392
g62
(dp4393
g89
g90
ssg71
g4382
sg64
(lp4394
S':'
asbag57
(g78
g59
NtRp4395
(dp4396
g62
(dp4397
sg71
g4382
sg64
(lp4398
g57
(g58
g59
NtRp4399
(dp4400
g62
(dp4401
g70
I4
ssg71
g4395
sg64
(lp4402
S'Web2py Web Framework'
p4403
asbasbasbag57
(g73
g59
NtRp4404
(dp4405
g62
(dp4406
sg71
g4312
sg64
(lp4407
g57
(g78
g59
NtRp4408
(dp4409
g62
(dp4410
g82
g83
ssg71
g4404
sg64
(lp4411
S'keywords'
p4412
asbag57
(g78
g59
NtRp4413
(dp4414
g62
(dp4415
g89
g90
ssg71
g4404
sg64
(lp4416
S':'
asbag57
(g78
g59
NtRp4417
(dp4418
g62
(dp4419
sg71
g4404
sg64
(lp4420
g57
(g58
g59
NtRp4421
(dp4422
g62
(dp4423
g70
I4
ssg71
g4417
sg64
(lp4424
S'web2py, python, framework'
p4425
asbasbasbasbasbasbasbag57
(g73
g59
NtRp4426
(dp4427
g62
(dp4428
sg71
g3115
sg64
(lp4429
g57
(g78
g59
NtRp4430
(dp4431
g62
(dp4432
g82
g83
ssg71
g4426
sg64
(lp4433
S'postprocessing'
p4434
asbag57
(g78
g59
NtRp4435
(dp4436
g62
(dp4437
g89
g90
ssg71
g4426
sg64
(lp4438
S':'
asbag57
(g78
g59
NtRp4439
(dp4440
g62
(dp4441
sg71
g4426
sg64
(lp4442
g57
(g58
g59
NtRp4443
(dp4444
g62
(dp4445
g70
I5
ssg71
g4439
sg64
(lp4446
g57
(g66
g59
NtRp4447
(dp4448
g62
(dp4449
g70
I4
ssg71
Nsg64
(lp4450
sbasbasbasbag57
(g73
g59
NtRp4451
(dp4452
g62
(dp4453
sg71
g3115
sg64
(lp4454
g57
(g78
g59
NtRp4455
(dp4456
g62
(dp4457
g82
g83
ssg71
g4451
sg64
(lp4458
S'session_file'
p4459
asbag57
(g78
g59
NtRp4460
(dp4461
g62
(dp4462
g89
g90
ssg71
g4451
sg64
(lp4463
S':'
asbag57
(g78
g59
NtRp4464
(dp4465
g62
(dp4466
sg71
g4451
sg64
(lp4467
g57
(g58
g59
NtRp4468
(dp4469
g62
(dp4470
g70
I5
ssg71
g4464
sg64
(lp4471
S"<open file '/home/fish/Desktop/web2py/applications/vsalad/sessions/127.0.0.1-65c5fec7-9058-48a5-9599-65c6d4c50931', mode 'rb+' at 0x2ea5930>"
p4472
asbasbasbag57
(g73
g59
NtRp4473
(dp4474
g62
(dp4475
sg71
g3115
sg64
(lp4476
g57
(g78
g59
NtRp4477
(dp4478
g62
(dp4479
g82
g83
ssg71
g4473
sg64
(lp4480
S'session_filename'
p4481
asbag57
(g78
g59
NtRp4482
(dp4483
g62
(dp4484
g89
g90
ssg71
g4473
sg64
(lp4485
S':'
asbag57
(g78
g59
NtRp4486
(dp4487
g62
(dp4488
sg71
g4473
sg64
(lp4489
g57
(g58
g59
NtRp4490
(dp4491
g62
(dp4492
g70
I5
ssg71
g4486
sg64
(lp4493
S'/home/fish/Desktop/web2py/applications/vsalad/sessions/127.0.0.1-65c5fec7-9058-48a5-9599-65c6d4c50931'
p4494
asbasbasbag57
(g73
g59
NtRp4495
(dp4496
g62
(dp4497
sg71
g3115
sg64
(lp4498
g57
(g78
g59
NtRp4499
(dp4500
g62
(dp4501
g82
g83
ssg71
g4495
sg64
(lp4502
S'session_id'
p4503
asbag57
(g78
g59
NtRp4504
(dp4505
g62
(dp4506
g89
g90
ssg71
g4495
sg64
(lp4507
S':'
asbag57
(g78
g59
NtRp4508
(dp4509
g62
(dp4510
sg71
g4495
sg64
(lp4511
g57
(g58
g59
NtRp4512
(dp4513
g62
(dp4514
g70
I5
ssg71
g4508
sg64
(lp4515
S'127.0.0.1-65c5fec7-9058-48a5-9599-65c6d4c50931'
p4516
asbasbasbag57
(g73
g59
NtRp4517
(dp4518
g62
(dp4519
sg71
g3115
sg64
(lp4520
g57
(g78
g59
NtRp4521
(dp4522
g62
(dp4523
g82
g83
ssg71
g4517
sg64
(lp4524
S'session_id_name'
p4525
asbag57
(g78
g59
NtRp4526
(dp4527
g62
(dp4528
g89
g90
ssg71
g4517
sg64
(lp4529
S':'
asbag57
(g78
g59
NtRp4530
(dp4531
g62
(dp4532
sg71
g4517
sg64
(lp4533
g57
(g58
g59
NtRp4534
(dp4535
g62
(dp4536
g70
I5
ssg71
g4530
sg64
(lp4537
g3172
asbasbasbag57
(g73
g59
NtRp4538
(dp4539
g62
(dp4540
sg71
g3115
sg64
(lp4541
g57
(g78
g59
NtRp4542
(dp4543
g62
(dp4544
g82
g83
ssg71
g4538
sg64
(lp4545
S'session_locked'
p4546
asbag57
(g78
g59
NtRp4547
(dp4548
g62
(dp4549
g89
g90
ssg71
g4538
sg64
(lp4550
S':'
asbag57
(g78
g59
NtRp4551
(dp4552
g62
(dp4553
sg71
g4538
sg64
(lp4554
g57
(g58
g59
NtRp4555
(dp4556
g62
(dp4557
g70
I5
ssg71
g4551
sg64
(lp4558
g1668
asbasbasbag57
(g73
g59
NtRp4559
(dp4560
g62
(dp4561
sg71
g3115
sg64
(lp4562
g57
(g78
g59
NtRp4563
(dp4564
g62
(dp4565
g82
g83
ssg71
g4559
sg64
(lp4566
S'session_new'
p4567
asbag57
(g78
g59
NtRp4568
(dp4569
g62
(dp4570
g89
g90
ssg71
g4559
sg64
(lp4571
S':'
asbag57
(g78
g59
NtRp4572
(dp4573
g62
(dp4574
sg71
g4559
sg64
(lp4575
g57
(g58
g59
NtRp4576
(dp4577
g62
(dp4578
g70
I5
ssg71
g4572
sg64
(lp4579
g100
asbasbasbag57
(g73
g59
NtRp4580
(dp4581
g62
(dp4582
sg71
g3115
sg64
(lp4583
g57
(g78
g59
NtRp4584
(dp4585
g62
(dp4586
g82
g83
ssg71
g4580
sg64
(lp4587
S'status'
p4588
asbag57
(g78
g59
NtRp4589
(dp4590
g62
(dp4591
g89
g90
ssg71
g4580
sg64
(lp4592
S':'
asbag57
(g78
g59
NtRp4593
(dp4594
g62
(dp4595
sg71
g4580
sg64
(lp4596
g57
(g58
g59
NtRp4597
(dp4598
g62
(dp4599
g70
I5
ssg71
g4593
sg64
(lp4600
S'200'
p4601
asbasbasbag57
(g73
g59
NtRp4602
(dp4603
g62
(dp4604
sg71
g3115
sg64
(lp4605
g57
(g78
g59
NtRp4606
(dp4607
g62
(dp4608
g82
g83
ssg71
g4602
sg64
(lp4609
S'subtitle'
p4610
asbag57
(g78
g59
NtRp4611
(dp4612
g62
(dp4613
g89
g90
ssg71
g4602
sg64
(lp4614
S':'
asbag57
(g78
g59
NtRp4615
(dp4616
g62
(dp4617
sg71
g4602
sg64
(lp4618
g57
(g58
g59
NtRp4619
(dp4620
g62
(dp4621
g70
I5
ssg71
g4615
sg64
(lp4622
g3671
(S's\r\x00\x00\x00customize me!'
tRp4623
asbasbasbag57
(g73
g59
NtRp4624
(dp4625
g62
(dp4626
sg71
g3115
sg64
(lp4627
g57
(g78
g59
NtRp4628
(dp4629
g62
(dp4630
g82
g83
ssg71
g4624
sg64
(lp4631
S'title'
p4632
asbag57
(g78
g59
NtRp4633
(dp4634
g62
(dp4635
g89
g90
ssg71
g4624
sg64
(lp4636
S':'
asbag57
(g78
g59
NtRp4637
(dp4638
g62
(dp4639
sg71
g4624
sg64
(lp4640
g57
(g58
g59
NtRp4641
(dp4642
g62
(dp4643
g70
I5
ssg71
g4637
sg64
(lp4644
S'Vsalad'
p4645
asbasbasbag57
(g73
g59
NtRp4646
(dp4647
g62
(dp4648
sg71
g3115
sg64
(lp4649
g57
(g78
g59
NtRp4650
(dp4651
g62
(dp4652
g82
g83
ssg71
g4646
sg64
(lp4653
g2353
asbag57
(g78
g59
NtRp4654
(dp4655
g62
(dp4656
g89
g90
ssg71
g4646
sg64
(lp4657
S':'
asbag57
(g78
g59
NtRp4658
(dp4659
g62
(dp4660
sg71
g4646
sg64
(lp4661
g57
(g58
g59
NtRp4662
(dp4663
g62
(dp4664
g70
I5
ssg71
g4658
sg64
(lp4665
g2366
asbasbasbag57
(g73
g59
NtRp4666
(dp4667
g62
(dp4668
sg71
g3115
sg64
(lp4669
g57
(g78
g59
NtRp4670
(dp4671
g62
(dp4672
g82
g83
ssg71
g4666
sg64
(lp4673
S'view'
p4674
asbag57
(g78
g59
NtRp4675
(dp4676
g62
(dp4677
g89
g90
ssg71
g4666
sg64
(lp4678
S':'
asbag57
(g78
g59
NtRp4679
(dp4680
g62
(dp4681
sg71
g4666
sg64
(lp4682
g57
(g58
g59
NtRp4683
(dp4684
g62
(dp4685
g70
I5
ssg71
g4679
sg64
(lp4686
S'default/article.html'
p4687
asbasbasbasbasbsS'locals'
p4688
(dp4689
S't'
S'None'
p4690
sssS'traceback'
p4691
S'Traceback (most recent call last):\n  File "/home/fish/Desktop/web2py/gluon/restricted.py", line 205, in restricted\n    exec ccode in environment\n  File "/home/fish/Desktop/web2py/applications/vsalad/controllers/default.py", line 81, in <module>\n  File "/home/fish/Desktop/web2py/gluon/globals.py", line 173, in <lambda>\n    self._caller = lambda f: f()\n  File "/home/fish/Desktop/web2py/applications/vsalad/controllers/default.py", line 71, in article\n    return dict(title=t.title, content=t.content)\nAttributeError: \'NoneType\' object has no attribute \'title\'\n'
p4692
s.