(dp1
S'output'
p2
S"<type 'exceptions.NameError'> name 'title' is not defined"
p3
sS'layer'
p4
S'/home/fish/Desktop/web2py/applications/vsalad/views/default/article.html'
p5
sS'code'
p6
S'response.write(\'<html lang="en">\\n<head>\\n    <script src="\', escape=False)\nresponse.write(URL(\'static\',\'js/jquery.js\'))\nresponse.write(\'"></script>\\n    <script src="\', escape=False)\nresponse.write(URL(\'static\',\'js/vsalad.js\'))\nresponse.write(\'"></script>\\n    <link rel="stylesheet" href="\', escape=False)\nresponse.write(URL(\'static\',\'css/vs.css\'))\nresponse.write(\'"></link>\\n    <meta charset="utf-8">\\n    <title>Voodoo Salad</title>\\n    <meta name="viewport" content="width=device-width, initial-scale=1.0">\\n    <meta name="description" content="">\\n    <meta name="author" content="">\\n\\n    <!-- Styles -->\\n    <link href="\', escape=False)\nresponse.write(URL(\'static\',\'css/bootstrap.css\'))\nresponse.write(\'" rel="stylesheet">\\n    <link href="\', escape=False)\nresponse.write(URL(\'static\',\'css/bootstrap-responsive.css\'))\nresponse.write(\'" rel="stylesheet">\\n\\n  \\n</head>\\n<body>\\n<div id="welcome-panel" class="hero-unit row">\\n            \\n\\n\\n        <div id="title">\\n                <h1 class="voodoo span">V&#3232;&#3232;doo {</h1> \\n                <a class="span" href=""><img src="\', escape=False)\nresponse.write(URL(\'static\', \'images/vfish.jpg\'))\nresponse.write(\'"/></a>\\n                 <h1 class="tuna span">} Tuna</h1>\\n       </div>\\n    </div>\\n\\n\\n\', escape=False)\nresponse.write(\'\\n<div id="content" class="row">\\n\', escape=False)\nif request.args(0):\n    response.write("\\n  <div id=\'article\'>\\n    <h1>", escape=False)\n    response.write(title)\n    response.write(" </h1>\\n    </div>\\n    <div id=\'user-text\'>\\n    <p>", escape=False)\n    response.write(content)\n    response.write(\'</p>\\n    </div>\\n\', escape=False)\n    pass\nresponse.write(\'\\n</div>\\n\', escape=False)\nresponse.write(\'\\n</body>\\n</html>\\n\', escape=False)'
p7
sS'snapshot'
p8
(dp9
S'exception'
p10
(dp11
S'__hash__'
p12
S"<method-wrapper '__hash__' of exceptions.NameError object>"
p13
sS'__setattr__'
p14
S"<method-wrapper '__setattr__' of exceptions.NameError object>"
p15
sS'__reduce_ex__'
p16
S'<built-in method __reduce_ex__ of exceptions.NameError object>'
p17
sS'__getslice__'
p18
S"<method-wrapper '__getslice__' of exceptions.NameError object>"
p19
sS'__getitem__'
p20
S"<method-wrapper '__getitem__' of exceptions.NameError object>"
p21
sS'__setstate__'
p22
S'<built-in method __setstate__ of exceptions.NameError object>'
p23
sS'args'
p24
S'("name \'title\' is not defined",)'
p25
sS'__reduce__'
p26
S'<built-in method __reduce__ of exceptions.NameError object>'
p27
sS'__str__'
p28
S"<method-wrapper '__str__' of exceptions.NameError object>"
p29
sS'__format__'
p30
S'<built-in method __format__ of exceptions.NameError object>'
p31
sS'__getattribute__'
p32
S"<method-wrapper '__getattribute__' of exceptions.NameError object>"
p33
sS'__class__'
p34
S"<type 'exceptions.NameError'>"
p35
sS'__unicode__'
p36
S'<built-in method __unicode__ of exceptions.NameError object>'
p37
sS'__delattr__'
p38
S"<method-wrapper '__delattr__' of exceptions.NameError object>"
p39
sS'__subclasshook__'
p40
S'<built-in method __subclasshook__ of type object>'
p41
sS'__repr__'
p42
S"<method-wrapper '__repr__' of exceptions.NameError object>"
p43
sS'__dict__'
p44
S'{}'
p45
sS'__sizeof__'
p46
S'<built-in method __sizeof__ of exceptions.NameError object>'
p47
sS'__doc__'
p48
S"'Name not found globally.'"
p49
sS'__init__'
p50
S"<method-wrapper '__init__' of exceptions.NameError object>"
p51
sS'__new__'
p52
S'<built-in method __new__ of type object>'
p53
ssS'evalue'
p54
S"name 'title' is not defined"
p55
sS'request'
p56
ccopy_reg
_reconstructor
p57
(cgluon.html
BEAUTIFY
p58
c__builtin__
object
p59
NtRp60
(dp61
S'attributes'
p62
(dp63
sS'components'
p64
(lp65
g57
(cgluon.html
TABLE
p66
g59
NtRp67
(dp68
g62
(dp69
S'level'
p70
I5
ssS'parent'
p71
Nsg64
(lp72
g57
(cgluon.html
TR
p73
g59
NtRp74
(dp75
g62
(dp76
sg71
g67
sg64
(lp77
g57
(cgluon.html
TD
p78
g59
NtRp79
(dp80
g62
(dp81
S'_style'
p82
S'font-weight:bold;vertical-align:top'
p83
ssg71
g74
sg64
(lp84
S'ajax'
p85
asbag57
(g78
g59
NtRp86
(dp87
g62
(dp88
S'_valign'
p89
S'top'
p90
ssg71
g74
sg64
(lp91
S':'
asbag57
(g78
g59
NtRp92
(dp93
g62
(dp94
sg71
g74
sg64
(lp95
g57
(g58
g59
NtRp96
(dp97
g62
(dp98
g70
I5
ssg71
g92
sg64
(lp99
S'False'
p100
asbasbasbag57
(g73
g59
NtRp101
(dp102
g62
(dp103
sg71
g67
sg64
(lp104
g57
(g78
g59
NtRp105
(dp106
g62
(dp107
g82
g83
ssg71
g101
sg64
(lp108
S'application'
p109
asbag57
(g78
g59
NtRp110
(dp111
g62
(dp112
g89
g90
ssg71
g101
sg64
(lp113
S':'
asbag57
(g78
g59
NtRp114
(dp115
g62
(dp116
sg71
g101
sg64
(lp117
g57
(g58
g59
NtRp118
(dp119
g62
(dp120
g70
I5
ssg71
g114
sg64
(lp121
S'vsalad'
p122
asbasbasbag57
(g73
g59
NtRp123
(dp124
g62
(dp125
sg71
g67
sg64
(lp126
g57
(g78
g59
NtRp127
(dp128
g62
(dp129
g82
g83
ssg71
g123
sg64
(lp130
g24
asbag57
(g78
g59
NtRp131
(dp132
g62
(dp133
g89
g90
ssg71
g123
sg64
(lp134
S':'
asbag57
(g78
g59
NtRp135
(dp136
g62
(dp137
sg71
g123
sg64
(lp138
g57
(g58
g59
NtRp139
(dp140
g62
(dp141
g70
I5
ssg71
g135
sg64
(lp142
g57
(g66
g59
NtRp143
(dp144
g62
(dp145
g70
I4
ssg71
Nsg64
(lp146
g57
(g73
g59
NtRp147
(dp148
g62
(dp149
sg71
g143
sg64
(lp150
g57
(g78
g59
NtRp151
(dp152
g62
(dp153
sg71
g147
sg64
(lp154
g57
(g58
g59
NtRp155
(dp156
g62
(dp157
g70
I4
ssg71
g151
sg64
(lp158
S'4'
asbasbasbag57
(g73
g59
NtRp159
(dp160
g62
(dp161
sg71
g143
sg64
(lp162
g57
(g78
g59
NtRp163
(dp164
g62
(dp165
sg71
g159
sg64
(lp166
g57
(g58
g59
NtRp167
(dp168
g62
(dp169
g70
I4
ssg71
g163
sg64
(lp170
S''
asbasbasbasbasbasbasbag57
(g73
g59
NtRp171
(dp172
g62
(dp173
sg71
g67
sg64
(lp174
g57
(g78
g59
NtRp175
(dp176
g62
(dp177
g82
g83
ssg71
g171
sg64
(lp178
S'body'
p179
asbag57
(g78
g59
NtRp180
(dp181
g62
(dp182
g89
g90
ssg71
g171
sg64
(lp183
S':'
asbag57
(g78
g59
NtRp184
(dp185
g62
(dp186
sg71
g171
sg64
(lp187
g57
(g58
g59
NtRp188
(dp189
g62
(dp190
g70
I5
ssg71
g184
sg64
(lp191
S'<cStringIO.StringO object at 0x3215340>'
p192
asbasbasbag57
(g73
g59
NtRp193
(dp194
g62
(dp195
sg71
g67
sg64
(lp196
g57
(g78
g59
NtRp197
(dp198
g62
(dp199
g82
g83
ssg71
g193
sg64
(lp200
S'client'
p201
asbag57
(g78
g59
NtRp202
(dp203
g62
(dp204
g89
g90
ssg71
g193
sg64
(lp205
S':'
asbag57
(g78
g59
NtRp206
(dp207
g62
(dp208
sg71
g193
sg64
(lp209
g57
(g58
g59
NtRp210
(dp211
g62
(dp212
g70
I5
ssg71
g206
sg64
(lp213
S'127.0.0.1'
p214
asbasbasbag57
(g73
g59
NtRp215
(dp216
g62
(dp217
sg71
g67
sg64
(lp218
g57
(g78
g59
NtRp219
(dp220
g62
(dp221
g82
g83
ssg71
g215
sg64
(lp222
S'controller'
p223
asbag57
(g78
g59
NtRp224
(dp225
g62
(dp226
g89
g90
ssg71
g215
sg64
(lp227
S':'
asbag57
(g78
g59
NtRp228
(dp229
g62
(dp230
sg71
g215
sg64
(lp231
g57
(g58
g59
NtRp232
(dp233
g62
(dp234
g70
I5
ssg71
g228
sg64
(lp235
S'default'
p236
asbasbasbag57
(g73
g59
NtRp237
(dp238
g62
(dp239
sg71
g67
sg64
(lp240
g57
(g78
g59
NtRp241
(dp242
g62
(dp243
g82
g83
ssg71
g237
sg64
(lp244
S'cookies'
p245
asbag57
(g78
g59
NtRp246
(dp247
g62
(dp248
g89
g90
ssg71
g237
sg64
(lp249
S':'
asbag57
(g78
g59
NtRp250
(dp251
g62
(dp252
sg71
g237
sg64
(lp253
g57
(g58
g59
NtRp254
(dp255
g62
(dp256
g70
I5
ssg71
g250
sg64
(lp257
g57
(g66
g59
NtRp258
(dp259
g62
(dp260
g70
I4
ssg71
Nsg64
(lp261
g57
(g73
g59
NtRp262
(dp263
g62
(dp264
sg71
g258
sg64
(lp265
g57
(g78
g59
NtRp266
(dp267
g62
(dp268
g82
g83
ssg71
g262
sg64
(lp269
S'session_id_admin'
p270
asbag57
(g78
g59
NtRp271
(dp272
g62
(dp273
g89
g90
ssg71
g262
sg64
(lp274
S':'
asbag57
(g78
g59
NtRp275
(dp276
g62
(dp277
sg71
g262
sg64
(lp278
g57
(g58
g59
NtRp279
(dp280
g62
(dp281
g70
I4
ssg71
g275
sg64
(lp282
g57
(g66
g59
NtRp283
(dp284
g62
(dp285
g70
I3
ssg71
Nsg64
(lp286
g57
(g73
g59
NtRp287
(dp288
g62
(dp289
sg71
g283
sg64
(lp290
g57
(g78
g59
NtRp291
(dp292
g62
(dp293
g82
g83
ssg71
g287
sg64
(lp294
S'comment'
p295
asbag57
(g78
g59
NtRp296
(dp297
g62
(dp298
g89
g90
ssg71
g287
sg64
(lp299
S':'
asbag57
(g78
g59
NtRp300
(dp301
g62
(dp302
sg71
g287
sg64
(lp303
g57
(g58
g59
NtRp304
(dp305
g62
(dp306
g70
I3
ssg71
g300
sg64
(lp307
S''
asbasbasbag57
(g73
g59
NtRp308
(dp309
g62
(dp310
sg71
g283
sg64
(lp311
g57
(g78
g59
NtRp312
(dp313
g62
(dp314
g82
g83
ssg71
g308
sg64
(lp315
S'domain'
p316
asbag57
(g78
g59
NtRp317
(dp318
g62
(dp319
g89
g90
ssg71
g308
sg64
(lp320
S':'
asbag57
(g78
g59
NtRp321
(dp322
g62
(dp323
sg71
g308
sg64
(lp324
g57
(g58
g59
NtRp325
(dp326
g62
(dp327
g70
I3
ssg71
g321
sg64
(lp328
S''
asbasbasbag57
(g73
g59
NtRp329
(dp330
g62
(dp331
sg71
g283
sg64
(lp332
g57
(g78
g59
NtRp333
(dp334
g62
(dp335
g82
g83
ssg71
g329
sg64
(lp336
S'expires'
p337
asbag57
(g78
g59
NtRp338
(dp339
g62
(dp340
g89
g90
ssg71
g329
sg64
(lp341
S':'
asbag57
(g78
g59
NtRp342
(dp343
g62
(dp344
sg71
g329
sg64
(lp345
g57
(g58
g59
NtRp346
(dp347
g62
(dp348
g70
I3
ssg71
g342
sg64
(lp349
S''
asbasbasbag57
(g73
g59
NtRp350
(dp351
g62
(dp352
sg71
g283
sg64
(lp353
g57
(g78
g59
NtRp354
(dp355
g62
(dp356
g82
g83
ssg71
g350
sg64
(lp357
S'httponly'
p358
asbag57
(g78
g59
NtRp359
(dp360
g62
(dp361
g89
g90
ssg71
g350
sg64
(lp362
S':'
asbag57
(g78
g59
NtRp363
(dp364
g62
(dp365
sg71
g350
sg64
(lp366
g57
(g58
g59
NtRp367
(dp368
g62
(dp369
g70
I3
ssg71
g363
sg64
(lp370
S''
asbasbasbag57
(g73
g59
NtRp371
(dp372
g62
(dp373
sg71
g283
sg64
(lp374
g57
(g78
g59
NtRp375
(dp376
g62
(dp377
g82
g83
ssg71
g371
sg64
(lp378
S'max-age'
p379
asbag57
(g78
g59
NtRp380
(dp381
g62
(dp382
g89
g90
ssg71
g371
sg64
(lp383
S':'
asbag57
(g78
g59
NtRp384
(dp385
g62
(dp386
sg71
g371
sg64
(lp387
g57
(g58
g59
NtRp388
(dp389
g62
(dp390
g70
I3
ssg71
g384
sg64
(lp391
S''
asbasbasbag57
(g73
g59
NtRp392
(dp393
g62
(dp394
sg71
g283
sg64
(lp395
g57
(g78
g59
NtRp396
(dp397
g62
(dp398
g82
g83
ssg71
g392
sg64
(lp399
S'path'
p400
asbag57
(g78
g59
NtRp401
(dp402
g62
(dp403
g89
g90
ssg71
g392
sg64
(lp404
S':'
asbag57
(g78
g59
NtRp405
(dp406
g62
(dp407
sg71
g392
sg64
(lp408
g57
(g58
g59
NtRp409
(dp410
g62
(dp411
g70
I3
ssg71
g405
sg64
(lp412
S''
asbasbasbag57
(g73
g59
NtRp413
(dp414
g62
(dp415
sg71
g283
sg64
(lp416
g57
(g78
g59
NtRp417
(dp418
g62
(dp419
g82
g83
ssg71
g413
sg64
(lp420
S'secure'
p421
asbag57
(g78
g59
NtRp422
(dp423
g62
(dp424
g89
g90
ssg71
g413
sg64
(lp425
S':'
asbag57
(g78
g59
NtRp426
(dp427
g62
(dp428
sg71
g413
sg64
(lp429
g57
(g58
g59
NtRp430
(dp431
g62
(dp432
g70
I3
ssg71
g426
sg64
(lp433
S''
asbasbasbag57
(g73
g59
NtRp434
(dp435
g62
(dp436
sg71
g283
sg64
(lp437
g57
(g78
g59
NtRp438
(dp439
g62
(dp440
g82
g83
ssg71
g434
sg64
(lp441
S'version'
p442
asbag57
(g78
g59
NtRp443
(dp444
g62
(dp445
g89
g90
ssg71
g434
sg64
(lp446
S':'
asbag57
(g78
g59
NtRp447
(dp448
g62
(dp449
sg71
g434
sg64
(lp450
g57
(g58
g59
NtRp451
(dp452
g62
(dp453
g70
I3
ssg71
g447
sg64
(lp454
S''
asbasbasbasbasbasbasbag57
(g73
g59
NtRp455
(dp456
g62
(dp457
sg71
g258
sg64
(lp458
g57
(g78
g59
NtRp459
(dp460
g62
(dp461
g82
g83
ssg71
g455
sg64
(lp462
S'session_id_vsalad'
p463
asbag57
(g78
g59
NtRp464
(dp465
g62
(dp466
g89
g90
ssg71
g455
sg64
(lp467
S':'
asbag57
(g78
g59
NtRp468
(dp469
g62
(dp470
sg71
g455
sg64
(lp471
g57
(g58
g59
NtRp472
(dp473
g62
(dp474
g70
I4
ssg71
g468
sg64
(lp475
g57
(g66
g59
NtRp476
(dp477
g62
(dp478
g70
I3
ssg71
Nsg64
(lp479
g57
(g73
g59
NtRp480
(dp481
g62
(dp482
sg71
g476
sg64
(lp483
g57
(g78
g59
NtRp484
(dp485
g62
(dp486
g82
g83
ssg71
g480
sg64
(lp487
g295
asbag57
(g78
g59
NtRp488
(dp489
g62
(dp490
g89
g90
ssg71
g480
sg64
(lp491
S':'
asbag57
(g78
g59
NtRp492
(dp493
g62
(dp494
sg71
g480
sg64
(lp495
g57
(g58
g59
NtRp496
(dp497
g62
(dp498
g70
I3
ssg71
g492
sg64
(lp499
S''
asbasbasbag57
(g73
g59
NtRp500
(dp501
g62
(dp502
sg71
g476
sg64
(lp503
g57
(g78
g59
NtRp504
(dp505
g62
(dp506
g82
g83
ssg71
g500
sg64
(lp507
g316
asbag57
(g78
g59
NtRp508
(dp509
g62
(dp510
g89
g90
ssg71
g500
sg64
(lp511
S':'
asbag57
(g78
g59
NtRp512
(dp513
g62
(dp514
sg71
g500
sg64
(lp515
g57
(g58
g59
NtRp516
(dp517
g62
(dp518
g70
I3
ssg71
g512
sg64
(lp519
S''
asbasbasbag57
(g73
g59
NtRp520
(dp521
g62
(dp522
sg71
g476
sg64
(lp523
g57
(g78
g59
NtRp524
(dp525
g62
(dp526
g82
g83
ssg71
g520
sg64
(lp527
g337
asbag57
(g78
g59
NtRp528
(dp529
g62
(dp530
g89
g90
ssg71
g520
sg64
(lp531
S':'
asbag57
(g78
g59
NtRp532
(dp533
g62
(dp534
sg71
g520
sg64
(lp535
g57
(g58
g59
NtRp536
(dp537
g62
(dp538
g70
I3
ssg71
g532
sg64
(lp539
S''
asbasbasbag57
(g73
g59
NtRp540
(dp541
g62
(dp542
sg71
g476
sg64
(lp543
g57
(g78
g59
NtRp544
(dp545
g62
(dp546
g82
g83
ssg71
g540
sg64
(lp547
g358
asbag57
(g78
g59
NtRp548
(dp549
g62
(dp550
g89
g90
ssg71
g540
sg64
(lp551
S':'
asbag57
(g78
g59
NtRp552
(dp553
g62
(dp554
sg71
g540
sg64
(lp555
g57
(g58
g59
NtRp556
(dp557
g62
(dp558
g70
I3
ssg71
g552
sg64
(lp559
S''
asbasbasbag57
(g73
g59
NtRp560
(dp561
g62
(dp562
sg71
g476
sg64
(lp563
g57
(g78
g59
NtRp564
(dp565
g62
(dp566
g82
g83
ssg71
g560
sg64
(lp567
g379
asbag57
(g78
g59
NtRp568
(dp569
g62
(dp570
g89
g90
ssg71
g560
sg64
(lp571
S':'
asbag57
(g78
g59
NtRp572
(dp573
g62
(dp574
sg71
g560
sg64
(lp575
g57
(g58
g59
NtRp576
(dp577
g62
(dp578
g70
I3
ssg71
g572
sg64
(lp579
S''
asbasbasbag57
(g73
g59
NtRp580
(dp581
g62
(dp582
sg71
g476
sg64
(lp583
g57
(g78
g59
NtRp584
(dp585
g62
(dp586
g82
g83
ssg71
g580
sg64
(lp587
g400
asbag57
(g78
g59
NtRp588
(dp589
g62
(dp590
g89
g90
ssg71
g580
sg64
(lp591
S':'
asbag57
(g78
g59
NtRp592
(dp593
g62
(dp594
sg71
g580
sg64
(lp595
g57
(g58
g59
NtRp596
(dp597
g62
(dp598
g70
I3
ssg71
g592
sg64
(lp599
S''
asbasbasbag57
(g73
g59
NtRp600
(dp601
g62
(dp602
sg71
g476
sg64
(lp603
g57
(g78
g59
NtRp604
(dp605
g62
(dp606
g82
g83
ssg71
g600
sg64
(lp607
g421
asbag57
(g78
g59
NtRp608
(dp609
g62
(dp610
g89
g90
ssg71
g600
sg64
(lp611
S':'
asbag57
(g78
g59
NtRp612
(dp613
g62
(dp614
sg71
g600
sg64
(lp615
g57
(g58
g59
NtRp616
(dp617
g62
(dp618
g70
I3
ssg71
g612
sg64
(lp619
S''
asbasbasbag57
(g73
g59
NtRp620
(dp621
g62
(dp622
sg71
g476
sg64
(lp623
g57
(g78
g59
NtRp624
(dp625
g62
(dp626
g82
g83
ssg71
g620
sg64
(lp627
g442
asbag57
(g78
g59
NtRp628
(dp629
g62
(dp630
g89
g90
ssg71
g620
sg64
(lp631
S':'
asbag57
(g78
g59
NtRp632
(dp633
g62
(dp634
sg71
g620
sg64
(lp635
g57
(g58
g59
NtRp636
(dp637
g62
(dp638
g70
I3
ssg71
g632
sg64
(lp639
S''
asbasbasbasbasbasbasbag57
(g73
g59
NtRp640
(dp641
g62
(dp642
sg71
g258
sg64
(lp643
g57
(g78
g59
NtRp644
(dp645
g62
(dp646
g82
g83
ssg71
g640
sg64
(lp647
S'session_id_welcome'
p648
asbag57
(g78
g59
NtRp649
(dp650
g62
(dp651
g89
g90
ssg71
g640
sg64
(lp652
S':'
asbag57
(g78
g59
NtRp653
(dp654
g62
(dp655
sg71
g640
sg64
(lp656
g57
(g58
g59
NtRp657
(dp658
g62
(dp659
g70
I4
ssg71
g653
sg64
(lp660
g57
(g66
g59
NtRp661
(dp662
g62
(dp663
g70
I3
ssg71
Nsg64
(lp664
g57
(g73
g59
NtRp665
(dp666
g62
(dp667
sg71
g661
sg64
(lp668
g57
(g78
g59
NtRp669
(dp670
g62
(dp671
g82
g83
ssg71
g665
sg64
(lp672
g295
asbag57
(g78
g59
NtRp673
(dp674
g62
(dp675
g89
g90
ssg71
g665
sg64
(lp676
S':'
asbag57
(g78
g59
NtRp677
(dp678
g62
(dp679
sg71
g665
sg64
(lp680
g57
(g58
g59
NtRp681
(dp682
g62
(dp683
g70
I3
ssg71
g677
sg64
(lp684
S''
asbasbasbag57
(g73
g59
NtRp685
(dp686
g62
(dp687
sg71
g661
sg64
(lp688
g57
(g78
g59
NtRp689
(dp690
g62
(dp691
g82
g83
ssg71
g685
sg64
(lp692
g316
asbag57
(g78
g59
NtRp693
(dp694
g62
(dp695
g89
g90
ssg71
g685
sg64
(lp696
S':'
asbag57
(g78
g59
NtRp697
(dp698
g62
(dp699
sg71
g685
sg64
(lp700
g57
(g58
g59
NtRp701
(dp702
g62
(dp703
g70
I3
ssg71
g697
sg64
(lp704
S''
asbasbasbag57
(g73
g59
NtRp705
(dp706
g62
(dp707
sg71
g661
sg64
(lp708
g57
(g78
g59
NtRp709
(dp710
g62
(dp711
g82
g83
ssg71
g705
sg64
(lp712
g337
asbag57
(g78
g59
NtRp713
(dp714
g62
(dp715
g89
g90
ssg71
g705
sg64
(lp716
S':'
asbag57
(g78
g59
NtRp717
(dp718
g62
(dp719
sg71
g705
sg64
(lp720
g57
(g58
g59
NtRp721
(dp722
g62
(dp723
g70
I3
ssg71
g717
sg64
(lp724
S''
asbasbasbag57
(g73
g59
NtRp725
(dp726
g62
(dp727
sg71
g661
sg64
(lp728
g57
(g78
g59
NtRp729
(dp730
g62
(dp731
g82
g83
ssg71
g725
sg64
(lp732
g358
asbag57
(g78
g59
NtRp733
(dp734
g62
(dp735
g89
g90
ssg71
g725
sg64
(lp736
S':'
asbag57
(g78
g59
NtRp737
(dp738
g62
(dp739
sg71
g725
sg64
(lp740
g57
(g58
g59
NtRp741
(dp742
g62
(dp743
g70
I3
ssg71
g737
sg64
(lp744
S''
asbasbasbag57
(g73
g59
NtRp745
(dp746
g62
(dp747
sg71
g661
sg64
(lp748
g57
(g78
g59
NtRp749
(dp750
g62
(dp751
g82
g83
ssg71
g745
sg64
(lp752
g379
asbag57
(g78
g59
NtRp753
(dp754
g62
(dp755
g89
g90
ssg71
g745
sg64
(lp756
S':'
asbag57
(g78
g59
NtRp757
(dp758
g62
(dp759
sg71
g745
sg64
(lp760
g57
(g58
g59
NtRp761
(dp762
g62
(dp763
g70
I3
ssg71
g757
sg64
(lp764
S''
asbasbasbag57
(g73
g59
NtRp765
(dp766
g62
(dp767
sg71
g661
sg64
(lp768
g57
(g78
g59
NtRp769
(dp770
g62
(dp771
g82
g83
ssg71
g765
sg64
(lp772
g400
asbag57
(g78
g59
NtRp773
(dp774
g62
(dp775
g89
g90
ssg71
g765
sg64
(lp776
S':'
asbag57
(g78
g59
NtRp777
(dp778
g62
(dp779
sg71
g765
sg64
(lp780
g57
(g58
g59
NtRp781
(dp782
g62
(dp783
g70
I3
ssg71
g777
sg64
(lp784
S''
asbasbasbag57
(g73
g59
NtRp785
(dp786
g62
(dp787
sg71
g661
sg64
(lp788
g57
(g78
g59
NtRp789
(dp790
g62
(dp791
g82
g83
ssg71
g785
sg64
(lp792
g421
asbag57
(g78
g59
NtRp793
(dp794
g62
(dp795
g89
g90
ssg71
g785
sg64
(lp796
S':'
asbag57
(g78
g59
NtRp797
(dp798
g62
(dp799
sg71
g785
sg64
(lp800
g57
(g58
g59
NtRp801
(dp802
g62
(dp803
g70
I3
ssg71
g797
sg64
(lp804
S''
asbasbasbag57
(g73
g59
NtRp805
(dp806
g62
(dp807
sg71
g661
sg64
(lp808
g57
(g78
g59
NtRp809
(dp810
g62
(dp811
g82
g83
ssg71
g805
sg64
(lp812
g442
asbag57
(g78
g59
NtRp813
(dp814
g62
(dp815
g89
g90
ssg71
g805
sg64
(lp816
S':'
asbag57
(g78
g59
NtRp817
(dp818
g62
(dp819
sg71
g805
sg64
(lp820
g57
(g58
g59
NtRp821
(dp822
g62
(dp823
g70
I3
ssg71
g817
sg64
(lp824
S''
asbasbasbasbasbasbasbasbasbasbasbag57
(g73
g59
NtRp825
(dp826
g62
(dp827
sg71
g67
sg64
(lp828
g57
(g78
g59
NtRp829
(dp830
g62
(dp831
g82
g83
ssg71
g825
sg64
(lp832
S'env'
p833
asbag57
(g78
g59
NtRp834
(dp835
g62
(dp836
g89
g90
ssg71
g825
sg64
(lp837
S':'
asbag57
(g78
g59
NtRp838
(dp839
g62
(dp840
sg71
g825
sg64
(lp841
g57
(g58
g59
NtRp842
(dp843
g62
(dp844
g70
I5
ssg71
g838
sg64
(lp845
g57
(g66
g59
NtRp846
(dp847
g62
(dp848
g70
I4
ssg71
Nsg64
(lp849
g57
(g73
g59
NtRp850
(dp851
g62
(dp852
sg71
g846
sg64
(lp853
g57
(g78
g59
NtRp854
(dp855
g62
(dp856
g82
g83
ssg71
g850
sg64
(lp857
S'app_folders'
p858
asbag57
(g78
g59
NtRp859
(dp860
g62
(dp861
g89
g90
ssg71
g850
sg64
(lp862
S':'
asbag57
(g78
g59
NtRp863
(dp864
g62
(dp865
sg71
g850
sg64
(lp866
g57
(g58
g59
NtRp867
(dp868
g62
(dp869
g70
I4
ssg71
g863
sg64
(lp870
S"set(['/home/fish/Desktop/web2py/applications/admin/', '/home/fish/Desktop/web2py/applications/welcome/', '/home/fish/Desktop/web2py/applications/vsalad/'])"
p871
asbasbasbag57
(g73
g59
NtRp872
(dp873
g62
(dp874
sg71
g846
sg64
(lp875
g57
(g78
g59
NtRp876
(dp877
g62
(dp878
g82
g83
ssg71
g872
sg64
(lp879
S'applications_parent'
p880
asbag57
(g78
g59
NtRp881
(dp882
g62
(dp883
g89
g90
ssg71
g872
sg64
(lp884
S':'
asbag57
(g78
g59
NtRp885
(dp886
g62
(dp887
sg71
g872
sg64
(lp888
g57
(g58
g59
NtRp889
(dp890
g62
(dp891
g70
I4
ssg71
g885
sg64
(lp892
S'/home/fish/Desktop/web2py'
p893
asbasbasbag57
(g73
g59
NtRp894
(dp895
g62
(dp896
sg71
g846
sg64
(lp897
g57
(g78
g59
NtRp898
(dp899
g62
(dp900
g82
g83
ssg71
g894
sg64
(lp901
S'cmd_args'
p902
asbag57
(g78
g59
NtRp903
(dp904
g62
(dp905
g89
g90
ssg71
g894
sg64
(lp906
S':'
asbag57
(g78
g59
NtRp907
(dp908
g62
(dp909
sg71
g894
sg64
(lp910
g57
(g58
g59
NtRp911
(dp912
g62
(dp913
g70
I4
ssg71
g907
sg64
(lp914
g57
(g66
g59
NtRp915
(dp916
g62
(dp917
g70
I3
ssg71
Nsg64
(lp918
sbasbasbasbag57
(g73
g59
NtRp919
(dp920
g62
(dp921
sg71
g846
sg64
(lp922
g57
(g78
g59
NtRp923
(dp924
g62
(dp925
g82
g83
ssg71
g919
sg64
(lp926
S'cmd_options'
p927
asbag57
(g78
g59
NtRp928
(dp929
g62
(dp930
g89
g90
ssg71
g919
sg64
(lp931
S':'
asbag57
(g78
g59
NtRp932
(dp933
g62
(dp934
sg71
g919
sg64
(lp935
g57
(g58
g59
NtRp936
(dp937
g62
(dp938
g70
I4
ssg71
g932
sg64
(lp939
S"<Values at 0x255e518: {'verbose': False, 'ip': '127.0.0.1', 'shutdown_timeout': 5, 'taskbar': False, 'nocron': False, 'pid_filename': 'httpserver.pid', 'maxthreads': None, 'softcron': False, 'server_name': 'Master-Fish', 'bpython': False, 'nogui': False, 'port': 8000, 'extcron': False, 'debuglevel': 30, 'test': None, 'folder': '/home/fish/Desktop/web2py', 'config': '', 'import_models': False, 'winservice': '', 'shell': None, 'run': '', 'log_filename': 'httpserver.log', 'args': [''], 'socket_timeout': 5, 'ssl_ca_certificate': None, 'scheduler': None, 'profiler_filename': None, 'ssl_private_key': '', 'password': '<ask>', 'request_queue_size': 5, 'ssl_certificate': '', 'cronjob': False, 'numthreads': None, 'quiet': False, 'interfaces': None, 'minthreads': None, 'timeout': 10, 'plain': False, 'nobanner': False}>"
p940
asbasbasbag57
(g73
g59
NtRp941
(dp942
g62
(dp943
sg71
g846
sg64
(lp944
g57
(g78
g59
NtRp945
(dp946
g62
(dp947
g82
g83
ssg71
g941
sg64
(lp948
S'db_sessions'
p949
asbag57
(g78
g59
NtRp950
(dp951
g62
(dp952
g89
g90
ssg71
g941
sg64
(lp953
S':'
asbag57
(g78
g59
NtRp954
(dp955
g62
(dp956
sg71
g941
sg64
(lp957
g57
(g58
g59
NtRp958
(dp959
g62
(dp960
g70
I4
ssg71
g954
sg64
(lp961
S'set([])'
p962
asbasbasbag57
(g73
g59
NtRp963
(dp964
g62
(dp965
sg71
g846
sg64
(lp966
g57
(g78
g59
NtRp967
(dp968
g62
(dp969
g82
g83
ssg71
g963
sg64
(lp970
S'debugging'
p971
asbag57
(g78
g59
NtRp972
(dp973
g62
(dp974
g89
g90
ssg71
g963
sg64
(lp975
S':'
asbag57
(g78
g59
NtRp976
(dp977
g62
(dp978
sg71
g963
sg64
(lp979
g57
(g58
g59
NtRp980
(dp981
g62
(dp982
g70
I4
ssg71
g976
sg64
(lp983
g100
asbasbasbag57
(g73
g59
NtRp984
(dp985
g62
(dp986
sg71
g846
sg64
(lp987
g57
(g78
g59
NtRp988
(dp989
g62
(dp990
g82
g83
ssg71
g984
sg64
(lp991
S'gluon_parent'
p992
asbag57
(g78
g59
NtRp993
(dp994
g62
(dp995
g89
g90
ssg71
g984
sg64
(lp996
S':'
asbag57
(g78
g59
NtRp997
(dp998
g62
(dp999
sg71
g984
sg64
(lp1000
g57
(g58
g59
NtRp1001
(dp1002
g62
(dp1003
g70
I4
ssg71
g997
sg64
(lp1004
S'/home/fish/Desktop/web2py'
p1005
asbasbasbag57
(g73
g59
NtRp1006
(dp1007
g62
(dp1008
sg71
g846
sg64
(lp1009
g57
(g78
g59
NtRp1010
(dp1011
g62
(dp1012
g82
g83
ssg71
g1006
sg64
(lp1013
S'http_accept'
p1014
asbag57
(g78
g59
NtRp1015
(dp1016
g62
(dp1017
g89
g90
ssg71
g1006
sg64
(lp1018
S':'
asbag57
(g78
g59
NtRp1019
(dp1020
g62
(dp1021
sg71
g1006
sg64
(lp1022
g57
(g58
g59
NtRp1023
(dp1024
g62
(dp1025
g70
I4
ssg71
g1019
sg64
(lp1026
S'text/html,application/xhtml+xml,application/xml;q=0.9,*/*;q=0.8'
p1027
asbasbasbag57
(g73
g59
NtRp1028
(dp1029
g62
(dp1030
sg71
g846
sg64
(lp1031
g57
(g78
g59
NtRp1032
(dp1033
g62
(dp1034
g82
g83
ssg71
g1028
sg64
(lp1035
S'http_accept_charset'
p1036
asbag57
(g78
g59
NtRp1037
(dp1038
g62
(dp1039
g89
g90
ssg71
g1028
sg64
(lp1040
S':'
asbag57
(g78
g59
NtRp1041
(dp1042
g62
(dp1043
sg71
g1028
sg64
(lp1044
g57
(g58
g59
NtRp1045
(dp1046
g62
(dp1047
g70
I4
ssg71
g1041
sg64
(lp1048
S'ISO-8859-1,utf-8;q=0.7,*;q=0.3'
p1049
asbasbasbag57
(g73
g59
NtRp1050
(dp1051
g62
(dp1052
sg71
g846
sg64
(lp1053
g57
(g78
g59
NtRp1054
(dp1055
g62
(dp1056
g82
g83
ssg71
g1050
sg64
(lp1057
S'http_accept_encoding'
p1058
asbag57
(g78
g59
NtRp1059
(dp1060
g62
(dp1061
g89
g90
ssg71
g1050
sg64
(lp1062
S':'
asbag57
(g78
g59
NtRp1063
(dp1064
g62
(dp1065
sg71
g1050
sg64
(lp1066
g57
(g58
g59
NtRp1067
(dp1068
g62
(dp1069
g70
I4
ssg71
g1063
sg64
(lp1070
S'gzip,deflate,sdch'
p1071
asbasbasbag57
(g73
g59
NtRp1072
(dp1073
g62
(dp1074
sg71
g846
sg64
(lp1075
g57
(g78
g59
NtRp1076
(dp1077
g62
(dp1078
g82
g83
ssg71
g1072
sg64
(lp1079
S'http_accept_language'
p1080
asbag57
(g78
g59
NtRp1081
(dp1082
g62
(dp1083
g89
g90
ssg71
g1072
sg64
(lp1084
S':'
asbag57
(g78
g59
NtRp1085
(dp1086
g62
(dp1087
sg71
g1072
sg64
(lp1088
g57
(g58
g59
NtRp1089
(dp1090
g62
(dp1091
g70
I4
ssg71
g1085
sg64
(lp1092
S'en-US,en;q=0.8,fr;q=0.6'
p1093
asbasbasbag57
(g73
g59
NtRp1094
(dp1095
g62
(dp1096
sg71
g846
sg64
(lp1097
g57
(g78
g59
NtRp1098
(dp1099
g62
(dp1100
g82
g83
ssg71
g1094
sg64
(lp1101
S'http_connection'
p1102
asbag57
(g78
g59
NtRp1103
(dp1104
g62
(dp1105
g89
g90
ssg71
g1094
sg64
(lp1106
S':'
asbag57
(g78
g59
NtRp1107
(dp1108
g62
(dp1109
sg71
g1094
sg64
(lp1110
g57
(g58
g59
NtRp1111
(dp1112
g62
(dp1113
g70
I4
ssg71
g1107
sg64
(lp1114
S'keep-alive'
p1115
asbasbasbag57
(g73
g59
NtRp1116
(dp1117
g62
(dp1118
sg71
g846
sg64
(lp1119
g57
(g78
g59
NtRp1120
(dp1121
g62
(dp1122
g82
g83
ssg71
g1116
sg64
(lp1123
S'http_cookie'
p1124
asbag57
(g78
g59
NtRp1125
(dp1126
g62
(dp1127
g89
g90
ssg71
g1116
sg64
(lp1128
S':'
asbag57
(g78
g59
NtRp1129
(dp1130
g62
(dp1131
sg71
g1116
sg64
(lp1132
g57
(g58
g59
NtRp1133
(dp1134
g62
(dp1135
g70
I4
ssg71
g1129
sg64
(lp1136
S'session_id_welcome=127.0.0.1-ca03d1c8-fce4-40ec-877f-7a5659c560fd; session_id_vsalad=127.0.0.1-65c5fec7-9058-48a5-9599-65c6d4c50931; session_id_admin=127.0.0.1-dc074c73-6f98-4dc3-830d-e23ec66fde78'
p1137
asbasbasbag57
(g73
g59
NtRp1138
(dp1139
g62
(dp1140
sg71
g846
sg64
(lp1141
g57
(g78
g59
NtRp1142
(dp1143
g62
(dp1144
g82
g83
ssg71
g1138
sg64
(lp1145
S'http_host'
p1146
asbag57
(g78
g59
NtRp1147
(dp1148
g62
(dp1149
g89
g90
ssg71
g1138
sg64
(lp1150
S':'
asbag57
(g78
g59
NtRp1151
(dp1152
g62
(dp1153
sg71
g1138
sg64
(lp1154
g57
(g58
g59
NtRp1155
(dp1156
g62
(dp1157
g70
I4
ssg71
g1151
sg64
(lp1158
S'127.0.0.1:8000'
p1159
asbasbasbag57
(g73
g59
NtRp1160
(dp1161
g62
(dp1162
sg71
g846
sg64
(lp1163
g57
(g78
g59
NtRp1164
(dp1165
g62
(dp1166
g82
g83
ssg71
g1160
sg64
(lp1167
S'http_referer'
p1168
asbag57
(g78
g59
NtRp1169
(dp1170
g62
(dp1171
g89
g90
ssg71
g1160
sg64
(lp1172
S':'
asbag57
(g78
g59
NtRp1173
(dp1174
g62
(dp1175
sg71
g1160
sg64
(lp1176
g57
(g58
g59
NtRp1177
(dp1178
g62
(dp1179
g70
I4
ssg71
g1173
sg64
(lp1180
S'http://127.0.0.1:8000/vsalad/default/index'
p1181
asbasbasbag57
(g73
g59
NtRp1182
(dp1183
g62
(dp1184
sg71
g846
sg64
(lp1185
g57
(g78
g59
NtRp1186
(dp1187
g62
(dp1188
g82
g83
ssg71
g1182
sg64
(lp1189
S'http_user_agent'
p1190
asbag57
(g78
g59
NtRp1191
(dp1192
g62
(dp1193
g89
g90
ssg71
g1182
sg64
(lp1194
S':'
asbag57
(g78
g59
NtRp1195
(dp1196
g62
(dp1197
sg71
g1182
sg64
(lp1198
g57
(g58
g59
NtRp1199
(dp1200
g62
(dp1201
g70
I4
ssg71
g1195
sg64
(lp1202
S'Mozilla/5.0 (X11; Linux x86_64) AppleWebKit/535.19 (KHTML, like Gecko) Chrome/18.0.1025.162 Safari/535.19'
p1203
asbasbasbag57
(g73
g59
NtRp1204
(dp1205
g62
(dp1206
sg71
g846
sg64
(lp1207
g57
(g78
g59
NtRp1208
(dp1209
g62
(dp1210
g82
g83
ssg71
g1204
sg64
(lp1211
S'is_jython'
p1212
asbag57
(g78
g59
NtRp1213
(dp1214
g62
(dp1215
g89
g90
ssg71
g1204
sg64
(lp1216
S':'
asbag57
(g78
g59
NtRp1217
(dp1218
g62
(dp1219
sg71
g1204
sg64
(lp1220
g57
(g58
g59
NtRp1221
(dp1222
g62
(dp1223
g70
I4
ssg71
g1217
sg64
(lp1224
g100
asbasbasbag57
(g73
g59
NtRp1225
(dp1226
g62
(dp1227
sg71
g846
sg64
(lp1228
g57
(g78
g59
NtRp1229
(dp1230
g62
(dp1231
g82
g83
ssg71
g1225
sg64
(lp1232
S'is_pypy'
p1233
asbag57
(g78
g59
NtRp1234
(dp1235
g62
(dp1236
g89
g90
ssg71
g1225
sg64
(lp1237
S':'
asbag57
(g78
g59
NtRp1238
(dp1239
g62
(dp1240
sg71
g1225
sg64
(lp1241
g57
(g58
g59
NtRp1242
(dp1243
g62
(dp1244
g70
I4
ssg71
g1238
sg64
(lp1245
g100
asbasbasbag57
(g73
g59
NtRp1246
(dp1247
g62
(dp1248
sg71
g846
sg64
(lp1249
g57
(g78
g59
NtRp1250
(dp1251
g62
(dp1252
g82
g83
ssg71
g1246
sg64
(lp1253
S'path_info'
p1254
asbag57
(g78
g59
NtRp1255
(dp1256
g62
(dp1257
g89
g90
ssg71
g1246
sg64
(lp1258
S':'
asbag57
(g78
g59
NtRp1259
(dp1260
g62
(dp1261
sg71
g1246
sg64
(lp1262
g57
(g58
g59
NtRp1263
(dp1264
g62
(dp1265
g70
I4
ssg71
g1259
sg64
(lp1266
S'/vsalad/default/article/4//'
p1267
asbasbasbag57
(g73
g59
NtRp1268
(dp1269
g62
(dp1270
sg71
g846
sg64
(lp1271
g57
(g78
g59
NtRp1272
(dp1273
g62
(dp1274
g82
g83
ssg71
g1268
sg64
(lp1275
S'query_string'
p1276
asbag57
(g78
g59
NtRp1277
(dp1278
g62
(dp1279
g89
g90
ssg71
g1268
sg64
(lp1280
S':'
asbag57
(g78
g59
NtRp1281
(dp1282
g62
(dp1283
sg71
g1268
sg64
(lp1284
g57
(g58
g59
NtRp1285
(dp1286
g62
(dp1287
g70
I4
ssg71
g1281
sg64
(lp1288
S''
asbasbasbag57
(g73
g59
NtRp1289
(dp1290
g62
(dp1291
sg71
g846
sg64
(lp1292
g57
(g78
g59
NtRp1293
(dp1294
g62
(dp1295
g82
g83
ssg71
g1289
sg64
(lp1296
S'remote_addr'
p1297
asbag57
(g78
g59
NtRp1298
(dp1299
g62
(dp1300
g89
g90
ssg71
g1289
sg64
(lp1301
S':'
asbag57
(g78
g59
NtRp1302
(dp1303
g62
(dp1304
sg71
g1289
sg64
(lp1305
g57
(g58
g59
NtRp1306
(dp1307
g62
(dp1308
g70
I4
ssg71
g1302
sg64
(lp1309
g214
asbasbasbag57
(g73
g59
NtRp1310
(dp1311
g62
(dp1312
sg71
g846
sg64
(lp1313
g57
(g78
g59
NtRp1314
(dp1315
g62
(dp1316
g82
g83
ssg71
g1310
sg64
(lp1317
S'remote_port'
p1318
asbag57
(g78
g59
NtRp1319
(dp1320
g62
(dp1321
g89
g90
ssg71
g1310
sg64
(lp1322
S':'
asbag57
(g78
g59
NtRp1323
(dp1324
g62
(dp1325
sg71
g1310
sg64
(lp1326
g57
(g58
g59
NtRp1327
(dp1328
g62
(dp1329
g70
I4
ssg71
g1323
sg64
(lp1330
S'37105'
p1331
asbasbasbag57
(g73
g59
NtRp1332
(dp1333
g62
(dp1334
sg71
g846
sg64
(lp1335
g57
(g78
g59
NtRp1336
(dp1337
g62
(dp1338
g82
g83
ssg71
g1332
sg64
(lp1339
S'request_method'
p1340
asbag57
(g78
g59
NtRp1341
(dp1342
g62
(dp1343
g89
g90
ssg71
g1332
sg64
(lp1344
S':'
asbag57
(g78
g59
NtRp1345
(dp1346
g62
(dp1347
sg71
g1332
sg64
(lp1348
g57
(g58
g59
NtRp1349
(dp1350
g62
(dp1351
g70
I4
ssg71
g1345
sg64
(lp1352
S'GET'
p1353
asbasbasbag57
(g73
g59
NtRp1354
(dp1355
g62
(dp1356
sg71
g846
sg64
(lp1357
g57
(g78
g59
NtRp1358
(dp1359
g62
(dp1360
g82
g83
ssg71
g1354
sg64
(lp1361
S'script_name'
p1362
asbag57
(g78
g59
NtRp1363
(dp1364
g62
(dp1365
g89
g90
ssg71
g1354
sg64
(lp1366
S':'
asbag57
(g78
g59
NtRp1367
(dp1368
g62
(dp1369
sg71
g1354
sg64
(lp1370
g57
(g58
g59
NtRp1371
(dp1372
g62
(dp1373
g70
I4
ssg71
g1367
sg64
(lp1374
S''
asbasbasbag57
(g73
g59
NtRp1375
(dp1376
g62
(dp1377
sg71
g846
sg64
(lp1378
g57
(g78
g59
NtRp1379
(dp1380
g62
(dp1381
g82
g83
ssg71
g1375
sg64
(lp1382
S'server_name'
p1383
asbag57
(g78
g59
NtRp1384
(dp1385
g62
(dp1386
g89
g90
ssg71
g1375
sg64
(lp1387
S':'
asbag57
(g78
g59
NtRp1388
(dp1389
g62
(dp1390
sg71
g1375
sg64
(lp1391
g57
(g58
g59
NtRp1392
(dp1393
g62
(dp1394
g70
I4
ssg71
g1388
sg64
(lp1395
S'Master-Fish'
p1396
asbasbasbag57
(g73
g59
NtRp1397
(dp1398
g62
(dp1399
sg71
g846
sg64
(lp1400
g57
(g78
g59
NtRp1401
(dp1402
g62
(dp1403
g82
g83
ssg71
g1397
sg64
(lp1404
S'server_port'
p1405
asbag57
(g78
g59
NtRp1406
(dp1407
g62
(dp1408
g89
g90
ssg71
g1397
sg64
(lp1409
S':'
asbag57
(g78
g59
NtRp1410
(dp1411
g62
(dp1412
sg71
g1397
sg64
(lp1413
g57
(g58
g59
NtRp1414
(dp1415
g62
(dp1416
g70
I4
ssg71
g1410
sg64
(lp1417
S'8000'
p1418
asbasbasbag57
(g73
g59
NtRp1419
(dp1420
g62
(dp1421
sg71
g846
sg64
(lp1422
g57
(g78
g59
NtRp1423
(dp1424
g62
(dp1425
g82
g83
ssg71
g1419
sg64
(lp1426
S'server_protocol'
p1427
asbag57
(g78
g59
NtRp1428
(dp1429
g62
(dp1430
g89
g90
ssg71
g1419
sg64
(lp1431
S':'
asbag57
(g78
g59
NtRp1432
(dp1433
g62
(dp1434
sg71
g1419
sg64
(lp1435
g57
(g58
g59
NtRp1436
(dp1437
g62
(dp1438
g70
I4
ssg71
g1432
sg64
(lp1439
S'HTTP/1.1'
p1440
asbasbasbag57
(g73
g59
NtRp1441
(dp1442
g62
(dp1443
sg71
g846
sg64
(lp1444
g57
(g78
g59
NtRp1445
(dp1446
g62
(dp1447
g82
g83
ssg71
g1441
sg64
(lp1448
S'server_software'
p1449
asbag57
(g78
g59
NtRp1450
(dp1451
g62
(dp1452
g89
g90
ssg71
g1441
sg64
(lp1453
S':'
asbag57
(g78
g59
NtRp1454
(dp1455
g62
(dp1456
sg71
g1441
sg64
(lp1457
g57
(g58
g59
NtRp1458
(dp1459
g62
(dp1460
g70
I4
ssg71
g1454
sg64
(lp1461
S'Rocket 1.2.4'
p1462
asbasbasbag57
(g73
g59
NtRp1463
(dp1464
g62
(dp1465
sg71
g846
sg64
(lp1466
g57
(g78
g59
NtRp1467
(dp1468
g62
(dp1469
g82
g83
ssg71
g1463
sg64
(lp1470
S'web2py_crontype'
p1471
asbag57
(g78
g59
NtRp1472
(dp1473
g62
(dp1474
g89
g90
ssg71
g1463
sg64
(lp1475
S':'
asbag57
(g78
g59
NtRp1476
(dp1477
g62
(dp1478
sg71
g1463
sg64
(lp1479
g57
(g58
g59
NtRp1480
(dp1481
g62
(dp1482
g70
I4
ssg71
g1476
sg64
(lp1483
S'hard'
p1484
asbasbasbag57
(g73
g59
NtRp1485
(dp1486
g62
(dp1487
sg71
g846
sg64
(lp1488
g57
(g78
g59
NtRp1489
(dp1490
g62
(dp1491
g82
g83
ssg71
g1485
sg64
(lp1492
S'web2py_path'
p1493
asbag57
(g78
g59
NtRp1494
(dp1495
g62
(dp1496
g89
g90
ssg71
g1485
sg64
(lp1497
S':'
asbag57
(g78
g59
NtRp1498
(dp1499
g62
(dp1500
sg71
g1485
sg64
(lp1501
g57
(g58
g59
NtRp1502
(dp1503
g62
(dp1504
g70
I4
ssg71
g1498
sg64
(lp1505
g893
asbasbasbag57
(g73
g59
NtRp1506
(dp1507
g62
(dp1508
sg71
g846
sg64
(lp1509
g57
(g78
g59
NtRp1510
(dp1511
g62
(dp1512
g82
g83
ssg71
g1506
sg64
(lp1513
S'web2py_version'
p1514
asbag57
(g78
g59
NtRp1515
(dp1516
g62
(dp1517
g89
g90
ssg71
g1506
sg64
(lp1518
S':'
asbag57
(g78
g59
NtRp1519
(dp1520
g62
(dp1521
sg71
g1506
sg64
(lp1522
g57
(g58
g59
NtRp1523
(dp1524
g62
(dp1525
g70
I4
ssg71
g1519
sg64
(lp1526
g57
(g66
g59
NtRp1527
(dp1528
g62
(dp1529
g70
I3
ssg71
Nsg64
(lp1530
g57
(g73
g59
NtRp1531
(dp1532
g62
(dp1533
sg71
g1527
sg64
(lp1534
g57
(g78
g59
NtRp1535
(dp1536
g62
(dp1537
sg71
g1531
sg64
(lp1538
g57
(g58
g59
NtRp1539
(dp1540
g62
(dp1541
g70
I3
ssg71
g1535
sg64
(lp1542
S'1'
asbasbasbag57
(g73
g59
NtRp1543
(dp1544
g62
(dp1545
sg71
g1527
sg64
(lp1546
g57
(g78
g59
NtRp1547
(dp1548
g62
(dp1549
sg71
g1543
sg64
(lp1550
g57
(g58
g59
NtRp1551
(dp1552
g62
(dp1553
g70
I3
ssg71
g1547
sg64
(lp1554
S'99'
p1555
asbasbasbag57
(g73
g59
NtRp1556
(dp1557
g62
(dp1558
sg71
g1527
sg64
(lp1559
g57
(g78
g59
NtRp1560
(dp1561
g62
(dp1562
sg71
g1556
sg64
(lp1563
g57
(g58
g59
NtRp1564
(dp1565
g62
(dp1566
g70
I3
ssg71
g1560
sg64
(lp1567
S'7'
asbasbasbag57
(g73
g59
NtRp1568
(dp1569
g62
(dp1570
sg71
g1527
sg64
(lp1571
g57
(g78
g59
NtRp1572
(dp1573
g62
(dp1574
sg71
g1568
sg64
(lp1575
g57
(g58
g59
NtRp1576
(dp1577
g62
(dp1578
g70
I3
ssg71
g1572
sg64
(lp1579
S'datetime.datetime(2012, 3, 4, 22, 12, 8)'
p1580
asbasbasbag57
(g73
g59
NtRp1581
(dp1582
g62
(dp1583
sg71
g1527
sg64
(lp1584
g57
(g78
g59
NtRp1585
(dp1586
g62
(dp1587
sg71
g1581
sg64
(lp1588
g57
(g58
g59
NtRp1589
(dp1590
g62
(dp1591
g70
I3
ssg71
g1585
sg64
(lp1592
S'stable'
p1593
asbasbasbasbasbasbasbag57
(g73
g59
NtRp1594
(dp1595
g62
(dp1596
sg71
g846
sg64
(lp1597
g57
(g78
g59
NtRp1598
(dp1599
g62
(dp1600
g82
g83
ssg71
g1594
sg64
(lp1601
S'wsgi_errors'
p1602
asbag57
(g78
g59
NtRp1603
(dp1604
g62
(dp1605
g89
g90
ssg71
g1594
sg64
(lp1606
S':'
asbag57
(g78
g59
NtRp1607
(dp1608
g62
(dp1609
sg71
g1594
sg64
(lp1610
g57
(g58
g59
NtRp1611
(dp1612
g62
(dp1613
g70
I4
ssg71
g1607
sg64
(lp1614
S"<open file '<stderr>', mode 'w' at 0x7f82c0a93270>"
p1615
asbasbasbag57
(g73
g59
NtRp1616
(dp1617
g62
(dp1618
sg71
g846
sg64
(lp1619
g57
(g78
g59
NtRp1620
(dp1621
g62
(dp1622
g82
g83
ssg71
g1616
sg64
(lp1623
S'wsgi_file_wrapper'
p1624
asbag57
(g78
g59
NtRp1625
(dp1626
g62
(dp1627
g89
g90
ssg71
g1616
sg64
(lp1628
S':'
asbag57
(g78
g59
NtRp1629
(dp1630
g62
(dp1631
sg71
g1616
sg64
(lp1632
g57
(g58
g59
NtRp1633
(dp1634
g62
(dp1635
g70
I4
ssg71
g1629
sg64
(lp1636
S'<class wsgiref.util.FileWrapper at 0x2436870>'
p1637
asbasbasbag57
(g73
g59
NtRp1638
(dp1639
g62
(dp1640
sg71
g846
sg64
(lp1641
g57
(g78
g59
NtRp1642
(dp1643
g62
(dp1644
g82
g83
ssg71
g1638
sg64
(lp1645
S'wsgi_input'
p1646
asbag57
(g78
g59
NtRp1647
(dp1648
g62
(dp1649
g89
g90
ssg71
g1638
sg64
(lp1650
S':'
asbag57
(g78
g59
NtRp1651
(dp1652
g62
(dp1653
sg71
g1638
sg64
(lp1654
g57
(g58
g59
NtRp1655
(dp1656
g62
(dp1657
g70
I4
ssg71
g1651
sg64
(lp1658
S'<socket._fileobject object at 0x3711450>'
p1659
asbasbasbag57
(g73
g59
NtRp1660
(dp1661
g62
(dp1662
sg71
g846
sg64
(lp1663
g57
(g78
g59
NtRp1664
(dp1665
g62
(dp1666
g82
g83
ssg71
g1660
sg64
(lp1667
S'wsgi_multiprocess'
p1668
asbag57
(g78
g59
NtRp1669
(dp1670
g62
(dp1671
g89
g90
ssg71
g1660
sg64
(lp1672
S':'
asbag57
(g78
g59
NtRp1673
(dp1674
g62
(dp1675
sg71
g1660
sg64
(lp1676
g57
(g58
g59
NtRp1677
(dp1678
g62
(dp1679
g70
I4
ssg71
g1673
sg64
(lp1680
g100
asbasbasbag57
(g73
g59
NtRp1681
(dp1682
g62
(dp1683
sg71
g846
sg64
(lp1684
g57
(g78
g59
NtRp1685
(dp1686
g62
(dp1687
g82
g83
ssg71
g1681
sg64
(lp1688
S'wsgi_multithread'
p1689
asbag57
(g78
g59
NtRp1690
(dp1691
g62
(dp1692
g89
g90
ssg71
g1681
sg64
(lp1693
S':'
asbag57
(g78
g59
NtRp1694
(dp1695
g62
(dp1696
sg71
g1681
sg64
(lp1697
g57
(g58
g59
NtRp1698
(dp1699
g62
(dp1700
g70
I4
ssg71
g1694
sg64
(lp1701
S'True'
p1702
asbasbasbag57
(g73
g59
NtRp1703
(dp1704
g62
(dp1705
sg71
g846
sg64
(lp1706
g57
(g78
g59
NtRp1707
(dp1708
g62
(dp1709
g82
g83
ssg71
g1703
sg64
(lp1710
S'wsgi_run_once'
p1711
asbag57
(g78
g59
NtRp1712
(dp1713
g62
(dp1714
g89
g90
ssg71
g1703
sg64
(lp1715
S':'
asbag57
(g78
g59
NtRp1716
(dp1717
g62
(dp1718
sg71
g1703
sg64
(lp1719
g57
(g58
g59
NtRp1720
(dp1721
g62
(dp1722
g70
I4
ssg71
g1716
sg64
(lp1723
g100
asbasbasbag57
(g73
g59
NtRp1724
(dp1725
g62
(dp1726
sg71
g846
sg64
(lp1727
g57
(g78
g59
NtRp1728
(dp1729
g62
(dp1730
g82
g83
ssg71
g1724
sg64
(lp1731
S'wsgi_url_scheme'
p1732
asbag57
(g78
g59
NtRp1733
(dp1734
g62
(dp1735
g89
g90
ssg71
g1724
sg64
(lp1736
S':'
asbag57
(g78
g59
NtRp1737
(dp1738
g62
(dp1739
sg71
g1724
sg64
(lp1740
g57
(g58
g59
NtRp1741
(dp1742
g62
(dp1743
g70
I4
ssg71
g1737
sg64
(lp1744
S'http'
p1745
asbasbasbag57
(g73
g59
NtRp1746
(dp1747
g62
(dp1748
sg71
g846
sg64
(lp1749
g57
(g78
g59
NtRp1750
(dp1751
g62
(dp1752
g82
g83
ssg71
g1746
sg64
(lp1753
S'wsgi_version'
p1754
asbag57
(g78
g59
NtRp1755
(dp1756
g62
(dp1757
g89
g90
ssg71
g1746
sg64
(lp1758
S':'
asbag57
(g78
g59
NtRp1759
(dp1760
g62
(dp1761
sg71
g1746
sg64
(lp1762
g57
(g58
g59
NtRp1763
(dp1764
g62
(dp1765
g70
I4
ssg71
g1759
sg64
(lp1766
g57
(g66
g59
NtRp1767
(dp1768
g62
(dp1769
g70
I3
ssg71
Nsg64
(lp1770
g57
(g73
g59
NtRp1771
(dp1772
g62
(dp1773
sg71
g1767
sg64
(lp1774
g57
(g78
g59
NtRp1775
(dp1776
g62
(dp1777
sg71
g1771
sg64
(lp1778
g57
(g58
g59
NtRp1779
(dp1780
g62
(dp1781
g70
I3
ssg71
g1775
sg64
(lp1782
S'1'
asbasbasbag57
(g73
g59
NtRp1783
(dp1784
g62
(dp1785
sg71
g1767
sg64
(lp1786
g57
(g78
g59
NtRp1787
(dp1788
g62
(dp1789
sg71
g1783
sg64
(lp1790
g57
(g58
g59
NtRp1791
(dp1792
g62
(dp1793
g70
I3
ssg71
g1787
sg64
(lp1794
S'0'
asbasbasbasbasbasbasbasbasbasbasbag57
(g73
g59
NtRp1795
(dp1796
g62
(dp1797
sg71
g67
sg64
(lp1798
g57
(g78
g59
NtRp1799
(dp1800
g62
(dp1801
g82
g83
ssg71
g1795
sg64
(lp1802
S'extension'
p1803
asbag57
(g78
g59
NtRp1804
(dp1805
g62
(dp1806
g89
g90
ssg71
g1795
sg64
(lp1807
S':'
asbag57
(g78
g59
NtRp1808
(dp1809
g62
(dp1810
sg71
g1795
sg64
(lp1811
g57
(g58
g59
NtRp1812
(dp1813
g62
(dp1814
g70
I5
ssg71
g1808
sg64
(lp1815
S'html'
p1816
asbasbasbag57
(g73
g59
NtRp1817
(dp1818
g62
(dp1819
sg71
g67
sg64
(lp1820
g57
(g78
g59
NtRp1821
(dp1822
g62
(dp1823
g82
g83
ssg71
g1817
sg64
(lp1824
S'folder'
p1825
asbag57
(g78
g59
NtRp1826
(dp1827
g62
(dp1828
g89
g90
ssg71
g1817
sg64
(lp1829
S':'
asbag57
(g78
g59
NtRp1830
(dp1831
g62
(dp1832
sg71
g1817
sg64
(lp1833
g57
(g58
g59
NtRp1834
(dp1835
g62
(dp1836
g70
I5
ssg71
g1830
sg64
(lp1837
S'/home/fish/Desktop/web2py/applications/vsalad/'
p1838
asbasbasbag57
(g73
g59
NtRp1839
(dp1840
g62
(dp1841
sg71
g67
sg64
(lp1842
g57
(g78
g59
NtRp1843
(dp1844
g62
(dp1845
g82
g83
ssg71
g1839
sg64
(lp1846
S'function'
p1847
asbag57
(g78
g59
NtRp1848
(dp1849
g62
(dp1850
g89
g90
ssg71
g1839
sg64
(lp1851
S':'
asbag57
(g78
g59
NtRp1852
(dp1853
g62
(dp1854
sg71
g1839
sg64
(lp1855
g57
(g58
g59
NtRp1856
(dp1857
g62
(dp1858
g70
I5
ssg71
g1852
sg64
(lp1859
S'article'
p1860
asbasbasbag57
(g73
g59
NtRp1861
(dp1862
g62
(dp1863
sg71
g67
sg64
(lp1864
g57
(g78
g59
NtRp1865
(dp1866
g62
(dp1867
g82
g83
ssg71
g1861
sg64
(lp1868
S'get_vars'
p1869
asbag57
(g78
g59
NtRp1870
(dp1871
g62
(dp1872
g89
g90
ssg71
g1861
sg64
(lp1873
S':'
asbag57
(g78
g59
NtRp1874
(dp1875
g62
(dp1876
sg71
g1861
sg64
(lp1877
g57
(g58
g59
NtRp1878
(dp1879
g62
(dp1880
g70
I5
ssg71
g1874
sg64
(lp1881
g57
(g66
g59
NtRp1882
(dp1883
g62
(dp1884
g70
I4
ssg71
Nsg64
(lp1885
sbasbasbasbag57
(g73
g59
NtRp1886
(dp1887
g62
(dp1888
sg71
g67
sg64
(lp1889
g57
(g78
g59
NtRp1890
(dp1891
g62
(dp1892
g82
g83
ssg71
g1886
sg64
(lp1893
S'global_settings'
p1894
asbag57
(g78
g59
NtRp1895
(dp1896
g62
(dp1897
g89
g90
ssg71
g1886
sg64
(lp1898
S':'
asbag57
(g78
g59
NtRp1899
(dp1900
g62
(dp1901
sg71
g1886
sg64
(lp1902
g57
(g58
g59
NtRp1903
(dp1904
g62
(dp1905
g70
I5
ssg71
g1899
sg64
(lp1906
g57
(g66
g59
NtRp1907
(dp1908
g62
(dp1909
g70
I4
ssg71
Nsg64
(lp1910
g57
(g73
g59
NtRp1911
(dp1912
g62
(dp1913
sg71
g1907
sg64
(lp1914
g57
(g78
g59
NtRp1915
(dp1916
g62
(dp1917
g82
g83
ssg71
g1911
sg64
(lp1918
g858
asbag57
(g78
g59
NtRp1919
(dp1920
g62
(dp1921
g89
g90
ssg71
g1911
sg64
(lp1922
S':'
asbag57
(g78
g59
NtRp1923
(dp1924
g62
(dp1925
sg71
g1911
sg64
(lp1926
g57
(g58
g59
NtRp1927
(dp1928
g62
(dp1929
g70
I4
ssg71
g1923
sg64
(lp1930
S"set(['/home/fish/Desktop/web2py/applications/admin/', '/home/fish/Desktop/web2py/applications/welcome/', '/home/fish/Desktop/web2py/applications/vsalad/'])"
p1931
asbasbasbag57
(g73
g59
NtRp1932
(dp1933
g62
(dp1934
sg71
g1907
sg64
(lp1935
g57
(g78
g59
NtRp1936
(dp1937
g62
(dp1938
g82
g83
ssg71
g1932
sg64
(lp1939
g880
asbag57
(g78
g59
NtRp1940
(dp1941
g62
(dp1942
g89
g90
ssg71
g1932
sg64
(lp1943
S':'
asbag57
(g78
g59
NtRp1944
(dp1945
g62
(dp1946
sg71
g1932
sg64
(lp1947
g57
(g58
g59
NtRp1948
(dp1949
g62
(dp1950
g70
I4
ssg71
g1944
sg64
(lp1951
g893
asbasbasbag57
(g73
g59
NtRp1952
(dp1953
g62
(dp1954
sg71
g1907
sg64
(lp1955
g57
(g78
g59
NtRp1956
(dp1957
g62
(dp1958
g82
g83
ssg71
g1952
sg64
(lp1959
g902
asbag57
(g78
g59
NtRp1960
(dp1961
g62
(dp1962
g89
g90
ssg71
g1952
sg64
(lp1963
S':'
asbag57
(g78
g59
NtRp1964
(dp1965
g62
(dp1966
sg71
g1952
sg64
(lp1967
g57
(g58
g59
NtRp1968
(dp1969
g62
(dp1970
g70
I4
ssg71
g1964
sg64
(lp1971
g57
(g66
g59
NtRp1972
(dp1973
g62
(dp1974
g70
I3
ssg71
Nsg64
(lp1975
sbasbasbasbag57
(g73
g59
NtRp1976
(dp1977
g62
(dp1978
sg71
g1907
sg64
(lp1979
g57
(g78
g59
NtRp1980
(dp1981
g62
(dp1982
g82
g83
ssg71
g1976
sg64
(lp1983
g927
asbag57
(g78
g59
NtRp1984
(dp1985
g62
(dp1986
g89
g90
ssg71
g1976
sg64
(lp1987
S':'
asbag57
(g78
g59
NtRp1988
(dp1989
g62
(dp1990
sg71
g1976
sg64
(lp1991
g57
(g58
g59
NtRp1992
(dp1993
g62
(dp1994
g70
I4
ssg71
g1988
sg64
(lp1995
S"<Values at 0x255e518: {'verbose': False, 'ip': '127.0.0.1', 'shutdown_timeout': 5, 'taskbar': False, 'nocron': False, 'pid_filename': 'httpserver.pid', 'maxthreads': None, 'softcron': False, 'server_name': 'Master-Fish', 'bpython': False, 'nogui': False, 'port': 8000, 'extcron': False, 'debuglevel': 30, 'test': None, 'folder': '/home/fish/Desktop/web2py', 'config': '', 'import_models': False, 'winservice': '', 'shell': None, 'run': '', 'log_filename': 'httpserver.log', 'args': [''], 'socket_timeout': 5, 'ssl_ca_certificate': None, 'scheduler': None, 'profiler_filename': None, 'ssl_private_key': '', 'password': '<ask>', 'request_queue_size': 5, 'ssl_certificate': '', 'cronjob': False, 'numthreads': None, 'quiet': False, 'interfaces': None, 'minthreads': None, 'timeout': 10, 'plain': False, 'nobanner': False}>"
p1996
asbasbasbag57
(g73
g59
NtRp1997
(dp1998
g62
(dp1999
sg71
g1907
sg64
(lp2000
g57
(g78
g59
NtRp2001
(dp2002
g62
(dp2003
g82
g83
ssg71
g1997
sg64
(lp2004
g949
asbag57
(g78
g59
NtRp2005
(dp2006
g62
(dp2007
g89
g90
ssg71
g1997
sg64
(lp2008
S':'
asbag57
(g78
g59
NtRp2009
(dp2010
g62
(dp2011
sg71
g1997
sg64
(lp2012
g57
(g58
g59
NtRp2013
(dp2014
g62
(dp2015
g70
I4
ssg71
g2009
sg64
(lp2016
S'set([])'
p2017
asbasbasbag57
(g73
g59
NtRp2018
(dp2019
g62
(dp2020
sg71
g1907
sg64
(lp2021
g57
(g78
g59
NtRp2022
(dp2023
g62
(dp2024
g82
g83
ssg71
g2018
sg64
(lp2025
g971
asbag57
(g78
g59
NtRp2026
(dp2027
g62
(dp2028
g89
g90
ssg71
g2018
sg64
(lp2029
S':'
asbag57
(g78
g59
NtRp2030
(dp2031
g62
(dp2032
sg71
g2018
sg64
(lp2033
g57
(g58
g59
NtRp2034
(dp2035
g62
(dp2036
g70
I4
ssg71
g2030
sg64
(lp2037
g100
asbasbasbag57
(g73
g59
NtRp2038
(dp2039
g62
(dp2040
sg71
g1907
sg64
(lp2041
g57
(g78
g59
NtRp2042
(dp2043
g62
(dp2044
g82
g83
ssg71
g2038
sg64
(lp2045
g992
asbag57
(g78
g59
NtRp2046
(dp2047
g62
(dp2048
g89
g90
ssg71
g2038
sg64
(lp2049
S':'
asbag57
(g78
g59
NtRp2050
(dp2051
g62
(dp2052
sg71
g2038
sg64
(lp2053
g57
(g58
g59
NtRp2054
(dp2055
g62
(dp2056
g70
I4
ssg71
g2050
sg64
(lp2057
g1005
asbasbasbag57
(g73
g59
NtRp2058
(dp2059
g62
(dp2060
sg71
g1907
sg64
(lp2061
g57
(g78
g59
NtRp2062
(dp2063
g62
(dp2064
g82
g83
ssg71
g2058
sg64
(lp2065
g1212
asbag57
(g78
g59
NtRp2066
(dp2067
g62
(dp2068
g89
g90
ssg71
g2058
sg64
(lp2069
S':'
asbag57
(g78
g59
NtRp2070
(dp2071
g62
(dp2072
sg71
g2058
sg64
(lp2073
g57
(g58
g59
NtRp2074
(dp2075
g62
(dp2076
g70
I4
ssg71
g2070
sg64
(lp2077
g100
asbasbasbag57
(g73
g59
NtRp2078
(dp2079
g62
(dp2080
sg71
g1907
sg64
(lp2081
g57
(g78
g59
NtRp2082
(dp2083
g62
(dp2084
g82
g83
ssg71
g2078
sg64
(lp2085
g1233
asbag57
(g78
g59
NtRp2086
(dp2087
g62
(dp2088
g89
g90
ssg71
g2078
sg64
(lp2089
S':'
asbag57
(g78
g59
NtRp2090
(dp2091
g62
(dp2092
sg71
g2078
sg64
(lp2093
g57
(g58
g59
NtRp2094
(dp2095
g62
(dp2096
g70
I4
ssg71
g2090
sg64
(lp2097
g100
asbasbasbag57
(g73
g59
NtRp2098
(dp2099
g62
(dp2100
sg71
g1907
sg64
(lp2101
g57
(g78
g59
NtRp2102
(dp2103
g62
(dp2104
g82
g83
ssg71
g2098
sg64
(lp2105
g1471
asbag57
(g78
g59
NtRp2106
(dp2107
g62
(dp2108
g89
g90
ssg71
g2098
sg64
(lp2109
S':'
asbag57
(g78
g59
NtRp2110
(dp2111
g62
(dp2112
sg71
g2098
sg64
(lp2113
g57
(g58
g59
NtRp2114
(dp2115
g62
(dp2116
g70
I4
ssg71
g2110
sg64
(lp2117
g1484
asbasbasbag57
(g73
g59
NtRp2118
(dp2119
g62
(dp2120
sg71
g1907
sg64
(lp2121
g57
(g78
g59
NtRp2122
(dp2123
g62
(dp2124
g82
g83
ssg71
g2118
sg64
(lp2125
g1514
asbag57
(g78
g59
NtRp2126
(dp2127
g62
(dp2128
g89
g90
ssg71
g2118
sg64
(lp2129
S':'
asbag57
(g78
g59
NtRp2130
(dp2131
g62
(dp2132
sg71
g2118
sg64
(lp2133
g57
(g58
g59
NtRp2134
(dp2135
g62
(dp2136
g70
I4
ssg71
g2130
sg64
(lp2137
g57
(g66
g59
NtRp2138
(dp2139
g62
(dp2140
g70
I3
ssg71
Nsg64
(lp2141
g57
(g73
g59
NtRp2142
(dp2143
g62
(dp2144
sg71
g2138
sg64
(lp2145
g57
(g78
g59
NtRp2146
(dp2147
g62
(dp2148
sg71
g2142
sg64
(lp2149
g57
(g58
g59
NtRp2150
(dp2151
g62
(dp2152
g70
I3
ssg71
g2146
sg64
(lp2153
S'1'
asbasbasbag57
(g73
g59
NtRp2154
(dp2155
g62
(dp2156
sg71
g2138
sg64
(lp2157
g57
(g78
g59
NtRp2158
(dp2159
g62
(dp2160
sg71
g2154
sg64
(lp2161
g57
(g58
g59
NtRp2162
(dp2163
g62
(dp2164
g70
I3
ssg71
g2158
sg64
(lp2165
S'99'
p2166
asbasbasbag57
(g73
g59
NtRp2167
(dp2168
g62
(dp2169
sg71
g2138
sg64
(lp2170
g57
(g78
g59
NtRp2171
(dp2172
g62
(dp2173
sg71
g2167
sg64
(lp2174
g57
(g58
g59
NtRp2175
(dp2176
g62
(dp2177
g70
I3
ssg71
g2171
sg64
(lp2178
S'7'
asbasbasbag57
(g73
g59
NtRp2179
(dp2180
g62
(dp2181
sg71
g2138
sg64
(lp2182
g57
(g78
g59
NtRp2183
(dp2184
g62
(dp2185
sg71
g2179
sg64
(lp2186
g57
(g58
g59
NtRp2187
(dp2188
g62
(dp2189
g70
I3
ssg71
g2183
sg64
(lp2190
S'datetime.datetime(2012, 3, 4, 22, 12, 8)'
p2191
asbasbasbag57
(g73
g59
NtRp2192
(dp2193
g62
(dp2194
sg71
g2138
sg64
(lp2195
g57
(g78
g59
NtRp2196
(dp2197
g62
(dp2198
sg71
g2192
sg64
(lp2199
g57
(g58
g59
NtRp2200
(dp2201
g62
(dp2202
g70
I3
ssg71
g2196
sg64
(lp2203
g1593
asbasbasbasbasbasbasbasbasbasbasbag57
(g73
g59
NtRp2204
(dp2205
g62
(dp2206
sg71
g67
sg64
(lp2207
g57
(g78
g59
NtRp2208
(dp2209
g62
(dp2210
g82
g83
ssg71
g2204
sg64
(lp2211
S'is_https'
p2212
asbag57
(g78
g59
NtRp2213
(dp2214
g62
(dp2215
g89
g90
ssg71
g2204
sg64
(lp2216
S':'
asbag57
(g78
g59
NtRp2217
(dp2218
g62
(dp2219
sg71
g2204
sg64
(lp2220
g57
(g58
g59
NtRp2221
(dp2222
g62
(dp2223
g70
I5
ssg71
g2217
sg64
(lp2224
g100
asbasbasbag57
(g73
g59
NtRp2225
(dp2226
g62
(dp2227
sg71
g67
sg64
(lp2228
g57
(g78
g59
NtRp2229
(dp2230
g62
(dp2231
g82
g83
ssg71
g2225
sg64
(lp2232
S'is_local'
p2233
asbag57
(g78
g59
NtRp2234
(dp2235
g62
(dp2236
g89
g90
ssg71
g2225
sg64
(lp2237
S':'
asbag57
(g78
g59
NtRp2238
(dp2239
g62
(dp2240
sg71
g2225
sg64
(lp2241
g57
(g58
g59
NtRp2242
(dp2243
g62
(dp2244
g70
I5
ssg71
g2238
sg64
(lp2245
g1702
asbasbasbag57
(g73
g59
NtRp2246
(dp2247
g62
(dp2248
sg71
g67
sg64
(lp2249
g57
(g78
g59
NtRp2250
(dp2251
g62
(dp2252
g82
g83
ssg71
g2246
sg64
(lp2253
S'is_restful'
p2254
asbag57
(g78
g59
NtRp2255
(dp2256
g62
(dp2257
g89
g90
ssg71
g2246
sg64
(lp2258
S':'
asbag57
(g78
g59
NtRp2259
(dp2260
g62
(dp2261
sg71
g2246
sg64
(lp2262
g57
(g58
g59
NtRp2263
(dp2264
g62
(dp2265
g70
I5
ssg71
g2259
sg64
(lp2266
g100
asbasbasbag57
(g73
g59
NtRp2267
(dp2268
g62
(dp2269
sg71
g67
sg64
(lp2270
g57
(g78
g59
NtRp2271
(dp2272
g62
(dp2273
g82
g83
ssg71
g2267
sg64
(lp2274
S'now'
p2275
asbag57
(g78
g59
NtRp2276
(dp2277
g62
(dp2278
g89
g90
ssg71
g2267
sg64
(lp2279
S':'
asbag57
(g78
g59
NtRp2280
(dp2281
g62
(dp2282
sg71
g2267
sg64
(lp2283
g57
(g58
g59
NtRp2284
(dp2285
g62
(dp2286
g70
I5
ssg71
g2280
sg64
(lp2287
S'datetime.datetime(2012, 4, 19, 3, 48, 46, 792993)'
p2288
asbasbasbag57
(g73
g59
NtRp2289
(dp2290
g62
(dp2291
sg71
g67
sg64
(lp2292
g57
(g78
g59
NtRp2293
(dp2294
g62
(dp2295
g82
g83
ssg71
g2289
sg64
(lp2296
S'post_vars'
p2297
asbag57
(g78
g59
NtRp2298
(dp2299
g62
(dp2300
g89
g90
ssg71
g2289
sg64
(lp2301
S':'
asbag57
(g78
g59
NtRp2302
(dp2303
g62
(dp2304
sg71
g2289
sg64
(lp2305
g57
(g58
g59
NtRp2306
(dp2307
g62
(dp2308
g70
I5
ssg71
g2302
sg64
(lp2309
g57
(g66
g59
NtRp2310
(dp2311
g62
(dp2312
g70
I4
ssg71
Nsg64
(lp2313
sbasbasbasbag57
(g73
g59
NtRp2314
(dp2315
g62
(dp2316
sg71
g67
sg64
(lp2317
g57
(g78
g59
NtRp2318
(dp2319
g62
(dp2320
g82
g83
ssg71
g2314
sg64
(lp2321
S'raw_args'
p2322
asbag57
(g78
g59
NtRp2323
(dp2324
g62
(dp2325
g89
g90
ssg71
g2314
sg64
(lp2326
S':'
asbag57
(g78
g59
NtRp2327
(dp2328
g62
(dp2329
sg71
g2314
sg64
(lp2330
g57
(g58
g59
NtRp2331
(dp2332
g62
(dp2333
g70
I5
ssg71
g2327
sg64
(lp2334
S'4//'
p2335
asbasbasbag57
(g73
g59
NtRp2336
(dp2337
g62
(dp2338
sg71
g67
sg64
(lp2339
g57
(g78
g59
NtRp2340
(dp2341
g62
(dp2342
g82
g83
ssg71
g2336
sg64
(lp2343
S'url'
p2344
asbag57
(g78
g59
NtRp2345
(dp2346
g62
(dp2347
g89
g90
ssg71
g2336
sg64
(lp2348
S':'
asbag57
(g78
g59
NtRp2349
(dp2350
g62
(dp2351
sg71
g2336
sg64
(lp2352
g57
(g58
g59
NtRp2353
(dp2354
g62
(dp2355
g70
I5
ssg71
g2349
sg64
(lp2356
S'/vsalad/default/article/4//'
p2357
asbasbasbag57
(g73
g59
NtRp2358
(dp2359
g62
(dp2360
sg71
g67
sg64
(lp2361
g57
(g78
g59
NtRp2362
(dp2363
g62
(dp2364
g82
g83
ssg71
g2358
sg64
(lp2365
S'utcnow'
p2366
asbag57
(g78
g59
NtRp2367
(dp2368
g62
(dp2369
g89
g90
ssg71
g2358
sg64
(lp2370
S':'
asbag57
(g78
g59
NtRp2371
(dp2372
g62
(dp2373
sg71
g2358
sg64
(lp2374
g57
(g58
g59
NtRp2375
(dp2376
g62
(dp2377
g70
I5
ssg71
g2371
sg64
(lp2378
S'datetime.datetime(2012, 4, 18, 23, 48, 46, 793022)'
p2379
asbasbasbag57
(g73
g59
NtRp2380
(dp2381
g62
(dp2382
sg71
g67
sg64
(lp2383
g57
(g78
g59
NtRp2384
(dp2385
g62
(dp2386
g82
g83
ssg71
g2380
sg64
(lp2387
S'uuid'
p2388
asbag57
(g78
g59
NtRp2389
(dp2390
g62
(dp2391
g89
g90
ssg71
g2380
sg64
(lp2392
S':'
asbag57
(g78
g59
NtRp2393
(dp2394
g62
(dp2395
sg71
g2380
sg64
(lp2396
g57
(g58
g59
NtRp2397
(dp2398
g62
(dp2399
g70
I5
ssg71
g2393
sg64
(lp2400
S'vsalad/127.0.0.1.2012-04-19.03-48-46.0a4999cd-bcb3-4f0b-ad47-977de83783b6'
p2401
asbasbasbag57
(g73
g59
NtRp2402
(dp2403
g62
(dp2404
sg71
g67
sg64
(lp2405
g57
(g78
g59
NtRp2406
(dp2407
g62
(dp2408
g82
g83
ssg71
g2402
sg64
(lp2409
S'vars'
p2410
asbag57
(g78
g59
NtRp2411
(dp2412
g62
(dp2413
g89
g90
ssg71
g2402
sg64
(lp2414
S':'
asbag57
(g78
g59
NtRp2415
(dp2416
g62
(dp2417
sg71
g2402
sg64
(lp2418
g57
(g58
g59
NtRp2419
(dp2420
g62
(dp2421
g70
I5
ssg71
g2415
sg64
(lp2422
g57
(g66
g59
NtRp2423
(dp2424
g62
(dp2425
g70
I4
ssg71
Nsg64
(lp2426
sbasbasbasbag57
(g73
g59
NtRp2427
(dp2428
g62
(dp2429
sg71
g67
sg64
(lp2430
g57
(g78
g59
NtRp2431
(dp2432
g62
(dp2433
g82
g83
ssg71
g2427
sg64
(lp2434
S'wsgi'
p2435
asbag57
(g78
g59
NtRp2436
(dp2437
g62
(dp2438
g89
g90
ssg71
g2427
sg64
(lp2439
S':'
asbag57
(g78
g59
NtRp2440
(dp2441
g62
(dp2442
sg71
g2427
sg64
(lp2443
g57
(g58
g59
NtRp2444
(dp2445
g62
(dp2446
g70
I5
ssg71
g2440
sg64
(lp2447
g57
(g66
g59
NtRp2448
(dp2449
g62
(dp2450
g70
I4
ssg71
Nsg64
(lp2451
g57
(g73
g59
NtRp2452
(dp2453
g62
(dp2454
sg71
g2448
sg64
(lp2455
g57
(g78
g59
NtRp2456
(dp2457
g62
(dp2458
g82
g83
ssg71
g2452
sg64
(lp2459
S'environ'
p2460
asbag57
(g78
g59
NtRp2461
(dp2462
g62
(dp2463
g89
g90
ssg71
g2452
sg64
(lp2464
S':'
asbag57
(g78
g59
NtRp2465
(dp2466
g62
(dp2467
sg71
g2452
sg64
(lp2468
g57
(g58
g59
NtRp2469
(dp2470
g62
(dp2471
g70
I4
ssg71
g2465
sg64
(lp2472
g57
(g66
g59
NtRp2473
(dp2474
g62
(dp2475
g70
I3
ssg71
Nsg64
(lp2476
g57
(g73
g59
NtRp2477
(dp2478
g62
(dp2479
sg71
g2473
sg64
(lp2480
g57
(g78
g59
NtRp2481
(dp2482
g62
(dp2483
g82
g83
ssg71
g2477
sg64
(lp2484
S'HTTP_ACCEPT'
p2485
asbag57
(g78
g59
NtRp2486
(dp2487
g62
(dp2488
g89
g90
ssg71
g2477
sg64
(lp2489
S':'
asbag57
(g78
g59
NtRp2490
(dp2491
g62
(dp2492
sg71
g2477
sg64
(lp2493
g57
(g58
g59
NtRp2494
(dp2495
g62
(dp2496
g70
I3
ssg71
g2490
sg64
(lp2497
g1027
asbasbasbag57
(g73
g59
NtRp2498
(dp2499
g62
(dp2500
sg71
g2473
sg64
(lp2501
g57
(g78
g59
NtRp2502
(dp2503
g62
(dp2504
g82
g83
ssg71
g2498
sg64
(lp2505
S'HTTP_ACCEPT_CHARSET'
p2506
asbag57
(g78
g59
NtRp2507
(dp2508
g62
(dp2509
g89
g90
ssg71
g2498
sg64
(lp2510
S':'
asbag57
(g78
g59
NtRp2511
(dp2512
g62
(dp2513
sg71
g2498
sg64
(lp2514
g57
(g58
g59
NtRp2515
(dp2516
g62
(dp2517
g70
I3
ssg71
g2511
sg64
(lp2518
g1049
asbasbasbag57
(g73
g59
NtRp2519
(dp2520
g62
(dp2521
sg71
g2473
sg64
(lp2522
g57
(g78
g59
NtRp2523
(dp2524
g62
(dp2525
g82
g83
ssg71
g2519
sg64
(lp2526
S'HTTP_ACCEPT_ENCODING'
p2527
asbag57
(g78
g59
NtRp2528
(dp2529
g62
(dp2530
g89
g90
ssg71
g2519
sg64
(lp2531
S':'
asbag57
(g78
g59
NtRp2532
(dp2533
g62
(dp2534
sg71
g2519
sg64
(lp2535
g57
(g58
g59
NtRp2536
(dp2537
g62
(dp2538
g70
I3
ssg71
g2532
sg64
(lp2539
g1071
asbasbasbag57
(g73
g59
NtRp2540
(dp2541
g62
(dp2542
sg71
g2473
sg64
(lp2543
g57
(g78
g59
NtRp2544
(dp2545
g62
(dp2546
g82
g83
ssg71
g2540
sg64
(lp2547
S'HTTP_ACCEPT_LANGUAGE'
p2548
asbag57
(g78
g59
NtRp2549
(dp2550
g62
(dp2551
g89
g90
ssg71
g2540
sg64
(lp2552
S':'
asbag57
(g78
g59
NtRp2553
(dp2554
g62
(dp2555
sg71
g2540
sg64
(lp2556
g57
(g58
g59
NtRp2557
(dp2558
g62
(dp2559
g70
I3
ssg71
g2553
sg64
(lp2560
g1093
asbasbasbag57
(g73
g59
NtRp2561
(dp2562
g62
(dp2563
sg71
g2473
sg64
(lp2564
g57
(g78
g59
NtRp2565
(dp2566
g62
(dp2567
g82
g83
ssg71
g2561
sg64
(lp2568
S'HTTP_CONNECTION'
p2569
asbag57
(g78
g59
NtRp2570
(dp2571
g62
(dp2572
g89
g90
ssg71
g2561
sg64
(lp2573
S':'
asbag57
(g78
g59
NtRp2574
(dp2575
g62
(dp2576
sg71
g2561
sg64
(lp2577
g57
(g58
g59
NtRp2578
(dp2579
g62
(dp2580
g70
I3
ssg71
g2574
sg64
(lp2581
g1115
asbasbasbag57
(g73
g59
NtRp2582
(dp2583
g62
(dp2584
sg71
g2473
sg64
(lp2585
g57
(g78
g59
NtRp2586
(dp2587
g62
(dp2588
g82
g83
ssg71
g2582
sg64
(lp2589
S'HTTP_COOKIE'
p2590
asbag57
(g78
g59
NtRp2591
(dp2592
g62
(dp2593
g89
g90
ssg71
g2582
sg64
(lp2594
S':'
asbag57
(g78
g59
NtRp2595
(dp2596
g62
(dp2597
sg71
g2582
sg64
(lp2598
g57
(g58
g59
NtRp2599
(dp2600
g62
(dp2601
g70
I3
ssg71
g2595
sg64
(lp2602
g1137
asbasbasbag57
(g73
g59
NtRp2603
(dp2604
g62
(dp2605
sg71
g2473
sg64
(lp2606
g57
(g78
g59
NtRp2607
(dp2608
g62
(dp2609
g82
g83
ssg71
g2603
sg64
(lp2610
S'HTTP_HOST'
p2611
asbag57
(g78
g59
NtRp2612
(dp2613
g62
(dp2614
g89
g90
ssg71
g2603
sg64
(lp2615
S':'
asbag57
(g78
g59
NtRp2616
(dp2617
g62
(dp2618
sg71
g2603
sg64
(lp2619
g57
(g58
g59
NtRp2620
(dp2621
g62
(dp2622
g70
I3
ssg71
g2616
sg64
(lp2623
g1159
asbasbasbag57
(g73
g59
NtRp2624
(dp2625
g62
(dp2626
sg71
g2473
sg64
(lp2627
g57
(g78
g59
NtRp2628
(dp2629
g62
(dp2630
g82
g83
ssg71
g2624
sg64
(lp2631
S'HTTP_REFERER'
p2632
asbag57
(g78
g59
NtRp2633
(dp2634
g62
(dp2635
g89
g90
ssg71
g2624
sg64
(lp2636
S':'
asbag57
(g78
g59
NtRp2637
(dp2638
g62
(dp2639
sg71
g2624
sg64
(lp2640
g57
(g58
g59
NtRp2641
(dp2642
g62
(dp2643
g70
I3
ssg71
g2637
sg64
(lp2644
g1181
asbasbasbag57
(g73
g59
NtRp2645
(dp2646
g62
(dp2647
sg71
g2473
sg64
(lp2648
g57
(g78
g59
NtRp2649
(dp2650
g62
(dp2651
g82
g83
ssg71
g2645
sg64
(lp2652
S'HTTP_USER_AGENT'
p2653
asbag57
(g78
g59
NtRp2654
(dp2655
g62
(dp2656
g89
g90
ssg71
g2645
sg64
(lp2657
S':'
asbag57
(g78
g59
NtRp2658
(dp2659
g62
(dp2660
sg71
g2645
sg64
(lp2661
g57
(g58
g59
NtRp2662
(dp2663
g62
(dp2664
g70
I3
ssg71
g2658
sg64
(lp2665
g1203
asbasbasbag57
(g73
g59
NtRp2666
(dp2667
g62
(dp2668
sg71
g2473
sg64
(lp2669
g57
(g78
g59
NtRp2670
(dp2671
g62
(dp2672
g82
g83
ssg71
g2666
sg64
(lp2673
S'PATH_INFO'
p2674
asbag57
(g78
g59
NtRp2675
(dp2676
g62
(dp2677
g89
g90
ssg71
g2666
sg64
(lp2678
S':'
asbag57
(g78
g59
NtRp2679
(dp2680
g62
(dp2681
sg71
g2666
sg64
(lp2682
g57
(g58
g59
NtRp2683
(dp2684
g62
(dp2685
g70
I3
ssg71
g2679
sg64
(lp2686
g1267
asbasbasbag57
(g73
g59
NtRp2687
(dp2688
g62
(dp2689
sg71
g2473
sg64
(lp2690
g57
(g78
g59
NtRp2691
(dp2692
g62
(dp2693
g82
g83
ssg71
g2687
sg64
(lp2694
S'QUERY_STRING'
p2695
asbag57
(g78
g59
NtRp2696
(dp2697
g62
(dp2698
g89
g90
ssg71
g2687
sg64
(lp2699
S':'
asbag57
(g78
g59
NtRp2700
(dp2701
g62
(dp2702
sg71
g2687
sg64
(lp2703
g57
(g58
g59
NtRp2704
(dp2705
g62
(dp2706
g70
I3
ssg71
g2700
sg64
(lp2707
S''
asbasbasbag57
(g73
g59
NtRp2708
(dp2709
g62
(dp2710
sg71
g2473
sg64
(lp2711
g57
(g78
g59
NtRp2712
(dp2713
g62
(dp2714
g82
g83
ssg71
g2708
sg64
(lp2715
S'REMOTE_ADDR'
p2716
asbag57
(g78
g59
NtRp2717
(dp2718
g62
(dp2719
g89
g90
ssg71
g2708
sg64
(lp2720
S':'
asbag57
(g78
g59
NtRp2721
(dp2722
g62
(dp2723
sg71
g2708
sg64
(lp2724
g57
(g58
g59
NtRp2725
(dp2726
g62
(dp2727
g70
I3
ssg71
g2721
sg64
(lp2728
g214
asbasbasbag57
(g73
g59
NtRp2729
(dp2730
g62
(dp2731
sg71
g2473
sg64
(lp2732
g57
(g78
g59
NtRp2733
(dp2734
g62
(dp2735
g82
g83
ssg71
g2729
sg64
(lp2736
S'REMOTE_PORT'
p2737
asbag57
(g78
g59
NtRp2738
(dp2739
g62
(dp2740
g89
g90
ssg71
g2729
sg64
(lp2741
S':'
asbag57
(g78
g59
NtRp2742
(dp2743
g62
(dp2744
sg71
g2729
sg64
(lp2745
g57
(g58
g59
NtRp2746
(dp2747
g62
(dp2748
g70
I3
ssg71
g2742
sg64
(lp2749
g1331
asbasbasbag57
(g73
g59
NtRp2750
(dp2751
g62
(dp2752
sg71
g2473
sg64
(lp2753
g57
(g78
g59
NtRp2754
(dp2755
g62
(dp2756
g82
g83
ssg71
g2750
sg64
(lp2757
S'REQUEST_METHOD'
p2758
asbag57
(g78
g59
NtRp2759
(dp2760
g62
(dp2761
g89
g90
ssg71
g2750
sg64
(lp2762
S':'
asbag57
(g78
g59
NtRp2763
(dp2764
g62
(dp2765
sg71
g2750
sg64
(lp2766
g57
(g58
g59
NtRp2767
(dp2768
g62
(dp2769
g70
I3
ssg71
g2763
sg64
(lp2770
g1353
asbasbasbag57
(g73
g59
NtRp2771
(dp2772
g62
(dp2773
sg71
g2473
sg64
(lp2774
g57
(g78
g59
NtRp2775
(dp2776
g62
(dp2777
g82
g83
ssg71
g2771
sg64
(lp2778
S'SCRIPT_NAME'
p2779
asbag57
(g78
g59
NtRp2780
(dp2781
g62
(dp2782
g89
g90
ssg71
g2771
sg64
(lp2783
S':'
asbag57
(g78
g59
NtRp2784
(dp2785
g62
(dp2786
sg71
g2771
sg64
(lp2787
g57
(g58
g59
NtRp2788
(dp2789
g62
(dp2790
g70
I3
ssg71
g2784
sg64
(lp2791
S''
asbasbasbag57
(g73
g59
NtRp2792
(dp2793
g62
(dp2794
sg71
g2473
sg64
(lp2795
g57
(g78
g59
NtRp2796
(dp2797
g62
(dp2798
g82
g83
ssg71
g2792
sg64
(lp2799
S'SERVER_NAME'
p2800
asbag57
(g78
g59
NtRp2801
(dp2802
g62
(dp2803
g89
g90
ssg71
g2792
sg64
(lp2804
S':'
asbag57
(g78
g59
NtRp2805
(dp2806
g62
(dp2807
sg71
g2792
sg64
(lp2808
g57
(g58
g59
NtRp2809
(dp2810
g62
(dp2811
g70
I3
ssg71
g2805
sg64
(lp2812
g1396
asbasbasbag57
(g73
g59
NtRp2813
(dp2814
g62
(dp2815
sg71
g2473
sg64
(lp2816
g57
(g78
g59
NtRp2817
(dp2818
g62
(dp2819
g82
g83
ssg71
g2813
sg64
(lp2820
S'SERVER_PORT'
p2821
asbag57
(g78
g59
NtRp2822
(dp2823
g62
(dp2824
g89
g90
ssg71
g2813
sg64
(lp2825
S':'
asbag57
(g78
g59
NtRp2826
(dp2827
g62
(dp2828
sg71
g2813
sg64
(lp2829
g57
(g58
g59
NtRp2830
(dp2831
g62
(dp2832
g70
I3
ssg71
g2826
sg64
(lp2833
g1418
asbasbasbag57
(g73
g59
NtRp2834
(dp2835
g62
(dp2836
sg71
g2473
sg64
(lp2837
g57
(g78
g59
NtRp2838
(dp2839
g62
(dp2840
g82
g83
ssg71
g2834
sg64
(lp2841
S'SERVER_PROTOCOL'
p2842
asbag57
(g78
g59
NtRp2843
(dp2844
g62
(dp2845
g89
g90
ssg71
g2834
sg64
(lp2846
S':'
asbag57
(g78
g59
NtRp2847
(dp2848
g62
(dp2849
sg71
g2834
sg64
(lp2850
g57
(g58
g59
NtRp2851
(dp2852
g62
(dp2853
g70
I3
ssg71
g2847
sg64
(lp2854
g1440
asbasbasbag57
(g73
g59
NtRp2855
(dp2856
g62
(dp2857
sg71
g2473
sg64
(lp2858
g57
(g78
g59
NtRp2859
(dp2860
g62
(dp2861
g82
g83
ssg71
g2855
sg64
(lp2862
S'SERVER_SOFTWARE'
p2863
asbag57
(g78
g59
NtRp2864
(dp2865
g62
(dp2866
g89
g90
ssg71
g2855
sg64
(lp2867
S':'
asbag57
(g78
g59
NtRp2868
(dp2869
g62
(dp2870
sg71
g2855
sg64
(lp2871
g57
(g58
g59
NtRp2872
(dp2873
g62
(dp2874
g70
I3
ssg71
g2868
sg64
(lp2875
g1462
asbasbasbag57
(g73
g59
NtRp2876
(dp2877
g62
(dp2878
sg71
g2473
sg64
(lp2879
g57
(g78
g59
NtRp2880
(dp2881
g62
(dp2882
g82
g83
ssg71
g2876
sg64
(lp2883
S'wsgi.errors'
p2884
asbag57
(g78
g59
NtRp2885
(dp2886
g62
(dp2887
g89
g90
ssg71
g2876
sg64
(lp2888
S':'
asbag57
(g78
g59
NtRp2889
(dp2890
g62
(dp2891
sg71
g2876
sg64
(lp2892
g57
(g58
g59
NtRp2893
(dp2894
g62
(dp2895
g70
I3
ssg71
g2889
sg64
(lp2896
S"<open file '<stderr>', mode 'w' at 0x7f82c0a93270>"
p2897
asbasbasbag57
(g73
g59
NtRp2898
(dp2899
g62
(dp2900
sg71
g2473
sg64
(lp2901
g57
(g78
g59
NtRp2902
(dp2903
g62
(dp2904
g82
g83
ssg71
g2898
sg64
(lp2905
S'wsgi.file_wrapper'
p2906
asbag57
(g78
g59
NtRp2907
(dp2908
g62
(dp2909
g89
g90
ssg71
g2898
sg64
(lp2910
S':'
asbag57
(g78
g59
NtRp2911
(dp2912
g62
(dp2913
sg71
g2898
sg64
(lp2914
g57
(g58
g59
NtRp2915
(dp2916
g62
(dp2917
g70
I3
ssg71
g2911
sg64
(lp2918
S'<class wsgiref.util.FileWrapper at 0x2436870>'
p2919
asbasbasbag57
(g73
g59
NtRp2920
(dp2921
g62
(dp2922
sg71
g2473
sg64
(lp2923
g57
(g78
g59
NtRp2924
(dp2925
g62
(dp2926
g82
g83
ssg71
g2920
sg64
(lp2927
S'wsgi.input'
p2928
asbag57
(g78
g59
NtRp2929
(dp2930
g62
(dp2931
g89
g90
ssg71
g2920
sg64
(lp2932
S':'
asbag57
(g78
g59
NtRp2933
(dp2934
g62
(dp2935
sg71
g2920
sg64
(lp2936
g57
(g58
g59
NtRp2937
(dp2938
g62
(dp2939
g70
I3
ssg71
g2933
sg64
(lp2940
S'<cStringIO.StringO object at 0x3215340>'
p2941
asbasbasbag57
(g73
g59
NtRp2942
(dp2943
g62
(dp2944
sg71
g2473
sg64
(lp2945
g57
(g78
g59
NtRp2946
(dp2947
g62
(dp2948
g82
g83
ssg71
g2942
sg64
(lp2949
S'wsgi.multiprocess'
p2950
asbag57
(g78
g59
NtRp2951
(dp2952
g62
(dp2953
g89
g90
ssg71
g2942
sg64
(lp2954
S':'
asbag57
(g78
g59
NtRp2955
(dp2956
g62
(dp2957
sg71
g2942
sg64
(lp2958
g57
(g58
g59
NtRp2959
(dp2960
g62
(dp2961
g70
I3
ssg71
g2955
sg64
(lp2962
g100
asbasbasbag57
(g73
g59
NtRp2963
(dp2964
g62
(dp2965
sg71
g2473
sg64
(lp2966
g57
(g78
g59
NtRp2967
(dp2968
g62
(dp2969
g82
g83
ssg71
g2963
sg64
(lp2970
S'wsgi.multithread'
p2971
asbag57
(g78
g59
NtRp2972
(dp2973
g62
(dp2974
g89
g90
ssg71
g2963
sg64
(lp2975
S':'
asbag57
(g78
g59
NtRp2976
(dp2977
g62
(dp2978
sg71
g2963
sg64
(lp2979
g57
(g58
g59
NtRp2980
(dp2981
g62
(dp2982
g70
I3
ssg71
g2976
sg64
(lp2983
g1702
asbasbasbag57
(g73
g59
NtRp2984
(dp2985
g62
(dp2986
sg71
g2473
sg64
(lp2987
g57
(g78
g59
NtRp2988
(dp2989
g62
(dp2990
g82
g83
ssg71
g2984
sg64
(lp2991
S'wsgi.run_once'
p2992
asbag57
(g78
g59
NtRp2993
(dp2994
g62
(dp2995
g89
g90
ssg71
g2984
sg64
(lp2996
S':'
asbag57
(g78
g59
NtRp2997
(dp2998
g62
(dp2999
sg71
g2984
sg64
(lp3000
g57
(g58
g59
NtRp3001
(dp3002
g62
(dp3003
g70
I3
ssg71
g2997
sg64
(lp3004
g100
asbasbasbag57
(g73
g59
NtRp3005
(dp3006
g62
(dp3007
sg71
g2473
sg64
(lp3008
g57
(g78
g59
NtRp3009
(dp3010
g62
(dp3011
g82
g83
ssg71
g3005
sg64
(lp3012
S'wsgi.url_scheme'
p3013
asbag57
(g78
g59
NtRp3014
(dp3015
g62
(dp3016
g89
g90
ssg71
g3005
sg64
(lp3017
S':'
asbag57
(g78
g59
NtRp3018
(dp3019
g62
(dp3020
sg71
g3005
sg64
(lp3021
g57
(g58
g59
NtRp3022
(dp3023
g62
(dp3024
g70
I3
ssg71
g3018
sg64
(lp3025
g1745
asbasbasbag57
(g73
g59
NtRp3026
(dp3027
g62
(dp3028
sg71
g2473
sg64
(lp3029
g57
(g78
g59
NtRp3030
(dp3031
g62
(dp3032
g82
g83
ssg71
g3026
sg64
(lp3033
S'wsgi.version'
p3034
asbag57
(g78
g59
NtRp3035
(dp3036
g62
(dp3037
g89
g90
ssg71
g3026
sg64
(lp3038
S':'
asbag57
(g78
g59
NtRp3039
(dp3040
g62
(dp3041
sg71
g3026
sg64
(lp3042
g57
(g58
g59
NtRp3043
(dp3044
g62
(dp3045
g70
I3
ssg71
g3039
sg64
(lp3046
S'1'
asbasbasbasbasbasbasbasbasbasbasbasbasbsS'frames'
p3047
(lp3048
(dp3049
S'file'
p3050
S'/home/fish/Desktop/web2py/gluon/restricted.py'
p3051
sS'dump'
p3052
(dp3053
S'environment'
p3054
S"{'A': <class 'gluon.html.A'>, 'Auth': <class 'gluon.tools.Auth'>, 'B': <class 'gluon.html.B'>, 'BEAUTIFY': <class 'gluon.html.BEAUTIFY'>, 'BODY': <class 'gluon.html.BODY'>, 'BR': <class 'gluon.html.BR'>, 'BUTTON': <class 'gluon.html.BUTTON'>, 'CAT': <class 'gluon.html.CAT'>, 'CENTER': <class 'gluon.html.CENTER'>, 'CLEANUP': <class 'gluon.validators.CLEANUP'>, ...}"
p3055
sS'ccode'
p3056
S'<code object <module> at 0x3711b30, file "/home/...tions/vsalad/views/default/article.html", line 1>'
p3057
ssS'lnum'
p3058
I205
sS'lines'
p3059
(dp3060
I200
S'    try:'
p3061
sI201
S'        if type(code) == types.CodeType:'
p3062
sI202
S'            ccode = code'
p3063
sI203
S'        else:'
p3064
sI204
S'            ccode = compile2(code,layer)'
p3065
sI205
S'        exec ccode in environment'
p3066
sI206
S'    except HTTP:'
p3067
sI207
S'        raise'
p3068
sI208
S'    except RestrictedError:'
p3069
sI209
S'        # do not encapsulate (obfuscate) the original RestrictedError'
p3070
ssS'call'
p3071
S'(code=\'response.write(\\\'<html lang="en">\\\\n<head>\\\\n    <s...ponse.write(\\\'\\\\n</body>\\\\n</html>\\\\n\\\', escape=False)\', environment={\'A\': <class \'gluon.html.A\'>, \'Auth\': <class \'gluon.tools.Auth\'>, \'B\': <class \'gluon.html.B\'>, \'BEAUTIFY\': <class \'gluon.html.BEAUTIFY\'>, \'BODY\': <class \'gluon.html.BODY\'>, \'BR\': <class \'gluon.html.BR\'>, \'BUTTON\': <class \'gluon.html.BUTTON\'>, \'CAT\': <class \'gluon.html.CAT\'>, \'CENTER\': <class \'gluon.html.CENTER\'>, \'CLEANUP\': <class \'gluon.validators.CLEANUP\'>, ...}, layer=\'/home/fish/Desktop/web2py/applications/vsalad/views/default/article.html\')'
p3072
sS'func'
p3073
S'restricted'
p3074
sa(dp3075
g3050
S'/home/fish/Desktop/web2py/applications/vsalad/views/default/article.html'
p3076
sg3052
(dp3077
sg3058
I17
sg3059
(dp3078
I8
S"response.write(URL('static','css/bootstrap.css'))"
p3079
sI9
S'response.write(\'" rel="stylesheet">\\n    <link href="\', escape=False)'
p3080
sI10
S"response.write(URL('static','css/bootstrap-responsive.css'))"
p3081
sI11
S'response.write(\'" rel="stylesheet">\\n\\n  \\n</head>\\n<body>\\n<div id="welcome-panel" class="hero-unit row">\\n            \\n\\n\\n        <div id="title">\\n                <h1 class="voodoo span">V&#3232;&#3232;doo {</h1> \\n                <a class="span" href=""><img src="\', escape=False)'
p3082
sI12
S"response.write(URL('static', 'images/vfish.jpg'))"
p3083
sI13
S'response.write(\'"/></a>\\n                 <h1 class="tuna span">} Tuna</h1>\\n       </div>\\n    </div>\\n\\n\\n\', escape=False)'
p3084
sI14
S'response.write(\'\\n<div id="content" class="row">\\n\', escape=False)'
p3085
sI15
S'if request.args(0):'
p3086
sI16
S'    response.write("\\n  <div id=\'article\'>\\n    <h1>", escape=False)'
p3087
sI17
S'    response.write(title)'
p3088
sI18
S'    response.write(" </h1>\\n    </div>\\n    <div id=\'user-text\'>\\n    <p>", escape=False)'
p3089
sI19
S'    response.write(content)'
p3090
sI20
S"    response.write('</p>\\n    </div>\\n', escape=False)"
p3091
sI21
S'    pass'
p3092
sI22
S"response.write('\\n</div>\\n', escape=False)"
p3093
sI23
S"response.write('\\n</body>\\n</html>\\n', escape=False)"
p3094
ssg3071
S'()'
p3095
sg3073
S'<module>'
p3096
sasS'pyver'
p3097
S'Python 2.7.2+: /usr/bin/python'
p3098
sS'session'
p3099
g57
(g58
g59
NtRp3100
(dp3101
g62
(dp3102
sg64
(lp3103
g57
(g66
g59
NtRp3104
(dp3105
g62
(dp3106
g70
I5
ssg71
Nsg64
(lp3107
g57
(g73
g59
NtRp3108
(dp3109
g62
(dp3110
sg71
g3104
sg64
(lp3111
g57
(g78
g59
NtRp3112
(dp3113
g62
(dp3114
g82
g83
ssg71
g3108
sg64
(lp3115
S'last_query'
p3116
asbag57
(g78
g59
NtRp3117
(dp3118
g62
(dp3119
g89
g90
ssg71
g3108
sg64
(lp3120
S':'
asbag57
(g78
g59
NtRp3121
(dp3122
g62
(dp3123
sg71
g3108
sg64
(lp3124
g57
(g58
g59
NtRp3125
(dp3126
g62
(dp3127
g70
I5
ssg71
g3121
sg64
(lp3128
S'db.article.id>0'
p3129
asbasbasbasbasbsS'etype'
p3130
S"<type 'exceptions.NameError'>"
p3131
sS'date'
p3132
S'Thu Apr 19 03:48:46 2012'
p3133
sS'response'
p3134
g57
(g58
g59
NtRp3135
(dp3136
g62
(dp3137
sg64
(lp3138
g57
(g66
g59
NtRp3139
(dp3140
g62
(dp3141
g70
I5
ssg71
Nsg64
(lp3142
g57
(g73
g59
NtRp3143
(dp3144
g62
(dp3145
sg71
g3139
sg64
(lp3146
g57
(g78
g59
NtRp3147
(dp3148
g62
(dp3149
g82
g83
ssg71
g3143
sg64
(lp3150
g179
asbag57
(g78
g59
NtRp3151
(dp3152
g62
(dp3153
g89
g90
ssg71
g3143
sg64
(lp3154
S':'
asbag57
(g78
g59
NtRp3155
(dp3156
g62
(dp3157
sg71
g3143
sg64
(lp3158
g57
(g58
g59
NtRp3159
(dp3160
g62
(dp3161
g70
I5
ssg71
g3155
sg64
(lp3162
S'<cStringIO.StringO object at 0x35a0dc0>'
p3163
asbasbasbag57
(g73
g59
NtRp3164
(dp3165
g62
(dp3166
sg71
g3139
sg64
(lp3167
g57
(g78
g59
NtRp3168
(dp3169
g62
(dp3170
g82
g83
ssg71
g3164
sg64
(lp3171
g245
asbag57
(g78
g59
NtRp3172
(dp3173
g62
(dp3174
g89
g90
ssg71
g3164
sg64
(lp3175
S':'
asbag57
(g78
g59
NtRp3176
(dp3177
g62
(dp3178
sg71
g3164
sg64
(lp3179
g57
(g58
g59
NtRp3180
(dp3181
g62
(dp3182
g70
I5
ssg71
g3176
sg64
(lp3183
g57
(g66
g59
NtRp3184
(dp3185
g62
(dp3186
g70
I4
ssg71
Nsg64
(lp3187
g57
(g73
g59
NtRp3188
(dp3189
g62
(dp3190
sg71
g3184
sg64
(lp3191
g57
(g78
g59
NtRp3192
(dp3193
g62
(dp3194
g82
g83
ssg71
g3188
sg64
(lp3195
S'session_id_vsalad'
p3196
asbag57
(g78
g59
NtRp3197
(dp3198
g62
(dp3199
g89
g90
ssg71
g3188
sg64
(lp3200
S':'
asbag57
(g78
g59
NtRp3201
(dp3202
g62
(dp3203
sg71
g3188
sg64
(lp3204
g57
(g58
g59
NtRp3205
(dp3206
g62
(dp3207
g70
I4
ssg71
g3201
sg64
(lp3208
g57
(g66
g59
NtRp3209
(dp3210
g62
(dp3211
g70
I3
ssg71
Nsg64
(lp3212
g57
(g73
g59
NtRp3213
(dp3214
g62
(dp3215
sg71
g3209
sg64
(lp3216
g57
(g78
g59
NtRp3217
(dp3218
g62
(dp3219
g82
g83
ssg71
g3213
sg64
(lp3220
g295
asbag57
(g78
g59
NtRp3221
(dp3222
g62
(dp3223
g89
g90
ssg71
g3213
sg64
(lp3224
S':'
asbag57
(g78
g59
NtRp3225
(dp3226
g62
(dp3227
sg71
g3213
sg64
(lp3228
g57
(g58
g59
NtRp3229
(dp3230
g62
(dp3231
g70
I3
ssg71
g3225
sg64
(lp3232
S''
asbasbasbag57
(g73
g59
NtRp3233
(dp3234
g62
(dp3235
sg71
g3209
sg64
(lp3236
g57
(g78
g59
NtRp3237
(dp3238
g62
(dp3239
g82
g83
ssg71
g3233
sg64
(lp3240
g316
asbag57
(g78
g59
NtRp3241
(dp3242
g62
(dp3243
g89
g90
ssg71
g3233
sg64
(lp3244
S':'
asbag57
(g78
g59
NtRp3245
(dp3246
g62
(dp3247
sg71
g3233
sg64
(lp3248
g57
(g58
g59
NtRp3249
(dp3250
g62
(dp3251
g70
I3
ssg71
g3245
sg64
(lp3252
S''
asbasbasbag57
(g73
g59
NtRp3253
(dp3254
g62
(dp3255
sg71
g3209
sg64
(lp3256
g57
(g78
g59
NtRp3257
(dp3258
g62
(dp3259
g82
g83
ssg71
g3253
sg64
(lp3260
g337
asbag57
(g78
g59
NtRp3261
(dp3262
g62
(dp3263
g89
g90
ssg71
g3253
sg64
(lp3264
S':'
asbag57
(g78
g59
NtRp3265
(dp3266
g62
(dp3267
sg71
g3253
sg64
(lp3268
g57
(g58
g59
NtRp3269
(dp3270
g62
(dp3271
g70
I3
ssg71
g3265
sg64
(lp3272
S''
asbasbasbag57
(g73
g59
NtRp3273
(dp3274
g62
(dp3275
sg71
g3209
sg64
(lp3276
g57
(g78
g59
NtRp3277
(dp3278
g62
(dp3279
g82
g83
ssg71
g3273
sg64
(lp3280
g358
asbag57
(g78
g59
NtRp3281
(dp3282
g62
(dp3283
g89
g90
ssg71
g3273
sg64
(lp3284
S':'
asbag57
(g78
g59
NtRp3285
(dp3286
g62
(dp3287
sg71
g3273
sg64
(lp3288
g57
(g58
g59
NtRp3289
(dp3290
g62
(dp3291
g70
I3
ssg71
g3285
sg64
(lp3292
S''
asbasbasbag57
(g73
g59
NtRp3293
(dp3294
g62
(dp3295
sg71
g3209
sg64
(lp3296
g57
(g78
g59
NtRp3297
(dp3298
g62
(dp3299
g82
g83
ssg71
g3293
sg64
(lp3300
g379
asbag57
(g78
g59
NtRp3301
(dp3302
g62
(dp3303
g89
g90
ssg71
g3293
sg64
(lp3304
S':'
asbag57
(g78
g59
NtRp3305
(dp3306
g62
(dp3307
sg71
g3293
sg64
(lp3308
g57
(g58
g59
NtRp3309
(dp3310
g62
(dp3311
g70
I3
ssg71
g3305
sg64
(lp3312
S''
asbasbasbag57
(g73
g59
NtRp3313
(dp3314
g62
(dp3315
sg71
g3209
sg64
(lp3316
g57
(g78
g59
NtRp3317
(dp3318
g62
(dp3319
g82
g83
ssg71
g3313
sg64
(lp3320
g400
asbag57
(g78
g59
NtRp3321
(dp3322
g62
(dp3323
g89
g90
ssg71
g3313
sg64
(lp3324
S':'
asbag57
(g78
g59
NtRp3325
(dp3326
g62
(dp3327
sg71
g3313
sg64
(lp3328
g57
(g58
g59
NtRp3329
(dp3330
g62
(dp3331
g70
I3
ssg71
g3325
sg64
(lp3332
S'/'
asbasbasbag57
(g73
g59
NtRp3333
(dp3334
g62
(dp3335
sg71
g3209
sg64
(lp3336
g57
(g78
g59
NtRp3337
(dp3338
g62
(dp3339
g82
g83
ssg71
g3333
sg64
(lp3340
g421
asbag57
(g78
g59
NtRp3341
(dp3342
g62
(dp3343
g89
g90
ssg71
g3333
sg64
(lp3344
S':'
asbag57
(g78
g59
NtRp3345
(dp3346
g62
(dp3347
sg71
g3333
sg64
(lp3348
g57
(g58
g59
NtRp3349
(dp3350
g62
(dp3351
g70
I3
ssg71
g3345
sg64
(lp3352
S''
asbasbasbag57
(g73
g59
NtRp3353
(dp3354
g62
(dp3355
sg71
g3209
sg64
(lp3356
g57
(g78
g59
NtRp3357
(dp3358
g62
(dp3359
g82
g83
ssg71
g3353
sg64
(lp3360
g442
asbag57
(g78
g59
NtRp3361
(dp3362
g62
(dp3363
g89
g90
ssg71
g3353
sg64
(lp3364
S':'
asbag57
(g78
g59
NtRp3365
(dp3366
g62
(dp3367
sg71
g3353
sg64
(lp3368
g57
(g58
g59
NtRp3369
(dp3370
g62
(dp3371
g70
I3
ssg71
g3365
sg64
(lp3372
S''
asbasbasbasbasbasbasbasbasbasbasbag57
(g73
g59
NtRp3373
(dp3374
g62
(dp3375
sg71
g3139
sg64
(lp3376
g57
(g78
g59
NtRp3377
(dp3378
g62
(dp3379
g82
g83
ssg71
g3373
sg64
(lp3380
S'delimiters'
p3381
asbag57
(g78
g59
NtRp3382
(dp3383
g62
(dp3384
g89
g90
ssg71
g3373
sg64
(lp3385
S':'
asbag57
(g78
g59
NtRp3386
(dp3387
g62
(dp3388
sg71
g3373
sg64
(lp3389
g57
(g58
g59
NtRp3390
(dp3391
g62
(dp3392
g70
I5
ssg71
g3386
sg64
(lp3393
g57
(g66
g59
NtRp3394
(dp3395
g62
(dp3396
g70
I4
ssg71
Nsg64
(lp3397
g57
(g73
g59
NtRp3398
(dp3399
g62
(dp3400
sg71
g3394
sg64
(lp3401
g57
(g78
g59
NtRp3402
(dp3403
g62
(dp3404
sg71
g3398
sg64
(lp3405
g57
(g58
g59
NtRp3406
(dp3407
g62
(dp3408
g70
I4
ssg71
g3402
sg64
(lp3409
S'{{'
p3410
asbasbasbag57
(g73
g59
NtRp3411
(dp3412
g62
(dp3413
sg71
g3394
sg64
(lp3414
g57
(g78
g59
NtRp3415
(dp3416
g62
(dp3417
sg71
g3411
sg64
(lp3418
g57
(g58
g59
NtRp3419
(dp3420
g62
(dp3421
g70
I4
ssg71
g3415
sg64
(lp3422
S'}}'
p3423
asbasbasbasbasbasbasbag57
(g73
g59
NtRp3424
(dp3425
g62
(dp3426
sg71
g3139
sg64
(lp3427
g57
(g78
g59
NtRp3428
(dp3429
g62
(dp3430
g82
g83
ssg71
g3424
sg64
(lp3431
S'files'
p3432
asbag57
(g78
g59
NtRp3433
(dp3434
g62
(dp3435
g89
g90
ssg71
g3424
sg64
(lp3436
S':'
asbag57
(g78
g59
NtRp3437
(dp3438
g62
(dp3439
sg71
g3424
sg64
(lp3440
g57
(g58
g59
NtRp3441
(dp3442
g62
(dp3443
g70
I5
ssg71
g3437
sg64
(lp3444
g57
(g66
g59
NtRp3445
(dp3446
g62
(dp3447
g70
I4
ssg71
Nsg64
(lp3448
sbasbasbasbag57
(g73
g59
NtRp3449
(dp3450
g62
(dp3451
sg71
g3139
sg64
(lp3452
g57
(g78
g59
NtRp3453
(dp3454
g62
(dp3455
g82
g83
ssg71
g3449
sg64
(lp3456
S'flash'
p3457
asbag57
(g78
g59
NtRp3458
(dp3459
g62
(dp3460
g89
g90
ssg71
g3449
sg64
(lp3461
S':'
asbag57
(g78
g59
NtRp3462
(dp3463
g62
(dp3464
sg71
g3449
sg64
(lp3465
g57
(g58
g59
NtRp3466
(dp3467
g62
(dp3468
g70
I5
ssg71
g3462
sg64
(lp3469
S''
asbasbasbag57
(g73
g59
NtRp3470
(dp3471
g62
(dp3472
sg71
g3139
sg64
(lp3473
g57
(g78
g59
NtRp3474
(dp3475
g62
(dp3476
g82
g83
ssg71
g3470
sg64
(lp3477
S'generic_patterns'
p3478
asbag57
(g78
g59
NtRp3479
(dp3480
g62
(dp3481
g89
g90
ssg71
g3470
sg64
(lp3482
S':'
asbag57
(g78
g59
NtRp3483
(dp3484
g62
(dp3485
sg71
g3470
sg64
(lp3486
g57
(g58
g59
NtRp3487
(dp3488
g62
(dp3489
g70
I5
ssg71
g3483
sg64
(lp3490
g57
(g66
g59
NtRp3491
(dp3492
g62
(dp3493
g70
I4
ssg71
Nsg64
(lp3494
g57
(g73
g59
NtRp3495
(dp3496
g62
(dp3497
sg71
g3491
sg64
(lp3498
g57
(g78
g59
NtRp3499
(dp3500
g62
(dp3501
sg71
g3495
sg64
(lp3502
g57
(g58
g59
NtRp3503
(dp3504
g62
(dp3505
g70
I4
ssg71
g3499
sg64
(lp3506
S'*'
asbasbasbasbasbasbasbag57
(g73
g59
NtRp3507
(dp3508
g62
(dp3509
sg71
g3139
sg64
(lp3510
g57
(g78
g59
NtRp3511
(dp3512
g62
(dp3513
g82
g83
ssg71
g3507
sg64
(lp3514
S'headers'
p3515
asbag57
(g78
g59
NtRp3516
(dp3517
g62
(dp3518
g89
g90
ssg71
g3507
sg64
(lp3519
S':'
asbag57
(g78
g59
NtRp3520
(dp3521
g62
(dp3522
sg71
g3507
sg64
(lp3523
g57
(g58
g59
NtRp3524
(dp3525
g62
(dp3526
g70
I5
ssg71
g3520
sg64
(lp3527
g57
(g66
g59
NtRp3528
(dp3529
g62
(dp3530
g70
I4
ssg71
Nsg64
(lp3531
g57
(g73
g59
NtRp3532
(dp3533
g62
(dp3534
sg71
g3528
sg64
(lp3535
g57
(g78
g59
NtRp3536
(dp3537
g62
(dp3538
g82
g83
ssg71
g3532
sg64
(lp3539
S'Cache-Control'
p3540
asbag57
(g78
g59
NtRp3541
(dp3542
g62
(dp3543
g89
g90
ssg71
g3532
sg64
(lp3544
S':'
asbag57
(g78
g59
NtRp3545
(dp3546
g62
(dp3547
sg71
g3532
sg64
(lp3548
g57
(g58
g59
NtRp3549
(dp3550
g62
(dp3551
g70
I4
ssg71
g3545
sg64
(lp3552
S'no-store, no-cache, must-revalidate, post-check=0, pre-check=0'
p3553
asbasbasbag57
(g73
g59
NtRp3554
(dp3555
g62
(dp3556
sg71
g3528
sg64
(lp3557
g57
(g78
g59
NtRp3558
(dp3559
g62
(dp3560
g82
g83
ssg71
g3554
sg64
(lp3561
S'Content-Type'
p3562
asbag57
(g78
g59
NtRp3563
(dp3564
g62
(dp3565
g89
g90
ssg71
g3554
sg64
(lp3566
S':'
asbag57
(g78
g59
NtRp3567
(dp3568
g62
(dp3569
sg71
g3554
sg64
(lp3570
g57
(g58
g59
NtRp3571
(dp3572
g62
(dp3573
g70
I4
ssg71
g3567
sg64
(lp3574
S'text/html; charset=utf-8'
p3575
asbasbasbag57
(g73
g59
NtRp3576
(dp3577
g62
(dp3578
sg71
g3528
sg64
(lp3579
g57
(g78
g59
NtRp3580
(dp3581
g62
(dp3582
g82
g83
ssg71
g3576
sg64
(lp3583
S'Expires'
p3584
asbag57
(g78
g59
NtRp3585
(dp3586
g62
(dp3587
g89
g90
ssg71
g3576
sg64
(lp3588
S':'
asbag57
(g78
g59
NtRp3589
(dp3590
g62
(dp3591
sg71
g3576
sg64
(lp3592
g57
(g58
g59
NtRp3593
(dp3594
g62
(dp3595
g70
I4
ssg71
g3589
sg64
(lp3596
S'Wed, 18 Apr 2012 23:48:46 GMT'
p3597
asbasbasbag57
(g73
g59
NtRp3598
(dp3599
g62
(dp3600
sg71
g3528
sg64
(lp3601
g57
(g78
g59
NtRp3602
(dp3603
g62
(dp3604
g82
g83
ssg71
g3598
sg64
(lp3605
S'Pragma'
p3606
asbag57
(g78
g59
NtRp3607
(dp3608
g62
(dp3609
g89
g90
ssg71
g3598
sg64
(lp3610
S':'
asbag57
(g78
g59
NtRp3611
(dp3612
g62
(dp3613
sg71
g3598
sg64
(lp3614
g57
(g58
g59
NtRp3615
(dp3616
g62
(dp3617
g70
I4
ssg71
g3611
sg64
(lp3618
S'no-cache'
p3619
asbasbasbag57
(g73
g59
NtRp3620
(dp3621
g62
(dp3622
sg71
g3528
sg64
(lp3623
g57
(g78
g59
NtRp3624
(dp3625
g62
(dp3626
g82
g83
ssg71
g3620
sg64
(lp3627
S'X-Powered-By'
p3628
asbag57
(g78
g59
NtRp3629
(dp3630
g62
(dp3631
g89
g90
ssg71
g3620
sg64
(lp3632
S':'
asbag57
(g78
g59
NtRp3633
(dp3634
g62
(dp3635
sg71
g3620
sg64
(lp3636
g57
(g58
g59
NtRp3637
(dp3638
g62
(dp3639
g70
I4
ssg71
g3633
sg64
(lp3640
S'web2py'
p3641
asbasbasbasbasbasbasbag57
(g73
g59
NtRp3642
(dp3643
g62
(dp3644
sg71
g3139
sg64
(lp3645
g57
(g78
g59
NtRp3646
(dp3647
g62
(dp3648
g82
g83
ssg71
g3642
sg64
(lp3649
S'menu'
p3650
asbag57
(g78
g59
NtRp3651
(dp3652
g62
(dp3653
g89
g90
ssg71
g3642
sg64
(lp3654
S':'
asbag57
(g78
g59
NtRp3655
(dp3656
g62
(dp3657
sg71
g3642
sg64
(lp3658
g57
(g58
g59
NtRp3659
(dp3660
g62
(dp3661
g70
I5
ssg71
g3655
sg64
(lp3662
g57
(g66
g59
NtRp3663
(dp3664
g62
(dp3665
g70
I4
ssg71
Nsg64
(lp3666
g57
(g73
g59
NtRp3667
(dp3668
g62
(dp3669
sg71
g3663
sg64
(lp3670
g57
(g78
g59
NtRp3671
(dp3672
g62
(dp3673
sg71
g3667
sg64
(lp3674
g57
(g58
g59
NtRp3675
(dp3676
g62
(dp3677
g70
I4
ssg71
g3671
sg64
(lp3678
g57
(g66
g59
NtRp3679
(dp3680
g62
(dp3681
g70
I3
ssg71
Nsg64
(lp3682
g57
(g73
g59
NtRp3683
(dp3684
g62
(dp3685
sg71
g3679
sg64
(lp3686
g57
(g78
g59
NtRp3687
(dp3688
g62
(dp3689
sg71
g3683
sg64
(lp3690
g57
(g58
g59
NtRp3691
(dp3692
g62
(dp3693
g70
I3
ssg71
g3687
sg64
(lp3694
cgluon.languages
lazyT_unpickle
p3695
(S't\x04\x00\x00\x00Home'
tRp3696
asbasbasbag57
(g73
g59
NtRp3697
(dp3698
g62
(dp3699
sg71
g3679
sg64
(lp3700
g57
(g78
g59
NtRp3701
(dp3702
g62
(dp3703
sg71
g3697
sg64
(lp3704
g57
(g58
g59
NtRp3705
(dp3706
g62
(dp3707
g70
I3
ssg71
g3701
sg64
(lp3708
g100
asbasbasbag57
(g73
g59
NtRp3709
(dp3710
g62
(dp3711
sg71
g3679
sg64
(lp3712
g57
(g78
g59
NtRp3713
(dp3714
g62
(dp3715
sg71
g3709
sg64
(lp3716
g57
(g58
g59
NtRp3717
(dp3718
g62
(dp3719
g70
I3
ssg71
g3713
sg64
(lp3720
S'/vsalad/default/index'
p3721
asbasbasbag57
(g73
g59
NtRp3722
(dp3723
g62
(dp3724
sg71
g3679
sg64
(lp3725
g57
(g78
g59
NtRp3726
(dp3727
g62
(dp3728
sg71
g3722
sg64
(lp3729
g57
(g58
g59
NtRp3730
(dp3731
g62
(dp3732
g70
I3
ssg71
g3726
sg64
(lp3733
g57
(g66
g59
NtRp3734
(dp3735
g62
(dp3736
g70
I2
ssg71
Nsg64
(lp3737
sbasbasbasbasbasbasbasbag57
(g73
g59
NtRp3738
(dp3739
g62
(dp3740
sg71
g3663
sg64
(lp3741
g57
(g78
g59
NtRp3742
(dp3743
g62
(dp3744
sg71
g3738
sg64
(lp3745
g57
(g58
g59
NtRp3746
(dp3747
g62
(dp3748
g70
I4
ssg71
g3742
sg64
(lp3749
g57
(g66
g59
NtRp3750
(dp3751
g62
(dp3752
g70
I3
ssg71
Nsg64
(lp3753
g57
(g73
g59
NtRp3754
(dp3755
g62
(dp3756
sg71
g3750
sg64
(lp3757
g57
(g78
g59
NtRp3758
(dp3759
g62
(dp3760
sg71
g3754
sg64
(lp3761
g57
(g58
g59
NtRp3762
(dp3763
g62
(dp3764
g70
I3
ssg71
g3758
sg64
(lp3765
g57
(cgluon.html
SPAN
p3766
g59
NtRp3767
(dp3768
g62
(dp3769
g82
S'color:yellow'
p3770
ssg71
Nsg64
(lp3771
g3641
asbasbasbasbag57
(g73
g59
NtRp3772
(dp3773
g62
(dp3774
sg71
g3750
sg64
(lp3775
g57
(g78
g59
NtRp3776
(dp3777
g62
(dp3778
sg71
g3772
sg64
(lp3779
g57
(g58
g59
NtRp3780
(dp3781
g62
(dp3782
g70
I3
ssg71
g3776
sg64
(lp3783
g100
asbasbasbag57
(g73
g59
NtRp3784
(dp3785
g62
(dp3786
sg71
g3750
sg64
(lp3787
g57
(g78
g59
NtRp3788
(dp3789
g62
(dp3790
sg71
g3784
sg64
(lp3791
g57
(g58
g59
NtRp3792
(dp3793
g62
(dp3794
g70
I3
ssg71
g3788
sg64
(lp3795
S'None'
p3796
asbasbasbag57
(g73
g59
NtRp3797
(dp3798
g62
(dp3799
sg71
g3750
sg64
(lp3800
g57
(g78
g59
NtRp3801
(dp3802
g62
(dp3803
sg71
g3797
sg64
(lp3804
g57
(g58
g59
NtRp3805
(dp3806
g62
(dp3807
g70
I3
ssg71
g3801
sg64
(lp3808
g57
(g66
g59
NtRp3809
(dp3810
g62
(dp3811
g70
I2
ssg71
Nsg64
(lp3812
g57
(g73
g59
NtRp3813
(dp3814
g62
(dp3815
sg71
g3809
sg64
(lp3816
g57
(g78
g59
NtRp3817
(dp3818
g62
(dp3819
sg71
g3813
sg64
(lp3820
g57
(g58
g59
NtRp3821
(dp3822
g62
(dp3823
g70
I2
ssg71
g3817
sg64
(lp3824
g57
(g66
g59
NtRp3825
(dp3826
g62
(dp3827
g70
I1
ssg71
Nsg64
(lp3828
g57
(g73
g59
NtRp3829
(dp3830
g62
(dp3831
sg71
g3825
sg64
(lp3832
g57
(g78
g59
NtRp3833
(dp3834
g62
(dp3835
sg71
g3829
sg64
(lp3836
g57
(g58
g59
NtRp3837
(dp3838
g62
(dp3839
g70
I1
ssg71
g3833
sg64
(lp3840
g3695
(S's\x08\x00\x00\x00My Sites'
tRp3841
asbasbasbag57
(g73
g59
NtRp3842
(dp3843
g62
(dp3844
sg71
g3825
sg64
(lp3845
g57
(g78
g59
NtRp3846
(dp3847
g62
(dp3848
sg71
g3842
sg64
(lp3849
g57
(g58
g59
NtRp3850
(dp3851
g62
(dp3852
g70
I1
ssg71
g3846
sg64
(lp3853
I00
asbasbasbag57
(g73
g59
NtRp3854
(dp3855
g62
(dp3856
sg71
g3825
sg64
(lp3857
g57
(g78
g59
NtRp3858
(dp3859
g62
(dp3860
sg71
g3854
sg64
(lp3861
g57
(g58
g59
NtRp3862
(dp3863
g62
(dp3864
g70
I1
ssg71
g3858
sg64
(lp3865
S'/admin/default/site'
p3866
asbasbasbasbasbasbasbag57
(g73
g59
NtRp3867
(dp3868
g62
(dp3869
sg71
g3809
sg64
(lp3870
g57
(g78
g59
NtRp3871
(dp3872
g62
(dp3873
sg71
g3867
sg64
(lp3874
g57
(g58
g59
NtRp3875
(dp3876
g62
(dp3877
g70
I2
ssg71
g3871
sg64
(lp3878
g57
(g66
g59
NtRp3879
(dp3880
g62
(dp3881
g70
I1
ssg71
Nsg64
(lp3882
g57
(g73
g59
NtRp3883
(dp3884
g62
(dp3885
sg71
g3879
sg64
(lp3886
g57
(g78
g59
NtRp3887
(dp3888
g62
(dp3889
sg71
g3883
sg64
(lp3890
g57
(g58
g59
NtRp3891
(dp3892
g62
(dp3893
g70
I1
ssg71
g3887
sg64
(lp3894
g3695
(S's\x08\x00\x00\x00This App'
tRp3895
asbasbasbag57
(g73
g59
NtRp3896
(dp3897
g62
(dp3898
sg71
g3879
sg64
(lp3899
g57
(g78
g59
NtRp3900
(dp3901
g62
(dp3902
sg71
g3896
sg64
(lp3903
g57
(g58
g59
NtRp3904
(dp3905
g62
(dp3906
g70
I1
ssg71
g3900
sg64
(lp3907
I00
asbasbasbag57
(g73
g59
NtRp3908
(dp3909
g62
(dp3910
sg71
g3879
sg64
(lp3911
g57
(g78
g59
NtRp3912
(dp3913
g62
(dp3914
sg71
g3908
sg64
(lp3915
g57
(g58
g59
NtRp3916
(dp3917
g62
(dp3918
g70
I1
ssg71
g3912
sg64
(lp3919
S'/admin/default/design/vsalad'
p3920
asbasbasbag57
(g73
g59
NtRp3921
(dp3922
g62
(dp3923
sg71
g3879
sg64
(lp3924
g57
(g78
g59
NtRp3925
(dp3926
g62
(dp3927
sg71
g3921
sg64
(lp3928
g57
(g58
g59
NtRp3929
(dp3930
g62
(dp3931
g70
I1
ssg71
g3925
sg64
(lp3932
(lp3933
(g3695
(S't\n\x00\x00\x00Controller'
tRp3934
I00
S'/admin/default/edit/vsalad/controllers/default.py'
tp3935
a(g3695
(S't\x04\x00\x00\x00View'
tRp3936
I00
S'/admin/default/edit/vsalad/views/default/article.html'
tp3937
a(g3695
(S't\x06\x00\x00\x00Layout'
tRp3938
I00
S'/admin/default/edit/vsalad/views/layout.html'
tp3939
a(g3695
(S't\n\x00\x00\x00Stylesheet'
tRp3940
I00
S'/admin/default/edit/vsalad/static/css/web2py.css'
tp3941
a(g3695
(S's\x08\x00\x00\x00DB Model'
tRp3942
I00
S'/admin/default/edit/vsalad/models/db.py'
tp3943
a(g3695
(S's\n\x00\x00\x00Menu Model'
tRp3944
I00
S'/admin/default/edit/vsalad/models/menu.py'
tp3945
a(g3695
(S't\x08\x00\x00\x00Database'
tRp3946
I00
S'/vsalad/appadmin/index'
tp3947
a(g3695
(S't\x06\x00\x00\x00Errors'
tRp3948
I00
S'/admin/default/errors/vsalad'
tp3949
a(g3695
(S't\x05\x00\x00\x00About'
tRp3950
I00
S'/admin/default/about/vsalad'
tp3951
aasbasbasbasbasbasbasbag57
(g73
g59
NtRp3952
(dp3953
g62
(dp3954
sg71
g3809
sg64
(lp3955
g57
(g78
g59
NtRp3956
(dp3957
g62
(dp3958
sg71
g3952
sg64
(lp3959
g57
(g58
g59
NtRp3960
(dp3961
g62
(dp3962
g70
I2
ssg71
g3956
sg64
(lp3963
g57
(g66
g59
NtRp3964
(dp3965
g62
(dp3966
g70
I1
ssg71
Nsg64
(lp3967
g57
(g73
g59
NtRp3968
(dp3969
g62
(dp3970
sg71
g3964
sg64
(lp3971
g57
(g78
g59
NtRp3972
(dp3973
g62
(dp3974
sg71
g3968
sg64
(lp3975
g57
(g58
g59
NtRp3976
(dp3977
g62
(dp3978
g70
I1
ssg71
g3972
sg64
(lp3979
S'web2py.com'
p3980
asbasbasbag57
(g73
g59
NtRp3981
(dp3982
g62
(dp3983
sg71
g3964
sg64
(lp3984
g57
(g78
g59
NtRp3985
(dp3986
g62
(dp3987
sg71
g3981
sg64
(lp3988
g57
(g58
g59
NtRp3989
(dp3990
g62
(dp3991
g70
I1
ssg71
g3985
sg64
(lp3992
I00
asbasbasbag57
(g73
g59
NtRp3993
(dp3994
g62
(dp3995
sg71
g3964
sg64
(lp3996
g57
(g78
g59
NtRp3997
(dp3998
g62
(dp3999
sg71
g3993
sg64
(lp4000
g57
(g58
g59
NtRp4001
(dp4002
g62
(dp4003
g70
I1
ssg71
g3997
sg64
(lp4004
S'http://www.web2py.com'
p4005
asbasbasbag57
(g73
g59
NtRp4006
(dp4007
g62
(dp4008
sg71
g3964
sg64
(lp4009
g57
(g78
g59
NtRp4010
(dp4011
g62
(dp4012
sg71
g4006
sg64
(lp4013
g57
(g58
g59
NtRp4014
(dp4015
g62
(dp4016
g70
I1
ssg71
g4010
sg64
(lp4017
(lp4018
(g3695
(S't\x08\x00\x00\x00Download'
tRp4019
I00
S'http://www.web2py.com/examples/default/download'
p4020
tp4021
a(g3695
(S't\x07\x00\x00\x00Support'
tRp4022
I00
S'http://www.web2py.com/examples/default/support'
p4023
tp4024
a(g3695
(S't\x04\x00\x00\x00Demo'
tRp4025
I00
S'http://web2py.com/demo_admin'
p4026
tp4027
a(g3695
(S's\x0e\x00\x00\x00Quick Examples'
tRp4028
I00
S'http://web2py.com/examples/default/examples'
p4029
tp4030
a(g3695
(S't\x03\x00\x00\x00FAQ'
tRp4031
I00
S'http://web2py.com/AlterEgo'
p4032
tp4033
a(g3695
(S't\x06\x00\x00\x00Videos'
tRp4034
I00
S'http://www.web2py.com/examples/default/videos/'
p4035
tp4036
a(g3695
(S's\x11\x00\x00\x00Free Applications'
tRp4037
I00
S'http://web2py.com/appliances'
p4038
tp4039
a(g3695
(S't\x07\x00\x00\x00Plugins'
tRp4040
I00
S'http://web2py.com/plugins'
p4041
tp4042
a(g3695
(S't\x07\x00\x00\x00Layouts'
tRp4043
I00
S'http://web2py.com/layouts'
p4044
tp4045
a(g3695
(S't\x07\x00\x00\x00Recipes'
tRp4046
I00
S'http://web2pyslices.com/'
p4047
tp4048
a(g3695
(S't\x08\x00\x00\x00Semantic'
tRp4049
I00
S'http://web2py.com/semantic'
p4050
tp4051
aasbasbasbasbasbasbasbag57
(g73
g59
NtRp4052
(dp4053
g62
(dp4054
sg71
g3809
sg64
(lp4055
g57
(g78
g59
NtRp4056
(dp4057
g62
(dp4058
sg71
g4052
sg64
(lp4059
g57
(g58
g59
NtRp4060
(dp4061
g62
(dp4062
g70
I2
ssg71
g4056
sg64
(lp4063
g57
(g66
g59
NtRp4064
(dp4065
g62
(dp4066
g70
I1
ssg71
Nsg64
(lp4067
g57
(g73
g59
NtRp4068
(dp4069
g62
(dp4070
sg71
g4064
sg64
(lp4071
g57
(g78
g59
NtRp4072
(dp4073
g62
(dp4074
sg71
g4068
sg64
(lp4075
g57
(g58
g59
NtRp4076
(dp4077
g62
(dp4078
g70
I1
ssg71
g4072
sg64
(lp4079
g3695
(S't\r\x00\x00\x00Documentation'
tRp4080
asbasbasbag57
(g73
g59
NtRp4081
(dp4082
g62
(dp4083
sg71
g4064
sg64
(lp4084
g57
(g78
g59
NtRp4085
(dp4086
g62
(dp4087
sg71
g4081
sg64
(lp4088
g57
(g58
g59
NtRp4089
(dp4090
g62
(dp4091
g70
I1
ssg71
g4085
sg64
(lp4092
I00
asbasbasbag57
(g73
g59
NtRp4093
(dp4094
g62
(dp4095
sg71
g4064
sg64
(lp4096
g57
(g78
g59
NtRp4097
(dp4098
g62
(dp4099
sg71
g4093
sg64
(lp4100
g57
(g58
g59
NtRp4101
(dp4102
g62
(dp4103
g70
I1
ssg71
g4097
sg64
(lp4104
S'http://www.web2py.com/book'
p4105
asbasbasbag57
(g73
g59
NtRp4106
(dp4107
g62
(dp4108
sg71
g4064
sg64
(lp4109
g57
(g78
g59
NtRp4110
(dp4111
g62
(dp4112
sg71
g4106
sg64
(lp4113
g57
(g58
g59
NtRp4114
(dp4115
g62
(dp4116
g70
I1
ssg71
g4110
sg64
(lp4117
(lp4118
(g3695
(S't\x07\x00\x00\x00Preface'
tRp4119
I00
S'http://www.web2py.com/book/default/chapter/00'
p4120
tp4121
a(g3695
(S't\x0c\x00\x00\x00Introduction'
tRp4122
I00
S'http://www.web2py.com/book/default/chapter/01'
p4123
tp4124
a(g3695
(S't\x06\x00\x00\x00Python'
tRp4125
I00
S'http://www.web2py.com/book/default/chapter/02'
p4126
tp4127
a(g3695
(S't\x08\x00\x00\x00Overview'
tRp4128
I00
S'http://www.web2py.com/book/default/chapter/03'
p4129
tp4130
a(g3695
(S's\x08\x00\x00\x00The Core'
tRp4131
I00
S'http://www.web2py.com/book/default/chapter/04'
p4132
tp4133
a(g3695
(S's\t\x00\x00\x00The Views'
tRp4134
I00
S'http://www.web2py.com/book/default/chapter/05'
p4135
tp4136
a(g3695
(S't\x08\x00\x00\x00Database'
tRp4137
I00
S'http://www.web2py.com/book/default/chapter/06'
p4138
tp4139
a(g3695
(S's\x14\x00\x00\x00Forms and Validators'
tRp4140
I00
S'http://www.web2py.com/book/default/chapter/07'
p4141
tp4142
a(g3695
(S's\r\x00\x00\x00Email and SMS'
tRp4143
I00
S'http://www.web2py.com/book/default/chapter/08'
p4144
tp4145
a(g3695
(S's\x0e\x00\x00\x00Access Control'
tRp4146
I00
S'http://www.web2py.com/book/default/chapter/09'
p4147
tp4148
a(g3695
(S't\x08\x00\x00\x00Services'
tRp4149
I00
S'http://www.web2py.com/book/default/chapter/10'
p4150
tp4151
a(g3695
(S's\x0c\x00\x00\x00Ajax Recipes'
tRp4152
I00
S'http://www.web2py.com/book/default/chapter/11'
p4153
tp4154
a(g3695
(S's\x16\x00\x00\x00Components and Plugins'
tRp4155
I00
S'http://www.web2py.com/book/default/chapter/12'
p4156
tp4157
a(g3695
(S's\x12\x00\x00\x00Deployment Recipes'
tRp4158
I00
S'http://www.web2py.com/book/default/chapter/13'
p4159
tp4160
a(g3695
(S's\r\x00\x00\x00Other Recipes'
tRp4161
I00
S'http://www.web2py.com/book/default/chapter/14'
p4162
tp4163
a(g3695
(S's\r\x00\x00\x00Buy this book'
tRp4164
I00
S'http://stores.lulu.com/web2py'
p4165
tp4166
aasbasbasbasbasbasbasbag57
(g73
g59
NtRp4167
(dp4168
g62
(dp4169
sg71
g3809
sg64
(lp4170
g57
(g78
g59
NtRp4171
(dp4172
g62
(dp4173
sg71
g4167
sg64
(lp4174
g57
(g58
g59
NtRp4175
(dp4176
g62
(dp4177
g70
I2
ssg71
g4171
sg64
(lp4178
g57
(g66
g59
NtRp4179
(dp4180
g62
(dp4181
g70
I1
ssg71
Nsg64
(lp4182
g57
(g73
g59
NtRp4183
(dp4184
g62
(dp4185
sg71
g4179
sg64
(lp4186
g57
(g78
g59
NtRp4187
(dp4188
g62
(dp4189
sg71
g4183
sg64
(lp4190
g57
(g58
g59
NtRp4191
(dp4192
g62
(dp4193
g70
I1
ssg71
g4187
sg64
(lp4194
g3695
(S't\t\x00\x00\x00Community'
tRp4195
asbasbasbag57
(g73
g59
NtRp4196
(dp4197
g62
(dp4198
sg71
g4179
sg64
(lp4199
g57
(g78
g59
NtRp4200
(dp4201
g62
(dp4202
sg71
g4196
sg64
(lp4203
g57
(g58
g59
NtRp4204
(dp4205
g62
(dp4206
g70
I1
ssg71
g4200
sg64
(lp4207
I00
asbasbasbag57
(g73
g59
NtRp4208
(dp4209
g62
(dp4210
sg71
g4179
sg64
(lp4211
g57
(g78
g59
NtRp4212
(dp4213
g62
(dp4214
sg71
g4208
sg64
(lp4215
g57
(g58
g59
NtRp4216
(dp4217
g62
(dp4218
g70
I1
ssg71
g4212
sg64
(lp4219
Nasbasbasbag57
(g73
g59
NtRp4220
(dp4221
g62
(dp4222
sg71
g4179
sg64
(lp4223
g57
(g78
g59
NtRp4224
(dp4225
g62
(dp4226
sg71
g4220
sg64
(lp4227
g57
(g58
g59
NtRp4228
(dp4229
g62
(dp4230
g70
I1
ssg71
g4224
sg64
(lp4231
(lp4232
(g3695
(S't\x06\x00\x00\x00Groups'
tRp4233
I00
S'http://www.web2py.com/examples/default/usergroups'
p4234
tp4235
a(g3695
(S't\x07\x00\x00\x00Twitter'
tRp4236
I00
S'http://twitter.com/web2py'
p4237
tp4238
a(g3695
(S's\t\x00\x00\x00Live Chat'
tRp4239
I00
S'http://webchat.freenode.net/?channels=web2py'
p4240
tp4241
aasbasbasbasbasbasbasbag57
(g73
g59
NtRp4242
(dp4243
g62
(dp4244
sg71
g3809
sg64
(lp4245
g57
(g78
g59
NtRp4246
(dp4247
g62
(dp4248
sg71
g4242
sg64
(lp4249
g57
(g58
g59
NtRp4250
(dp4251
g62
(dp4252
g70
I2
ssg71
g4246
sg64
(lp4253
g57
(g66
g59
NtRp4254
(dp4255
g62
(dp4256
g70
I1
ssg71
Nsg64
(lp4257
g57
(g73
g59
NtRp4258
(dp4259
g62
(dp4260
sg71
g4254
sg64
(lp4261
g57
(g78
g59
NtRp4262
(dp4263
g62
(dp4264
sg71
g4258
sg64
(lp4265
g57
(g58
g59
NtRp4266
(dp4267
g62
(dp4268
g70
I1
ssg71
g4262
sg64
(lp4269
g3695
(S't\x07\x00\x00\x00Plugins'
tRp4270
asbasbasbag57
(g73
g59
NtRp4271
(dp4272
g62
(dp4273
sg71
g4254
sg64
(lp4274
g57
(g78
g59
NtRp4275
(dp4276
g62
(dp4277
sg71
g4271
sg64
(lp4278
g57
(g58
g59
NtRp4279
(dp4280
g62
(dp4281
g70
I1
ssg71
g4275
sg64
(lp4282
I00
asbasbasbag57
(g73
g59
NtRp4283
(dp4284
g62
(dp4285
sg71
g4254
sg64
(lp4286
g57
(g78
g59
NtRp4287
(dp4288
g62
(dp4289
sg71
g4283
sg64
(lp4290
g57
(g58
g59
NtRp4291
(dp4292
g62
(dp4293
g70
I1
ssg71
g4287
sg64
(lp4294
Nasbasbasbag57
(g73
g59
NtRp4295
(dp4296
g62
(dp4297
sg71
g4254
sg64
(lp4298
g57
(g78
g59
NtRp4299
(dp4300
g62
(dp4301
sg71
g4295
sg64
(lp4302
g57
(g58
g59
NtRp4303
(dp4304
g62
(dp4305
g70
I1
ssg71
g4299
sg64
(lp4306
(lp4307
(S'plugin_wiki'
p4308
I00
S'http://web2py.com/examples/default/download'
p4309
tp4310
a(g3695
(S's\r\x00\x00\x00Other Plugins'
tRp4311
I00
g4041
tp4312
a(g3695
(S's\x0e\x00\x00\x00Layout Plugins'
tRp4313
I00
g4044
tp4314
aasbasbasbasbasbasbasbasbasbasbasbasbasbasbasbasbasbasbasbag57
(g73
g59
NtRp4315
(dp4316
g62
(dp4317
sg71
g3139
sg64
(lp4318
g57
(g78
g59
NtRp4319
(dp4320
g62
(dp4321
g82
g83
ssg71
g4315
sg64
(lp4322
S'meta'
p4323
asbag57
(g78
g59
NtRp4324
(dp4325
g62
(dp4326
g89
g90
ssg71
g4315
sg64
(lp4327
S':'
asbag57
(g78
g59
NtRp4328
(dp4329
g62
(dp4330
sg71
g4315
sg64
(lp4331
g57
(g58
g59
NtRp4332
(dp4333
g62
(dp4334
g70
I5
ssg71
g4328
sg64
(lp4335
g57
(g66
g59
NtRp4336
(dp4337
g62
(dp4338
g70
I4
ssg71
Nsg64
(lp4339
g57
(g73
g59
NtRp4340
(dp4341
g62
(dp4342
sg71
g4336
sg64
(lp4343
g57
(g78
g59
NtRp4344
(dp4345
g62
(dp4346
g82
g83
ssg71
g4340
sg64
(lp4347
S'author'
p4348
asbag57
(g78
g59
NtRp4349
(dp4350
g62
(dp4351
g89
g90
ssg71
g4340
sg64
(lp4352
S':'
asbag57
(g78
g59
NtRp4353
(dp4354
g62
(dp4355
sg71
g4340
sg64
(lp4356
g57
(g58
g59
NtRp4357
(dp4358
g62
(dp4359
g70
I4
ssg71
g4353
sg64
(lp4360
S'Your Name <you@example.com>'
p4361
asbasbasbag57
(g73
g59
NtRp4362
(dp4363
g62
(dp4364
sg71
g4336
sg64
(lp4365
g57
(g78
g59
NtRp4366
(dp4367
g62
(dp4368
g82
g83
ssg71
g4362
sg64
(lp4369
S'copyright'
p4370
asbag57
(g78
g59
NtRp4371
(dp4372
g62
(dp4373
g89
g90
ssg71
g4362
sg64
(lp4374
S':'
asbag57
(g78
g59
NtRp4375
(dp4376
g62
(dp4377
sg71
g4362
sg64
(lp4378
g57
(g58
g59
NtRp4379
(dp4380
g62
(dp4381
g70
I4
ssg71
g4375
sg64
(lp4382
S'Copyright 2011'
p4383
asbasbasbag57
(g73
g59
NtRp4384
(dp4385
g62
(dp4386
sg71
g4336
sg64
(lp4387
g57
(g78
g59
NtRp4388
(dp4389
g62
(dp4390
g82
g83
ssg71
g4384
sg64
(lp4391
S'description'
p4392
asbag57
(g78
g59
NtRp4393
(dp4394
g62
(dp4395
g89
g90
ssg71
g4384
sg64
(lp4396
S':'
asbag57
(g78
g59
NtRp4397
(dp4398
g62
(dp4399
sg71
g4384
sg64
(lp4400
g57
(g58
g59
NtRp4401
(dp4402
g62
(dp4403
g70
I4
ssg71
g4397
sg64
(lp4404
S'a cool new app'
p4405
asbasbasbag57
(g73
g59
NtRp4406
(dp4407
g62
(dp4408
sg71
g4336
sg64
(lp4409
g57
(g78
g59
NtRp4410
(dp4411
g62
(dp4412
g82
g83
ssg71
g4406
sg64
(lp4413
S'generator'
p4414
asbag57
(g78
g59
NtRp4415
(dp4416
g62
(dp4417
g89
g90
ssg71
g4406
sg64
(lp4418
S':'
asbag57
(g78
g59
NtRp4419
(dp4420
g62
(dp4421
sg71
g4406
sg64
(lp4422
g57
(g58
g59
NtRp4423
(dp4424
g62
(dp4425
g70
I4
ssg71
g4419
sg64
(lp4426
S'Web2py Web Framework'
p4427
asbasbasbag57
(g73
g59
NtRp4428
(dp4429
g62
(dp4430
sg71
g4336
sg64
(lp4431
g57
(g78
g59
NtRp4432
(dp4433
g62
(dp4434
g82
g83
ssg71
g4428
sg64
(lp4435
S'keywords'
p4436
asbag57
(g78
g59
NtRp4437
(dp4438
g62
(dp4439
g89
g90
ssg71
g4428
sg64
(lp4440
S':'
asbag57
(g78
g59
NtRp4441
(dp4442
g62
(dp4443
sg71
g4428
sg64
(lp4444
g57
(g58
g59
NtRp4445
(dp4446
g62
(dp4447
g70
I4
ssg71
g4441
sg64
(lp4448
S'web2py, python, framework'
p4449
asbasbasbasbasbasbasbag57
(g73
g59
NtRp4450
(dp4451
g62
(dp4452
sg71
g3139
sg64
(lp4453
g57
(g78
g59
NtRp4454
(dp4455
g62
(dp4456
g82
g83
ssg71
g4450
sg64
(lp4457
S'postprocessing'
p4458
asbag57
(g78
g59
NtRp4459
(dp4460
g62
(dp4461
g89
g90
ssg71
g4450
sg64
(lp4462
S':'
asbag57
(g78
g59
NtRp4463
(dp4464
g62
(dp4465
sg71
g4450
sg64
(lp4466
g57
(g58
g59
NtRp4467
(dp4468
g62
(dp4469
g70
I5
ssg71
g4463
sg64
(lp4470
g57
(g66
g59
NtRp4471
(dp4472
g62
(dp4473
g70
I4
ssg71
Nsg64
(lp4474
sbasbasbasbag57
(g73
g59
NtRp4475
(dp4476
g62
(dp4477
sg71
g3139
sg64
(lp4478
g57
(g78
g59
NtRp4479
(dp4480
g62
(dp4481
g82
g83
ssg71
g4475
sg64
(lp4482
S'session_file'
p4483
asbag57
(g78
g59
NtRp4484
(dp4485
g62
(dp4486
g89
g90
ssg71
g4475
sg64
(lp4487
S':'
asbag57
(g78
g59
NtRp4488
(dp4489
g62
(dp4490
sg71
g4475
sg64
(lp4491
g57
(g58
g59
NtRp4492
(dp4493
g62
(dp4494
g70
I5
ssg71
g4488
sg64
(lp4495
S"<open file '/home/fish/Desktop/web2py/applications/vsalad/sessions/127.0.0.1-65c5fec7-9058-48a5-9599-65c6d4c50931', mode 'rb+' at 0x33e08a0>"
p4496
asbasbasbag57
(g73
g59
NtRp4497
(dp4498
g62
(dp4499
sg71
g3139
sg64
(lp4500
g57
(g78
g59
NtRp4501
(dp4502
g62
(dp4503
g82
g83
ssg71
g4497
sg64
(lp4504
S'session_filename'
p4505
asbag57
(g78
g59
NtRp4506
(dp4507
g62
(dp4508
g89
g90
ssg71
g4497
sg64
(lp4509
S':'
asbag57
(g78
g59
NtRp4510
(dp4511
g62
(dp4512
sg71
g4497
sg64
(lp4513
g57
(g58
g59
NtRp4514
(dp4515
g62
(dp4516
g70
I5
ssg71
g4510
sg64
(lp4517
S'/home/fish/Desktop/web2py/applications/vsalad/sessions/127.0.0.1-65c5fec7-9058-48a5-9599-65c6d4c50931'
p4518
asbasbasbag57
(g73
g59
NtRp4519
(dp4520
g62
(dp4521
sg71
g3139
sg64
(lp4522
g57
(g78
g59
NtRp4523
(dp4524
g62
(dp4525
g82
g83
ssg71
g4519
sg64
(lp4526
S'session_id'
p4527
asbag57
(g78
g59
NtRp4528
(dp4529
g62
(dp4530
g89
g90
ssg71
g4519
sg64
(lp4531
S':'
asbag57
(g78
g59
NtRp4532
(dp4533
g62
(dp4534
sg71
g4519
sg64
(lp4535
g57
(g58
g59
NtRp4536
(dp4537
g62
(dp4538
g70
I5
ssg71
g4532
sg64
(lp4539
S'127.0.0.1-65c5fec7-9058-48a5-9599-65c6d4c50931'
p4540
asbasbasbag57
(g73
g59
NtRp4541
(dp4542
g62
(dp4543
sg71
g3139
sg64
(lp4544
g57
(g78
g59
NtRp4545
(dp4546
g62
(dp4547
g82
g83
ssg71
g4541
sg64
(lp4548
S'session_id_name'
p4549
asbag57
(g78
g59
NtRp4550
(dp4551
g62
(dp4552
g89
g90
ssg71
g4541
sg64
(lp4553
S':'
asbag57
(g78
g59
NtRp4554
(dp4555
g62
(dp4556
sg71
g4541
sg64
(lp4557
g57
(g58
g59
NtRp4558
(dp4559
g62
(dp4560
g70
I5
ssg71
g4554
sg64
(lp4561
g3196
asbasbasbag57
(g73
g59
NtRp4562
(dp4563
g62
(dp4564
sg71
g3139
sg64
(lp4565
g57
(g78
g59
NtRp4566
(dp4567
g62
(dp4568
g82
g83
ssg71
g4562
sg64
(lp4569
S'session_locked'
p4570
asbag57
(g78
g59
NtRp4571
(dp4572
g62
(dp4573
g89
g90
ssg71
g4562
sg64
(lp4574
S':'
asbag57
(g78
g59
NtRp4575
(dp4576
g62
(dp4577
sg71
g4562
sg64
(lp4578
g57
(g58
g59
NtRp4579
(dp4580
g62
(dp4581
g70
I5
ssg71
g4575
sg64
(lp4582
g1702
asbasbasbag57
(g73
g59
NtRp4583
(dp4584
g62
(dp4585
sg71
g3139
sg64
(lp4586
g57
(g78
g59
NtRp4587
(dp4588
g62
(dp4589
g82
g83
ssg71
g4583
sg64
(lp4590
S'session_new'
p4591
asbag57
(g78
g59
NtRp4592
(dp4593
g62
(dp4594
g89
g90
ssg71
g4583
sg64
(lp4595
S':'
asbag57
(g78
g59
NtRp4596
(dp4597
g62
(dp4598
sg71
g4583
sg64
(lp4599
g57
(g58
g59
NtRp4600
(dp4601
g62
(dp4602
g70
I5
ssg71
g4596
sg64
(lp4603
g100
asbasbasbag57
(g73
g59
NtRp4604
(dp4605
g62
(dp4606
sg71
g3139
sg64
(lp4607
g57
(g78
g59
NtRp4608
(dp4609
g62
(dp4610
g82
g83
ssg71
g4604
sg64
(lp4611
S'status'
p4612
asbag57
(g78
g59
NtRp4613
(dp4614
g62
(dp4615
g89
g90
ssg71
g4604
sg64
(lp4616
S':'
asbag57
(g78
g59
NtRp4617
(dp4618
g62
(dp4619
sg71
g4604
sg64
(lp4620
g57
(g58
g59
NtRp4621
(dp4622
g62
(dp4623
g70
I5
ssg71
g4617
sg64
(lp4624
S'200'
p4625
asbasbasbag57
(g73
g59
NtRp4626
(dp4627
g62
(dp4628
sg71
g3139
sg64
(lp4629
g57
(g78
g59
NtRp4630
(dp4631
g62
(dp4632
g82
g83
ssg71
g4626
sg64
(lp4633
S'subtitle'
p4634
asbag57
(g78
g59
NtRp4635
(dp4636
g62
(dp4637
g89
g90
ssg71
g4626
sg64
(lp4638
S':'
asbag57
(g78
g59
NtRp4639
(dp4640
g62
(dp4641
sg71
g4626
sg64
(lp4642
g57
(g58
g59
NtRp4643
(dp4644
g62
(dp4645
g70
I5
ssg71
g4639
sg64
(lp4646
g3695
(S's\r\x00\x00\x00customize me!'
tRp4647
asbasbasbag57
(g73
g59
NtRp4648
(dp4649
g62
(dp4650
sg71
g3139
sg64
(lp4651
g57
(g78
g59
NtRp4652
(dp4653
g62
(dp4654
g82
g83
ssg71
g4648
sg64
(lp4655
S'title'
p4656
asbag57
(g78
g59
NtRp4657
(dp4658
g62
(dp4659
g89
g90
ssg71
g4648
sg64
(lp4660
S':'
asbag57
(g78
g59
NtRp4661
(dp4662
g62
(dp4663
sg71
g4648
sg64
(lp4664
g57
(g58
g59
NtRp4665
(dp4666
g62
(dp4667
g70
I5
ssg71
g4661
sg64
(lp4668
S'Vsalad'
p4669
asbasbasbag57
(g73
g59
NtRp4670
(dp4671
g62
(dp4672
sg71
g3139
sg64
(lp4673
g57
(g78
g59
NtRp4674
(dp4675
g62
(dp4676
g82
g83
ssg71
g4670
sg64
(lp4677
g2388
asbag57
(g78
g59
NtRp4678
(dp4679
g62
(dp4680
g89
g90
ssg71
g4670
sg64
(lp4681
S':'
asbag57
(g78
g59
NtRp4682
(dp4683
g62
(dp4684
sg71
g4670
sg64
(lp4685
g57
(g58
g59
NtRp4686
(dp4687
g62
(dp4688
g70
I5
ssg71
g4682
sg64
(lp4689
g2401
asbasbasbag57
(g73
g59
NtRp4690
(dp4691
g62
(dp4692
sg71
g3139
sg64
(lp4693
g57
(g78
g59
NtRp4694
(dp4695
g62
(dp4696
g82
g83
ssg71
g4690
sg64
(lp4697
S'view'
p4698
asbag57
(g78
g59
NtRp4699
(dp4700
g62
(dp4701
g89
g90
ssg71
g4690
sg64
(lp4702
S':'
asbag57
(g78
g59
NtRp4703
(dp4704
g62
(dp4705
sg71
g4690
sg64
(lp4706
g57
(g58
g59
NtRp4707
(dp4708
g62
(dp4709
g70
I5
ssg71
g4703
sg64
(lp4710
S'default/article.html'
p4711
asbasbasbasbasbsS'locals'
p4712
(dp4713
S'Service'
p4714
S"<class 'gluon.tools.Service'>"
p4715
sS'OBJECT'
p4716
S"<class 'gluon.html.OBJECT'>"
p4717
sS'SQLDB'
p4718
S"<class 'gluon.dal.DAL'>"
p4719
sg3099
S"<Storage {'_formkey[article/4]': 'e3137ee7-cc7f-...{'version': '18.0.1025.162', 'name': 'Chrome'}}}>"
p4720
sS'LINK'
p4721
S"<class 'gluon.html.LINK'>"
p4722
sS'BR'
p4723
S"<class 'gluon.html.BR'>"
p4724
sS'local_import'
p4725
S'<function <lambda>>'
p4726
sS'OPTGROUP'
p4727
S"<class 'gluon.html.OPTGROUP'>"
p4728
sS'__package__'
p4729
S'None'
p4730
sS'PRE'
p4731
S"<class 'gluon.html.PRE'>"
p4732
sS'IS_INT_IN_RANGE'
p4733
S"<class 'gluon.validators.IS_INT_IN_RANGE'>"
p4734
sS'IS_LOWER'
p4735
S"<class 'gluon.validators.IS_LOWER'>"
p4736
sS'IS_STRONG'
p4737
S"<class 'gluon.validators.IS_STRONG'>"
p4738
sS'cache'
p4739
S'<gluon.cache.Cache object>'
p4740
sS'IS_IN_DB'
p4741
S"<class 'gluon.validators.IS_IN_DB'>"
p4742
sS'TAG'
p4743
S'<gluon.html.__TAG__ object>'
p4744
sS'SQLField'
p4745
S"<class 'gluon.dal.Field'>"
p4746
sS'mail'
p4747
S'<gluon.tools.Mail object>'
p4748
sS'BODY'
p4749
S"<class 'gluon.html.BODY'>"
p4750
sS'IS_DATE_IN_RANGE'
p4751
S"<class 'gluon.validators.IS_DATE_IN_RANGE'>"
p4752
sS'TH'
p4753
S"<class 'gluon.html.TH'>"
p4754
sS'URL'
p4755
S'<function URL>'
p4756
sS'__file__'
p4757
S"'/home/fish/Desktop/web2py/applications/vsalad/views/default/article.html'"
p4758
sS'db'
p4759
S"<DAL {'auth_event': <Table {'origin': <gluon.dal...at 0x4184750>, '_singular': 'Auth membership'}>}>"
p4760
sS'auth'
p4761
S'<gluon.tools.Auth object>'
p4762
sS'P'
S"<class 'gluon.html.P'>"
p4763
sS'TFOOT'
p4764
S"<class 'gluon.html.TFOOT'>"
p4765
sS'XHTML'
p4766
S"<class 'gluon.html.XHTML'>"
p4767
sg2275
S'<built-in function time>'
p4768
sS'ON'
p4769
g1702
sS'OL'
p4770
S"<class 'gluon.html.OL'>"
p4771
sS'TEXTAREA'
p4772
S"<class 'gluon.html.TEXTAREA'>"
p4773
sS'MENU'
p4774
S"<class 'gluon.html.MENU'>"
p4775
sS't'
S'<function article>'
p4776
sS'IS_IMAGE'
p4777
S"<class 'gluon.validators.IS_IMAGE'>"
p4778
sS'LOAD'
p4779
S'<function LOAD>'
p4780
sS'CODE'
p4781
S"<class 'gluon.html.CODE'>"
p4782
sS'HTTP'
p4783
S"<class 'gluon.http.HTTP'>"
p4784
sS'HR'
p4785
S"<class 'gluon.html.HR'>"
p4786
sS'IS_DATETIME'
p4787
S"<class 'gluon.validators.IS_DATETIME'>"
p4788
sS'HEAD'
p4789
S"<class 'gluon.html.HEAD'>"
p4790
sS'LABEL'
p4791
S"<class 'gluon.html.LABEL'>"
p4792
sS'META'
p4793
S"<class 'gluon.html.META'>"
p4794
sS'plugins'
p4795
S'<gluon.tools.PluginManager object>'
p4796
sS'SELECT'
p4797
S"<class 'gluon.html.SELECT'>"
p4798
sS'use_janrain'
p4799
S'<function use_janrain>'
p4800
sS'CENTER'
p4801
S"<class 'gluon.html.CENTER'>"
p4802
sS'prettydate'
p4803
S'<function prettydate>'
p4804
sS'custom_auth_table'
p4805
S"<Table {'_db': <DAL {'auth_event': <Table {'orig...ion_key': <gluon.dal.Field object at 0x2de2390>}>"
p4806
sS'Crud'
p4807
S"<class 'gluon.tools.Crud'>"
p4808
sS'Auth'
p4809
S"<class 'gluon.tools.Auth'>"
p4810
sS'IS_EQUAL_TO'
p4811
S"<class 'gluon.validators.IS_EQUAL_TO'>"
p4812
sS'HTML'
p4813
S"<class 'gluon.html.HTML'>"
p4814
sS'SQLFORM'
p4815
S"<class 'gluon.sqlhtml.SQLFORM'>"
p4816
sS'EM'
p4817
S"<class 'gluon.html.EM'>"
p4818
sS'redirect'
p4819
S'<function redirect>'
p4820
sS'FIELDSET'
p4821
S"<class 'gluon.html.FIELDSET'>"
p4822
sS'__builtins__'
p4823
S"{'ArithmeticError': <type 'exceptions.ArithmeticError'>, 'AssertionError': <type 'exceptions.AssertionError'>, 'AttributeError': <type 'exceptions.AttributeError'>, 'BaseException': <type 'exceptions.BaseException'>, 'BufferError': <type 'exceptions.BufferError'>, 'BytesWarning': <type 'exceptions.BytesWarning'>, 'DeprecationWarning': <type 'exceptions.DeprecationWarning'>, 'EOFError': <type 'exceptions.EOFError'>, 'Ellipsis': Ellipsis, 'EnvironmentError': <type 'exceptions.EnvironmentError'>, ...}"
p4824
sS'embed64'
p4825
S'<function embed64>'
p4826
sS'IS_LIST_OF'
p4827
S"<class 'gluon.validators.IS_LIST_OF'>"
p4828
sS'INPUT'
p4829
S"<class 'gluon.html.INPUT'>"
p4830
sS'EMBED'
p4831
S"<class 'gluon.html.EMBED'>"
p4832
sS'_'
S'<function _>'
p4833
sS'H2'
p4834
S"<class 'gluon.html.H2'>"
p4835
sS'H3'
p4836
S"<class 'gluon.html.H3'>"
p4837
sS'BUTTON'
p4838
S"<class 'gluon.html.BUTTON'>"
p4839
sS'H1'
p4840
S"<class 'gluon.html.H1'>"
p4841
sS'H6'
p4842
S"<class 'gluon.html.H6'>"
p4843
sS'H4'
p4844
S"<class 'gluon.html.H4'>"
p4845
sS'H5'
p4846
S"<class 'gluon.html.H5'>"
p4847
sS'UL'
p4848
S"<class 'gluon.html.UL'>"
p4849
sS'IS_UPPER'
p4850
S"<class 'gluon.validators.IS_UPPER'>"
p4851
sS'xmlescape'
p4852
S'<function xmlescape>'
p4853
sS'IS_TIME'
p4854
S"<class 'gluon.validators.IS_TIME'>"
p4855
sS'OPTION'
p4856
S"<class 'gluon.html.OPTION'>"
p4857
sS'TITLE'
p4858
S"<class 'gluon.html.TITLE'>"
p4859
sS'CRYPT'
p4860
S"<class 'gluon.validators.CRYPT'>"
p4861
sS'IS_EMPTY_OR'
p4862
S"<class 'gluon.validators.IS_EMPTY_OR'>"
p4863
sS'MARKMIN'
p4864
S"<class 'gluon.html.MARKMIN'>"
p4865
sS'__name__'
p4866
S"'__restricted__'"
p4867
sS'COL'
p4868
S"<class 'gluon.html.COL'>"
p4869
sS'service'
p4870
S'<gluon.tools.Service object>'
p4871
sS'SCRIPT'
p4872
S"<class 'gluon.html.SCRIPT'>"
p4873
sS'TABLE'
p4874
S"<class 'gluon.html.TABLE'>"
p4875
sS'IS_IPV4'
p4876
S"<class 'gluon.validators.IS_IPV4'>"
p4877
sS'IS_LENGTH'
p4878
S"<class 'gluon.validators.IS_LENGTH'>"
p4879
sS'XML'
p4880
S"<class 'gluon.html.XML'>"
p4881
sS'B'
S"<class 'gluon.html.B'>"
p4882
sS'IMG'
p4883
S"<class 'gluon.html.IMG'>"
p4884
sS'SQLTABLE'
p4885
S"<class 'gluon.sqlhtml.SQLTABLE'>"
p4886
sS'IS_MATCH'
p4887
S"<class 'gluon.validators.IS_MATCH'>"
p4888
sS'IS_ALPHANUMERIC'
p4889
S"<class 'gluon.validators.IS_ALPHANUMERIC'>"
p4890
sS'SPAN'
p4891
S"<class 'gluon.html.SPAN'>"
p4892
sS'IS_SLUG'
p4893
S"<class 'gluon.validators.IS_SLUG'>"
p4894
sS'CLEANUP'
p4895
S"<class 'gluon.validators.CLEANUP'>"
p4896
sS'IS_DATE'
p4897
S"<class 'gluon.validators.IS_DATE'>"
p4898
sS'IS_EMAIL'
p4899
S"<class 'gluon.validators.IS_EMAIL'>"
p4900
sS'IS_NOT_EMPTY'
p4901
S"<class 'gluon.validators.IS_NOT_EMPTY'>"
p4902
sg56
S"<Storage {'body': <cStringIO.StringO object at 0..._vars': <Storage {}>, 'post_vars': <Storage {}>}>"
p4903
sS'BEAUTIFY'
p4904
S"<class 'gluon.html.BEAUTIFY'>"
p4905
sS'TBODY'
p4906
S"<class 'gluon.html.TBODY'>"
p4907
sS'CAT'
p4908
S"<class 'gluon.html.CAT'>"
p4909
sS'Field'
p4910
S"<class 'gluon.dal.Field'>"
p4911
sS'DIV'
p4912
S"<class 'gluon.html.DIV'>"
p4913
sS'LEGEND'
p4914
S"<class 'gluon.html.LEGEND'>"
p4915
sS'COLGROUP'
p4916
S"<class 'gluon.html.COLGROUP'>"
p4917
sS'DAL'
p4918
S"<class 'gluon.dal.DAL'>"
p4919
sS'TT'
p4920
S"<class 'gluon.html.TT'>"
p4921
sS'TR'
p4922
S"<class 'gluon.html.TR'>"
p4923
sS'LI'
p4924
S"<class 'gluon.html.LI'>"
p4925
sS'IFRAME'
p4926
S"<class 'gluon.html.IFRAME'>"
p4927
sS'TD'
p4928
S"<class 'gluon.html.TD'>"
p4929
sS'PluginManager'
p4930
S"<class 'gluon.tools.PluginManager'>"
p4931
sS'IS_URL'
p4932
S"<class 'gluon.validators.IS_URL'>"
p4933
sS'A'
S"<class 'gluon.html.A'>"
p4934
sS'STYLE'
p4935
S"<class 'gluon.html.STYLE'>"
p4936
sS'IS_DATETIME_IN_RANGE'
p4937
S"<class 'gluon.validators.IS_DATETIME_IN_RANGE'>"
p4938
sS'FORM'
p4939
S"<class 'gluon.html.FORM'>"
p4940
sS'I'
S"<class 'gluon.html.I'>"
p4941
sS'crud'
p4942
S'<gluon.tools.Crud object>'
p4943
sS'IS_NOT_IN_DB'
p4944
S"<class 'gluon.validators.IS_NOT_IN_DB'>"
p4945
sg3134
S"<Storage {'body': <cStringIO.StringO object at 0...> at 0x2fd5b90>, 'view': 'default/article.html'}>"
p4946
sS'THEAD'
p4947
S"<class 'gluon.html.THEAD'>"
p4948
sS'IS_NULL_OR'
p4949
S"<class 'gluon.validators.IS_EMPTY_OR'>"
p4950
sS'IS_FLOAT_IN_RANGE'
p4951
S"<class 'gluon.validators.IS_FLOAT_IN_RANGE'>"
p4952
sS'IS_EXPR'
p4953
S"<class 'gluon.validators.IS_EXPR'>"
p4954
sS'T'
S'<gluon.languages.translator object>'
p4955
sS'IS_IN_SET'
p4956
S"<class 'gluon.validators.IS_IN_SET'>"
p4957
sS'IS_UPLOAD_FILENAME'
p4958
S"<class 'gluon.validators.IS_UPLOAD_FILENAME'>"
p4959
sS'IS_DECIMAL_IN_RANGE'
p4960
S"<class 'gluon.validators.IS_DECIMAL_IN_RANGE'>"
p4961
sssS'traceback'
p4962
S'Traceback (most recent call last):\n  File "/home/fish/Desktop/web2py/gluon/restricted.py", line 205, in restricted\n    exec ccode in environment\n  File "/home/fish/Desktop/web2py/applications/vsalad/views/default/article.html", line 17, in <module>\nNameError: name \'title\' is not defined\n'
p4963
s.