(dp1
S'output'
p2
S"<type 'exceptions.SyntaxError'> invalid syntax (comments.html, line 43)"
p3
sS'layer'
p4
S'/home/fish/Desktop/web2py/applications/vsalad/views/action/comments.html'
p5
sS'code'
p6
S'response.write(\'<html lang="en">\\n<head>\\n    <script src="\', escape=False)\nresponse.write(URL(\'static\',\'js/jquery.js\'))\nresponse.write(\'"></script>\\n    <script src="\', escape=False)\nresponse.write(URL(\'static\',\'js/vsalad.js\'))\nresponse.write(\'"></script>\\n    <link rel="stylesheet" href="\', escape=False)\nresponse.write(URL(\'static\',\'css/vs.css\'))\nresponse.write(\'"></link>\\n    <meta charset="utf-8">\\n    <title>Voodoo Salad</title>\\n    <meta name="viewport" content="width=device-width, initial-scale=1.0">\\n    <meta name="description" content="">\\n    <meta name="author" content="">\\n\\n    <!-- Styles -->\\n    <link href="\', escape=False)\nresponse.write(URL(\'static\',\'css/bootstrap.css\'))\nresponse.write(\'" rel="stylesheet">\\n    <link href="\', escape=False)\nresponse.write(URL(\'static\',\'css/bootstrap-responsive.css\'))\nresponse.write(\'" rel="stylesheet">\\n\\n  \\n</head>\\n<body>\\n<div id="welcome-panel" class="hero-unit row">\\n            \\n\\n\\n        <div id="title">\\n         \\n                <h1 class="voodoo span">V&#3232;&#3232;doo {</h1> \\n                <a class="span", href="\', escape=False)\nresponse.write(URL(\'default\', \'index\'))\nresponse.write(\'"><img src="\', escape=False)\nresponse.write(URL(\'static\', \'images/vfish.jpg\'))\nresponse.write(\'"/></a>\\n                 <h1 class="tuna span">} Tuna</h1>\\n                 \\n       </div>\\n     \\n    </div>\\n\\n\\n\', escape=False)\nresponse.write(\'\\n<div id="content" class="row">\\n\', escape=False)\nif request.args(0):\n    response.write("\\n  <div id=\'article\'>\\n    <h1>", escape=False)\n    response.write(article.title)\n    response.write(\' </h1>\\n    <p id="tagline"> submitted\\n        <a id="created_on" title="\', escape=False)\n    response.write(article.created_on)\n    response.write(\'"></a>\\n         by\\n        <a href="#" id="author">\', escape=False)\n    response.write(article.author)\n    response.write("</a>\\n      </p>\\n    </div>\\n    <div id=\'user-text\'>\\n    <p>", escape=False)\n    response.write(article.content)\n    response.write(\'</p>\\n    </div>\\n\', escape=False)\n    pass\nresponse.write(\'\\n</div>\\n\\n\\n    <style> \\n    \\n    body, input, textarea {\\ncolor: #373737;\\nfont: 13px "Helvetica Neue", Helvetica, Arial, sans-serif;\\nfont-weight: 300;\\nline-height: 1.625;\\n}\\n\\n     \\n    .comments .user-text {\\n    padding-left :15px;\\n    }\\n\\n    .children {padding-left: 10px;}\\n        \\n    .tagline {\\n    padding: 0;\\n    margin: 0;\\n    font-size: small;\\n    }\\n      \\n    .tagline a{\\n    margin-right: 1px;\\n    text-decoration:none;\\n    font-size: small;\\n    }\\n    \\n    .author {\\n    color: gray;\\n    font-weight: bold;\\n    }\\n    \\n    .flatlist {\\n    font-size: small;\\n    font-weight:bold;\\n    color: gray;\\n    }\\n    </style>\\n\\n\\n\', escape=False)\ndef show(t, count=0):\n    response.write(\'\\n    \', escape=False)\n    for x in t:\n        response.write(\'\\n        <div class="comment">\\n        <p class="tagline">\\n            <a class="expand" href="#">[-]</a>\\n            <a class="author" href="#">\', escape=False)\n        response.write(x[\'author\'])\n        response.write(\'</a>\\n            <a class="time" href="#" title="\', escape=False)\n        response.write(x[\'created_on\'])\n        response.write(\'">\', escape=False)\n        response.write(x[\'created_on\'])\n        response.write(\'</a>      \\n            </p>\\n          \\n        <div class="user-text">\', escape=False)\n        response.write(x[\'body\'])\n        response.write(\'</div>\\n        <div class="flatlist">\\n            <a class="reply">reply</a>\\n            </div>\\n        <div class="children">\\n        \', escape=False)\n        if x[\'children\'] is not None:\n            response.write(\'\\n            \', escape=False)\n            if count = 3:\n                response.write(\'\\n                \', escape=False)\n                show(x[\'children\'], count+1)\n                response.write(\'\\n            \\n            \', escape=False)\n            else:\n                response.write(\'\\n                 <a href="/\', escape=False)\n                response.write(x[\'id\'])\n                response.write(\'">Load more comments</a>\\n                 \\n              \', escape=False)\n                pass\n            response.write(\'   \\n              </div>        \\n        \', escape=False)\n            pass\n        response.write(\'\\n        </div>\\n    \', escape=False)\n        pass\n    response.write(\'  \\n    \', escape=False)\n    return\nresponse.write(\'\\n    \\n   \\n\', escape=False)\nshow(children)\nresponse.write(\'\\n\', escape=False)\nresponse.write(\'\\n</body>\\n</html>\\n\', escape=False)'
p7
sS'snapshot'
p8
(dp9
S'exception'
p10
(dp11
S'__getslice__'
p12
S"<method-wrapper '__getslice__' of exceptions.SyntaxError object>"
p13
sS'text'
p14
S"'            if count = 3:\\n'"
p15
sS'__str__'
p16
S"<method-wrapper '__str__' of exceptions.SyntaxError object>"
p17
sS'__reduce__'
p18
S'<built-in method __reduce__ of exceptions.SyntaxError object>'
p19
sS'__dict__'
p20
S'{}'
p21
sS'__sizeof__'
p22
S'<built-in method __sizeof__ of exceptions.SyntaxError object>'
p23
sS'__init__'
p24
S"<method-wrapper '__init__' of exceptions.SyntaxError object>"
p25
sS'__setattr__'
p26
S"<method-wrapper '__setattr__' of exceptions.SyntaxError object>"
p27
sS'__reduce_ex__'
p28
S'<built-in method __reduce_ex__ of exceptions.SyntaxError object>'
p29
sS'__new__'
p30
S'<built-in method __new__ of type object>'
p31
sS'__format__'
p32
S'<built-in method __format__ of exceptions.SyntaxError object>'
p33
sS'__class__'
p34
S"<type 'exceptions.SyntaxError'>"
p35
sS'filename'
p36
S"'/home/fish/Desktop/web2py/applications/vsalad/views/action/comments.html'"
p37
sS'lineno'
p38
S'43'
p39
sS'msg'
p40
S"'invalid syntax'"
p41
sS'__doc__'
p42
S"'Invalid syntax.'"
p43
sS'__getitem__'
p44
S"<method-wrapper '__getitem__' of exceptions.SyntaxError object>"
p45
sS'__setstate__'
p46
S'<built-in method __setstate__ of exceptions.SyntaxError object>'
p47
sS'__getattribute__'
p48
S"<method-wrapper '__getattribute__' of exceptions.SyntaxError object>"
p49
sS'print_file_and_line'
p50
S'None'
p51
sS'args'
p52
S"('invalid syntax', ('/home/fish/Desktop/web2py/applications/vsalad/views/action/comments.html', 43, 22, '            if count = 3:\\n'))"
p53
sS'__subclasshook__'
p54
S'<built-in method __subclasshook__ of type object>'
p55
sS'offset'
p56
S'22'
p57
sS'__unicode__'
p58
S'<built-in method __unicode__ of exceptions.SyntaxError object>'
p59
sS'__delattr__'
p60
S"<method-wrapper '__delattr__' of exceptions.SyntaxError object>"
p61
sS'__repr__'
p62
S"<method-wrapper '__repr__' of exceptions.SyntaxError object>"
p63
sS'__hash__'
p64
S"<method-wrapper '__hash__' of exceptions.SyntaxError object>"
p65
ssS'evalue'
p66
S'invalid syntax (comments.html, line 43)'
p67
sS'request'
p68
ccopy_reg
_reconstructor
p69
(cgluon.html
BEAUTIFY
p70
c__builtin__
object
p71
NtRp72
(dp73
S'attributes'
p74
(dp75
sS'components'
p76
(lp77
g69
(cgluon.html
TABLE
p78
g71
NtRp79
(dp80
g74
(dp81
S'level'
p82
I5
ssS'parent'
p83
Nsg76
(lp84
g69
(cgluon.html
TR
p85
g71
NtRp86
(dp87
g74
(dp88
sg83
g79
sg76
(lp89
g69
(cgluon.html
TD
p90
g71
NtRp91
(dp92
g74
(dp93
S'_style'
p94
S'font-weight:bold;vertical-align:top'
p95
ssg83
g86
sg76
(lp96
S'ajax'
p97
asbag69
(g90
g71
NtRp98
(dp99
g74
(dp100
S'_valign'
p101
S'top'
p102
ssg83
g86
sg76
(lp103
S':'
asbag69
(g90
g71
NtRp104
(dp105
g74
(dp106
sg83
g86
sg76
(lp107
g69
(g70
g71
NtRp108
(dp109
g74
(dp110
g82
I5
ssg83
g104
sg76
(lp111
S'False'
p112
asbasbasbag69
(g85
g71
NtRp113
(dp114
g74
(dp115
sg83
g79
sg76
(lp116
g69
(g90
g71
NtRp117
(dp118
g74
(dp119
g94
g95
ssg83
g113
sg76
(lp120
S'application'
p121
asbag69
(g90
g71
NtRp122
(dp123
g74
(dp124
g101
g102
ssg83
g113
sg76
(lp125
S':'
asbag69
(g90
g71
NtRp126
(dp127
g74
(dp128
sg83
g113
sg76
(lp129
g69
(g70
g71
NtRp130
(dp131
g74
(dp132
g82
I5
ssg83
g126
sg76
(lp133
S'vsalad'
p134
asbasbasbag69
(g85
g71
NtRp135
(dp136
g74
(dp137
sg83
g79
sg76
(lp138
g69
(g90
g71
NtRp139
(dp140
g74
(dp141
g94
g95
ssg83
g135
sg76
(lp142
g52
asbag69
(g90
g71
NtRp143
(dp144
g74
(dp145
g101
g102
ssg83
g135
sg76
(lp146
S':'
asbag69
(g90
g71
NtRp147
(dp148
g74
(dp149
sg83
g135
sg76
(lp150
g69
(g70
g71
NtRp151
(dp152
g74
(dp153
g82
I5
ssg83
g147
sg76
(lp154
g69
(g78
g71
NtRp155
(dp156
g74
(dp157
g82
I4
ssg83
Nsg76
(lp158
g69
(g85
g71
NtRp159
(dp160
g74
(dp161
sg83
g155
sg76
(lp162
g69
(g90
g71
NtRp163
(dp164
g74
(dp165
sg83
g159
sg76
(lp166
g69
(g70
g71
NtRp167
(dp168
g74
(dp169
g82
I4
ssg83
g163
sg76
(lp170
S'4'
asbasbasbasbasbasbasbag69
(g85
g71
NtRp171
(dp172
g74
(dp173
sg83
g79
sg76
(lp174
g69
(g90
g71
NtRp175
(dp176
g74
(dp177
g94
g95
ssg83
g171
sg76
(lp178
S'body'
p179
asbag69
(g90
g71
NtRp180
(dp181
g74
(dp182
g101
g102
ssg83
g171
sg76
(lp183
S':'
asbag69
(g90
g71
NtRp184
(dp185
g74
(dp186
sg83
g171
sg76
(lp187
g69
(g70
g71
NtRp188
(dp189
g74
(dp190
g82
I5
ssg83
g184
sg76
(lp191
S'<cStringIO.StringO object at 0x2fe6e68>'
p192
asbasbasbag69
(g85
g71
NtRp193
(dp194
g74
(dp195
sg83
g79
sg76
(lp196
g69
(g90
g71
NtRp197
(dp198
g74
(dp199
g94
g95
ssg83
g193
sg76
(lp200
S'client'
p201
asbag69
(g90
g71
NtRp202
(dp203
g74
(dp204
g101
g102
ssg83
g193
sg76
(lp205
S':'
asbag69
(g90
g71
NtRp206
(dp207
g74
(dp208
sg83
g193
sg76
(lp209
g69
(g70
g71
NtRp210
(dp211
g74
(dp212
g82
I5
ssg83
g206
sg76
(lp213
S'127.0.0.1'
p214
asbasbasbag69
(g85
g71
NtRp215
(dp216
g74
(dp217
sg83
g79
sg76
(lp218
g69
(g90
g71
NtRp219
(dp220
g74
(dp221
g94
g95
ssg83
g215
sg76
(lp222
S'controller'
p223
asbag69
(g90
g71
NtRp224
(dp225
g74
(dp226
g101
g102
ssg83
g215
sg76
(lp227
S':'
asbag69
(g90
g71
NtRp228
(dp229
g74
(dp230
sg83
g215
sg76
(lp231
g69
(g70
g71
NtRp232
(dp233
g74
(dp234
g82
I5
ssg83
g228
sg76
(lp235
S'action'
p236
asbasbasbag69
(g85
g71
NtRp237
(dp238
g74
(dp239
sg83
g79
sg76
(lp240
g69
(g90
g71
NtRp241
(dp242
g74
(dp243
g94
g95
ssg83
g237
sg76
(lp244
S'cookies'
p245
asbag69
(g90
g71
NtRp246
(dp247
g74
(dp248
g101
g102
ssg83
g237
sg76
(lp249
S':'
asbag69
(g90
g71
NtRp250
(dp251
g74
(dp252
sg83
g237
sg76
(lp253
g69
(g70
g71
NtRp254
(dp255
g74
(dp256
g82
I5
ssg83
g250
sg76
(lp257
g69
(g78
g71
NtRp258
(dp259
g74
(dp260
g82
I4
ssg83
Nsg76
(lp261
g69
(g85
g71
NtRp262
(dp263
g74
(dp264
sg83
g258
sg76
(lp265
g69
(g90
g71
NtRp266
(dp267
g74
(dp268
g94
g95
ssg83
g262
sg76
(lp269
S'session_id_admin'
p270
asbag69
(g90
g71
NtRp271
(dp272
g74
(dp273
g101
g102
ssg83
g262
sg76
(lp274
S':'
asbag69
(g90
g71
NtRp275
(dp276
g74
(dp277
sg83
g262
sg76
(lp278
g69
(g70
g71
NtRp279
(dp280
g74
(dp281
g82
I4
ssg83
g275
sg76
(lp282
g69
(g78
g71
NtRp283
(dp284
g74
(dp285
g82
I3
ssg83
Nsg76
(lp286
g69
(g85
g71
NtRp287
(dp288
g74
(dp289
sg83
g283
sg76
(lp290
g69
(g90
g71
NtRp291
(dp292
g74
(dp293
g94
g95
ssg83
g287
sg76
(lp294
S'comment'
p295
asbag69
(g90
g71
NtRp296
(dp297
g74
(dp298
g101
g102
ssg83
g287
sg76
(lp299
S':'
asbag69
(g90
g71
NtRp300
(dp301
g74
(dp302
sg83
g287
sg76
(lp303
g69
(g70
g71
NtRp304
(dp305
g74
(dp306
g82
I3
ssg83
g300
sg76
(lp307
S''
asbasbasbag69
(g85
g71
NtRp308
(dp309
g74
(dp310
sg83
g283
sg76
(lp311
g69
(g90
g71
NtRp312
(dp313
g74
(dp314
g94
g95
ssg83
g308
sg76
(lp315
S'domain'
p316
asbag69
(g90
g71
NtRp317
(dp318
g74
(dp319
g101
g102
ssg83
g308
sg76
(lp320
S':'
asbag69
(g90
g71
NtRp321
(dp322
g74
(dp323
sg83
g308
sg76
(lp324
g69
(g70
g71
NtRp325
(dp326
g74
(dp327
g82
I3
ssg83
g321
sg76
(lp328
S''
asbasbasbag69
(g85
g71
NtRp329
(dp330
g74
(dp331
sg83
g283
sg76
(lp332
g69
(g90
g71
NtRp333
(dp334
g74
(dp335
g94
g95
ssg83
g329
sg76
(lp336
S'expires'
p337
asbag69
(g90
g71
NtRp338
(dp339
g74
(dp340
g101
g102
ssg83
g329
sg76
(lp341
S':'
asbag69
(g90
g71
NtRp342
(dp343
g74
(dp344
sg83
g329
sg76
(lp345
g69
(g70
g71
NtRp346
(dp347
g74
(dp348
g82
I3
ssg83
g342
sg76
(lp349
S''
asbasbasbag69
(g85
g71
NtRp350
(dp351
g74
(dp352
sg83
g283
sg76
(lp353
g69
(g90
g71
NtRp354
(dp355
g74
(dp356
g94
g95
ssg83
g350
sg76
(lp357
S'httponly'
p358
asbag69
(g90
g71
NtRp359
(dp360
g74
(dp361
g101
g102
ssg83
g350
sg76
(lp362
S':'
asbag69
(g90
g71
NtRp363
(dp364
g74
(dp365
sg83
g350
sg76
(lp366
g69
(g70
g71
NtRp367
(dp368
g74
(dp369
g82
I3
ssg83
g363
sg76
(lp370
S''
asbasbasbag69
(g85
g71
NtRp371
(dp372
g74
(dp373
sg83
g283
sg76
(lp374
g69
(g90
g71
NtRp375
(dp376
g74
(dp377
g94
g95
ssg83
g371
sg76
(lp378
S'max-age'
p379
asbag69
(g90
g71
NtRp380
(dp381
g74
(dp382
g101
g102
ssg83
g371
sg76
(lp383
S':'
asbag69
(g90
g71
NtRp384
(dp385
g74
(dp386
sg83
g371
sg76
(lp387
g69
(g70
g71
NtRp388
(dp389
g74
(dp390
g82
I3
ssg83
g384
sg76
(lp391
S''
asbasbasbag69
(g85
g71
NtRp392
(dp393
g74
(dp394
sg83
g283
sg76
(lp395
g69
(g90
g71
NtRp396
(dp397
g74
(dp398
g94
g95
ssg83
g392
sg76
(lp399
S'path'
p400
asbag69
(g90
g71
NtRp401
(dp402
g74
(dp403
g101
g102
ssg83
g392
sg76
(lp404
S':'
asbag69
(g90
g71
NtRp405
(dp406
g74
(dp407
sg83
g392
sg76
(lp408
g69
(g70
g71
NtRp409
(dp410
g74
(dp411
g82
I3
ssg83
g405
sg76
(lp412
S''
asbasbasbag69
(g85
g71
NtRp413
(dp414
g74
(dp415
sg83
g283
sg76
(lp416
g69
(g90
g71
NtRp417
(dp418
g74
(dp419
g94
g95
ssg83
g413
sg76
(lp420
S'secure'
p421
asbag69
(g90
g71
NtRp422
(dp423
g74
(dp424
g101
g102
ssg83
g413
sg76
(lp425
S':'
asbag69
(g90
g71
NtRp426
(dp427
g74
(dp428
sg83
g413
sg76
(lp429
g69
(g70
g71
NtRp430
(dp431
g74
(dp432
g82
I3
ssg83
g426
sg76
(lp433
S''
asbasbasbag69
(g85
g71
NtRp434
(dp435
g74
(dp436
sg83
g283
sg76
(lp437
g69
(g90
g71
NtRp438
(dp439
g74
(dp440
g94
g95
ssg83
g434
sg76
(lp441
S'version'
p442
asbag69
(g90
g71
NtRp443
(dp444
g74
(dp445
g101
g102
ssg83
g434
sg76
(lp446
S':'
asbag69
(g90
g71
NtRp447
(dp448
g74
(dp449
sg83
g434
sg76
(lp450
g69
(g70
g71
NtRp451
(dp452
g74
(dp453
g82
I3
ssg83
g447
sg76
(lp454
S''
asbasbasbasbasbasbasbag69
(g85
g71
NtRp455
(dp456
g74
(dp457
sg83
g258
sg76
(lp458
g69
(g90
g71
NtRp459
(dp460
g74
(dp461
g94
g95
ssg83
g455
sg76
(lp462
S'session_id_vsalad'
p463
asbag69
(g90
g71
NtRp464
(dp465
g74
(dp466
g101
g102
ssg83
g455
sg76
(lp467
S':'
asbag69
(g90
g71
NtRp468
(dp469
g74
(dp470
sg83
g455
sg76
(lp471
g69
(g70
g71
NtRp472
(dp473
g74
(dp474
g82
I4
ssg83
g468
sg76
(lp475
g69
(g78
g71
NtRp476
(dp477
g74
(dp478
g82
I3
ssg83
Nsg76
(lp479
g69
(g85
g71
NtRp480
(dp481
g74
(dp482
sg83
g476
sg76
(lp483
g69
(g90
g71
NtRp484
(dp485
g74
(dp486
g94
g95
ssg83
g480
sg76
(lp487
g295
asbag69
(g90
g71
NtRp488
(dp489
g74
(dp490
g101
g102
ssg83
g480
sg76
(lp491
S':'
asbag69
(g90
g71
NtRp492
(dp493
g74
(dp494
sg83
g480
sg76
(lp495
g69
(g70
g71
NtRp496
(dp497
g74
(dp498
g82
I3
ssg83
g492
sg76
(lp499
S''
asbasbasbag69
(g85
g71
NtRp500
(dp501
g74
(dp502
sg83
g476
sg76
(lp503
g69
(g90
g71
NtRp504
(dp505
g74
(dp506
g94
g95
ssg83
g500
sg76
(lp507
g316
asbag69
(g90
g71
NtRp508
(dp509
g74
(dp510
g101
g102
ssg83
g500
sg76
(lp511
S':'
asbag69
(g90
g71
NtRp512
(dp513
g74
(dp514
sg83
g500
sg76
(lp515
g69
(g70
g71
NtRp516
(dp517
g74
(dp518
g82
I3
ssg83
g512
sg76
(lp519
S''
asbasbasbag69
(g85
g71
NtRp520
(dp521
g74
(dp522
sg83
g476
sg76
(lp523
g69
(g90
g71
NtRp524
(dp525
g74
(dp526
g94
g95
ssg83
g520
sg76
(lp527
g337
asbag69
(g90
g71
NtRp528
(dp529
g74
(dp530
g101
g102
ssg83
g520
sg76
(lp531
S':'
asbag69
(g90
g71
NtRp532
(dp533
g74
(dp534
sg83
g520
sg76
(lp535
g69
(g70
g71
NtRp536
(dp537
g74
(dp538
g82
I3
ssg83
g532
sg76
(lp539
S''
asbasbasbag69
(g85
g71
NtRp540
(dp541
g74
(dp542
sg83
g476
sg76
(lp543
g69
(g90
g71
NtRp544
(dp545
g74
(dp546
g94
g95
ssg83
g540
sg76
(lp547
g358
asbag69
(g90
g71
NtRp548
(dp549
g74
(dp550
g101
g102
ssg83
g540
sg76
(lp551
S':'
asbag69
(g90
g71
NtRp552
(dp553
g74
(dp554
sg83
g540
sg76
(lp555
g69
(g70
g71
NtRp556
(dp557
g74
(dp558
g82
I3
ssg83
g552
sg76
(lp559
S''
asbasbasbag69
(g85
g71
NtRp560
(dp561
g74
(dp562
sg83
g476
sg76
(lp563
g69
(g90
g71
NtRp564
(dp565
g74
(dp566
g94
g95
ssg83
g560
sg76
(lp567
g379
asbag69
(g90
g71
NtRp568
(dp569
g74
(dp570
g101
g102
ssg83
g560
sg76
(lp571
S':'
asbag69
(g90
g71
NtRp572
(dp573
g74
(dp574
sg83
g560
sg76
(lp575
g69
(g70
g71
NtRp576
(dp577
g74
(dp578
g82
I3
ssg83
g572
sg76
(lp579
S''
asbasbasbag69
(g85
g71
NtRp580
(dp581
g74
(dp582
sg83
g476
sg76
(lp583
g69
(g90
g71
NtRp584
(dp585
g74
(dp586
g94
g95
ssg83
g580
sg76
(lp587
g400
asbag69
(g90
g71
NtRp588
(dp589
g74
(dp590
g101
g102
ssg83
g580
sg76
(lp591
S':'
asbag69
(g90
g71
NtRp592
(dp593
g74
(dp594
sg83
g580
sg76
(lp595
g69
(g70
g71
NtRp596
(dp597
g74
(dp598
g82
I3
ssg83
g592
sg76
(lp599
S''
asbasbasbag69
(g85
g71
NtRp600
(dp601
g74
(dp602
sg83
g476
sg76
(lp603
g69
(g90
g71
NtRp604
(dp605
g74
(dp606
g94
g95
ssg83
g600
sg76
(lp607
g421
asbag69
(g90
g71
NtRp608
(dp609
g74
(dp610
g101
g102
ssg83
g600
sg76
(lp611
S':'
asbag69
(g90
g71
NtRp612
(dp613
g74
(dp614
sg83
g600
sg76
(lp615
g69
(g70
g71
NtRp616
(dp617
g74
(dp618
g82
I3
ssg83
g612
sg76
(lp619
S''
asbasbasbag69
(g85
g71
NtRp620
(dp621
g74
(dp622
sg83
g476
sg76
(lp623
g69
(g90
g71
NtRp624
(dp625
g74
(dp626
g94
g95
ssg83
g620
sg76
(lp627
g442
asbag69
(g90
g71
NtRp628
(dp629
g74
(dp630
g101
g102
ssg83
g620
sg76
(lp631
S':'
asbag69
(g90
g71
NtRp632
(dp633
g74
(dp634
sg83
g620
sg76
(lp635
g69
(g70
g71
NtRp636
(dp637
g74
(dp638
g82
I3
ssg83
g632
sg76
(lp639
S''
asbasbasbasbasbasbasbag69
(g85
g71
NtRp640
(dp641
g74
(dp642
sg83
g258
sg76
(lp643
g69
(g90
g71
NtRp644
(dp645
g74
(dp646
g94
g95
ssg83
g640
sg76
(lp647
S'session_id_welcome'
p648
asbag69
(g90
g71
NtRp649
(dp650
g74
(dp651
g101
g102
ssg83
g640
sg76
(lp652
S':'
asbag69
(g90
g71
NtRp653
(dp654
g74
(dp655
sg83
g640
sg76
(lp656
g69
(g70
g71
NtRp657
(dp658
g74
(dp659
g82
I4
ssg83
g653
sg76
(lp660
g69
(g78
g71
NtRp661
(dp662
g74
(dp663
g82
I3
ssg83
Nsg76
(lp664
g69
(g85
g71
NtRp665
(dp666
g74
(dp667
sg83
g661
sg76
(lp668
g69
(g90
g71
NtRp669
(dp670
g74
(dp671
g94
g95
ssg83
g665
sg76
(lp672
g295
asbag69
(g90
g71
NtRp673
(dp674
g74
(dp675
g101
g102
ssg83
g665
sg76
(lp676
S':'
asbag69
(g90
g71
NtRp677
(dp678
g74
(dp679
sg83
g665
sg76
(lp680
g69
(g70
g71
NtRp681
(dp682
g74
(dp683
g82
I3
ssg83
g677
sg76
(lp684
S''
asbasbasbag69
(g85
g71
NtRp685
(dp686
g74
(dp687
sg83
g661
sg76
(lp688
g69
(g90
g71
NtRp689
(dp690
g74
(dp691
g94
g95
ssg83
g685
sg76
(lp692
g316
asbag69
(g90
g71
NtRp693
(dp694
g74
(dp695
g101
g102
ssg83
g685
sg76
(lp696
S':'
asbag69
(g90
g71
NtRp697
(dp698
g74
(dp699
sg83
g685
sg76
(lp700
g69
(g70
g71
NtRp701
(dp702
g74
(dp703
g82
I3
ssg83
g697
sg76
(lp704
S''
asbasbasbag69
(g85
g71
NtRp705
(dp706
g74
(dp707
sg83
g661
sg76
(lp708
g69
(g90
g71
NtRp709
(dp710
g74
(dp711
g94
g95
ssg83
g705
sg76
(lp712
g337
asbag69
(g90
g71
NtRp713
(dp714
g74
(dp715
g101
g102
ssg83
g705
sg76
(lp716
S':'
asbag69
(g90
g71
NtRp717
(dp718
g74
(dp719
sg83
g705
sg76
(lp720
g69
(g70
g71
NtRp721
(dp722
g74
(dp723
g82
I3
ssg83
g717
sg76
(lp724
S''
asbasbasbag69
(g85
g71
NtRp725
(dp726
g74
(dp727
sg83
g661
sg76
(lp728
g69
(g90
g71
NtRp729
(dp730
g74
(dp731
g94
g95
ssg83
g725
sg76
(lp732
g358
asbag69
(g90
g71
NtRp733
(dp734
g74
(dp735
g101
g102
ssg83
g725
sg76
(lp736
S':'
asbag69
(g90
g71
NtRp737
(dp738
g74
(dp739
sg83
g725
sg76
(lp740
g69
(g70
g71
NtRp741
(dp742
g74
(dp743
g82
I3
ssg83
g737
sg76
(lp744
S''
asbasbasbag69
(g85
g71
NtRp745
(dp746
g74
(dp747
sg83
g661
sg76
(lp748
g69
(g90
g71
NtRp749
(dp750
g74
(dp751
g94
g95
ssg83
g745
sg76
(lp752
g379
asbag69
(g90
g71
NtRp753
(dp754
g74
(dp755
g101
g102
ssg83
g745
sg76
(lp756
S':'
asbag69
(g90
g71
NtRp757
(dp758
g74
(dp759
sg83
g745
sg76
(lp760
g69
(g70
g71
NtRp761
(dp762
g74
(dp763
g82
I3
ssg83
g757
sg76
(lp764
S''
asbasbasbag69
(g85
g71
NtRp765
(dp766
g74
(dp767
sg83
g661
sg76
(lp768
g69
(g90
g71
NtRp769
(dp770
g74
(dp771
g94
g95
ssg83
g765
sg76
(lp772
g400
asbag69
(g90
g71
NtRp773
(dp774
g74
(dp775
g101
g102
ssg83
g765
sg76
(lp776
S':'
asbag69
(g90
g71
NtRp777
(dp778
g74
(dp779
sg83
g765
sg76
(lp780
g69
(g70
g71
NtRp781
(dp782
g74
(dp783
g82
I3
ssg83
g777
sg76
(lp784
S''
asbasbasbag69
(g85
g71
NtRp785
(dp786
g74
(dp787
sg83
g661
sg76
(lp788
g69
(g90
g71
NtRp789
(dp790
g74
(dp791
g94
g95
ssg83
g785
sg76
(lp792
g421
asbag69
(g90
g71
NtRp793
(dp794
g74
(dp795
g101
g102
ssg83
g785
sg76
(lp796
S':'
asbag69
(g90
g71
NtRp797
(dp798
g74
(dp799
sg83
g785
sg76
(lp800
g69
(g70
g71
NtRp801
(dp802
g74
(dp803
g82
I3
ssg83
g797
sg76
(lp804
S''
asbasbasbag69
(g85
g71
NtRp805
(dp806
g74
(dp807
sg83
g661
sg76
(lp808
g69
(g90
g71
NtRp809
(dp810
g74
(dp811
g94
g95
ssg83
g805
sg76
(lp812
g442
asbag69
(g90
g71
NtRp813
(dp814
g74
(dp815
g101
g102
ssg83
g805
sg76
(lp816
S':'
asbag69
(g90
g71
NtRp817
(dp818
g74
(dp819
sg83
g805
sg76
(lp820
g69
(g70
g71
NtRp821
(dp822
g74
(dp823
g82
I3
ssg83
g817
sg76
(lp824
S''
asbasbasbasbasbasbasbasbasbasbasbag69
(g85
g71
NtRp825
(dp826
g74
(dp827
sg83
g79
sg76
(lp828
g69
(g90
g71
NtRp829
(dp830
g74
(dp831
g94
g95
ssg83
g825
sg76
(lp832
S'env'
p833
asbag69
(g90
g71
NtRp834
(dp835
g74
(dp836
g101
g102
ssg83
g825
sg76
(lp837
S':'
asbag69
(g90
g71
NtRp838
(dp839
g74
(dp840
sg83
g825
sg76
(lp841
g69
(g70
g71
NtRp842
(dp843
g74
(dp844
g82
I5
ssg83
g838
sg76
(lp845
g69
(g78
g71
NtRp846
(dp847
g74
(dp848
g82
I4
ssg83
Nsg76
(lp849
g69
(g85
g71
NtRp850
(dp851
g74
(dp852
sg83
g846
sg76
(lp853
g69
(g90
g71
NtRp854
(dp855
g74
(dp856
g94
g95
ssg83
g850
sg76
(lp857
S'app_folders'
p858
asbag69
(g90
g71
NtRp859
(dp860
g74
(dp861
g101
g102
ssg83
g850
sg76
(lp862
S':'
asbag69
(g90
g71
NtRp863
(dp864
g74
(dp865
sg83
g850
sg76
(lp866
g69
(g70
g71
NtRp867
(dp868
g74
(dp869
g82
I4
ssg83
g863
sg76
(lp870
S"set(['/home/fish/Desktop/web2py/applications/admin/', '/home/fish/Desktop/web2py/applications/welcome/', '/home/fish/Desktop/web2py/applications/vsalad/'])"
p871
asbasbasbag69
(g85
g71
NtRp872
(dp873
g74
(dp874
sg83
g846
sg76
(lp875
g69
(g90
g71
NtRp876
(dp877
g74
(dp878
g94
g95
ssg83
g872
sg76
(lp879
S'applications_parent'
p880
asbag69
(g90
g71
NtRp881
(dp882
g74
(dp883
g101
g102
ssg83
g872
sg76
(lp884
S':'
asbag69
(g90
g71
NtRp885
(dp886
g74
(dp887
sg83
g872
sg76
(lp888
g69
(g70
g71
NtRp889
(dp890
g74
(dp891
g82
I4
ssg83
g885
sg76
(lp892
S'/home/fish/Desktop/web2py'
p893
asbasbasbag69
(g85
g71
NtRp894
(dp895
g74
(dp896
sg83
g846
sg76
(lp897
g69
(g90
g71
NtRp898
(dp899
g74
(dp900
g94
g95
ssg83
g894
sg76
(lp901
S'cmd_args'
p902
asbag69
(g90
g71
NtRp903
(dp904
g74
(dp905
g101
g102
ssg83
g894
sg76
(lp906
S':'
asbag69
(g90
g71
NtRp907
(dp908
g74
(dp909
sg83
g894
sg76
(lp910
g69
(g70
g71
NtRp911
(dp912
g74
(dp913
g82
I4
ssg83
g907
sg76
(lp914
g69
(g78
g71
NtRp915
(dp916
g74
(dp917
g82
I3
ssg83
Nsg76
(lp918
sbasbasbasbag69
(g85
g71
NtRp919
(dp920
g74
(dp921
sg83
g846
sg76
(lp922
g69
(g90
g71
NtRp923
(dp924
g74
(dp925
g94
g95
ssg83
g919
sg76
(lp926
S'cmd_options'
p927
asbag69
(g90
g71
NtRp928
(dp929
g74
(dp930
g101
g102
ssg83
g919
sg76
(lp931
S':'
asbag69
(g90
g71
NtRp932
(dp933
g74
(dp934
sg83
g919
sg76
(lp935
g69
(g70
g71
NtRp936
(dp937
g74
(dp938
g82
I4
ssg83
g932
sg76
(lp939
S"<Values at 0x270a518: {'verbose': False, 'ip': '127.0.0.1', 'shutdown_timeout': 5, 'taskbar': False, 'nocron': False, 'pid_filename': 'httpserver.pid', 'maxthreads': None, 'softcron': False, 'server_name': 'Master-Fish', 'bpython': False, 'nogui': False, 'port': 8000, 'extcron': False, 'debuglevel': 30, 'test': None, 'folder': '/home/fish/Desktop/web2py', 'config': '', 'import_models': False, 'winservice': '', 'shell': None, 'run': '', 'log_filename': 'httpserver.log', 'args': [''], 'socket_timeout': 5, 'ssl_ca_certificate': None, 'scheduler': None, 'profiler_filename': None, 'ssl_private_key': '', 'password': '<ask>', 'request_queue_size': 5, 'ssl_certificate': '', 'cronjob': False, 'numthreads': None, 'quiet': False, 'interfaces': None, 'minthreads': None, 'timeout': 10, 'plain': False, 'nobanner': False}>"
p940
asbasbasbag69
(g85
g71
NtRp941
(dp942
g74
(dp943
sg83
g846
sg76
(lp944
g69
(g90
g71
NtRp945
(dp946
g74
(dp947
g94
g95
ssg83
g941
sg76
(lp948
S'db_sessions'
p949
asbag69
(g90
g71
NtRp950
(dp951
g74
(dp952
g101
g102
ssg83
g941
sg76
(lp953
S':'
asbag69
(g90
g71
NtRp954
(dp955
g74
(dp956
sg83
g941
sg76
(lp957
g69
(g70
g71
NtRp958
(dp959
g74
(dp960
g82
I4
ssg83
g954
sg76
(lp961
S'set([])'
p962
asbasbasbag69
(g85
g71
NtRp963
(dp964
g74
(dp965
sg83
g846
sg76
(lp966
g69
(g90
g71
NtRp967
(dp968
g74
(dp969
g94
g95
ssg83
g963
sg76
(lp970
S'debugging'
p971
asbag69
(g90
g71
NtRp972
(dp973
g74
(dp974
g101
g102
ssg83
g963
sg76
(lp975
S':'
asbag69
(g90
g71
NtRp976
(dp977
g74
(dp978
sg83
g963
sg76
(lp979
g69
(g70
g71
NtRp980
(dp981
g74
(dp982
g82
I4
ssg83
g976
sg76
(lp983
g112
asbasbasbag69
(g85
g71
NtRp984
(dp985
g74
(dp986
sg83
g846
sg76
(lp987
g69
(g90
g71
NtRp988
(dp989
g74
(dp990
g94
g95
ssg83
g984
sg76
(lp991
S'gluon_parent'
p992
asbag69
(g90
g71
NtRp993
(dp994
g74
(dp995
g101
g102
ssg83
g984
sg76
(lp996
S':'
asbag69
(g90
g71
NtRp997
(dp998
g74
(dp999
sg83
g984
sg76
(lp1000
g69
(g70
g71
NtRp1001
(dp1002
g74
(dp1003
g82
I4
ssg83
g997
sg76
(lp1004
S'/home/fish/Desktop/web2py'
p1005
asbasbasbag69
(g85
g71
NtRp1006
(dp1007
g74
(dp1008
sg83
g846
sg76
(lp1009
g69
(g90
g71
NtRp1010
(dp1011
g74
(dp1012
g94
g95
ssg83
g1006
sg76
(lp1013
S'http_accept'
p1014
asbag69
(g90
g71
NtRp1015
(dp1016
g74
(dp1017
g101
g102
ssg83
g1006
sg76
(lp1018
S':'
asbag69
(g90
g71
NtRp1019
(dp1020
g74
(dp1021
sg83
g1006
sg76
(lp1022
g69
(g70
g71
NtRp1023
(dp1024
g74
(dp1025
g82
I4
ssg83
g1019
sg76
(lp1026
S'text/html,application/xhtml+xml,application/xml;q=0.9,*/*;q=0.8'
p1027
asbasbasbag69
(g85
g71
NtRp1028
(dp1029
g74
(dp1030
sg83
g846
sg76
(lp1031
g69
(g90
g71
NtRp1032
(dp1033
g74
(dp1034
g94
g95
ssg83
g1028
sg76
(lp1035
S'http_accept_charset'
p1036
asbag69
(g90
g71
NtRp1037
(dp1038
g74
(dp1039
g101
g102
ssg83
g1028
sg76
(lp1040
S':'
asbag69
(g90
g71
NtRp1041
(dp1042
g74
(dp1043
sg83
g1028
sg76
(lp1044
g69
(g70
g71
NtRp1045
(dp1046
g74
(dp1047
g82
I4
ssg83
g1041
sg76
(lp1048
S'ISO-8859-1,utf-8;q=0.7,*;q=0.3'
p1049
asbasbasbag69
(g85
g71
NtRp1050
(dp1051
g74
(dp1052
sg83
g846
sg76
(lp1053
g69
(g90
g71
NtRp1054
(dp1055
g74
(dp1056
g94
g95
ssg83
g1050
sg76
(lp1057
S'http_accept_encoding'
p1058
asbag69
(g90
g71
NtRp1059
(dp1060
g74
(dp1061
g101
g102
ssg83
g1050
sg76
(lp1062
S':'
asbag69
(g90
g71
NtRp1063
(dp1064
g74
(dp1065
sg83
g1050
sg76
(lp1066
g69
(g70
g71
NtRp1067
(dp1068
g74
(dp1069
g82
I4
ssg83
g1063
sg76
(lp1070
S'gzip,deflate,sdch'
p1071
asbasbasbag69
(g85
g71
NtRp1072
(dp1073
g74
(dp1074
sg83
g846
sg76
(lp1075
g69
(g90
g71
NtRp1076
(dp1077
g74
(dp1078
g94
g95
ssg83
g1072
sg76
(lp1079
S'http_accept_language'
p1080
asbag69
(g90
g71
NtRp1081
(dp1082
g74
(dp1083
g101
g102
ssg83
g1072
sg76
(lp1084
S':'
asbag69
(g90
g71
NtRp1085
(dp1086
g74
(dp1087
sg83
g1072
sg76
(lp1088
g69
(g70
g71
NtRp1089
(dp1090
g74
(dp1091
g82
I4
ssg83
g1085
sg76
(lp1092
S'en-US,en;q=0.8,fr;q=0.6'
p1093
asbasbasbag69
(g85
g71
NtRp1094
(dp1095
g74
(dp1096
sg83
g846
sg76
(lp1097
g69
(g90
g71
NtRp1098
(dp1099
g74
(dp1100
g94
g95
ssg83
g1094
sg76
(lp1101
S'http_cache_control'
p1102
asbag69
(g90
g71
NtRp1103
(dp1104
g74
(dp1105
g101
g102
ssg83
g1094
sg76
(lp1106
S':'
asbag69
(g90
g71
NtRp1107
(dp1108
g74
(dp1109
sg83
g1094
sg76
(lp1110
g69
(g70
g71
NtRp1111
(dp1112
g74
(dp1113
g82
I4
ssg83
g1107
sg76
(lp1114
S'max-age=0'
p1115
asbasbasbag69
(g85
g71
NtRp1116
(dp1117
g74
(dp1118
sg83
g846
sg76
(lp1119
g69
(g90
g71
NtRp1120
(dp1121
g74
(dp1122
g94
g95
ssg83
g1116
sg76
(lp1123
S'http_connection'
p1124
asbag69
(g90
g71
NtRp1125
(dp1126
g74
(dp1127
g101
g102
ssg83
g1116
sg76
(lp1128
S':'
asbag69
(g90
g71
NtRp1129
(dp1130
g74
(dp1131
sg83
g1116
sg76
(lp1132
g69
(g70
g71
NtRp1133
(dp1134
g74
(dp1135
g82
I4
ssg83
g1129
sg76
(lp1136
S'keep-alive'
p1137
asbasbasbag69
(g85
g71
NtRp1138
(dp1139
g74
(dp1140
sg83
g846
sg76
(lp1141
g69
(g90
g71
NtRp1142
(dp1143
g74
(dp1144
g94
g95
ssg83
g1138
sg76
(lp1145
S'http_cookie'
p1146
asbag69
(g90
g71
NtRp1147
(dp1148
g74
(dp1149
g101
g102
ssg83
g1138
sg76
(lp1150
S':'
asbag69
(g90
g71
NtRp1151
(dp1152
g74
(dp1153
sg83
g1138
sg76
(lp1154
g69
(g70
g71
NtRp1155
(dp1156
g74
(dp1157
g82
I4
ssg83
g1151
sg76
(lp1158
S'session_id_welcome=127.0.0.1-8aa73444-236f-4068-aea3-618ca0a758ac; session_id_vsalad=127.0.0.1-b0c9b93e-e451-4f91-a69e-ca27d345bc2e; session_id_admin=127.0.0.1-d9225497-3bee-4554-87c7-90cd3a5ec06b'
p1159
asbasbasbag69
(g85
g71
NtRp1160
(dp1161
g74
(dp1162
sg83
g846
sg76
(lp1163
g69
(g90
g71
NtRp1164
(dp1165
g74
(dp1166
g94
g95
ssg83
g1160
sg76
(lp1167
S'http_host'
p1168
asbag69
(g90
g71
NtRp1169
(dp1170
g74
(dp1171
g101
g102
ssg83
g1160
sg76
(lp1172
S':'
asbag69
(g90
g71
NtRp1173
(dp1174
g74
(dp1175
sg83
g1160
sg76
(lp1176
g69
(g70
g71
NtRp1177
(dp1178
g74
(dp1179
g82
I4
ssg83
g1173
sg76
(lp1180
S'127.0.0.1:8000'
p1181
asbasbasbag69
(g85
g71
NtRp1182
(dp1183
g74
(dp1184
sg83
g846
sg76
(lp1185
g69
(g90
g71
NtRp1186
(dp1187
g74
(dp1188
g94
g95
ssg83
g1182
sg76
(lp1189
S'http_referer'
p1190
asbag69
(g90
g71
NtRp1191
(dp1192
g74
(dp1193
g101
g102
ssg83
g1182
sg76
(lp1194
S':'
asbag69
(g90
g71
NtRp1195
(dp1196
g74
(dp1197
sg83
g1182
sg76
(lp1198
g69
(g70
g71
NtRp1199
(dp1200
g74
(dp1201
g82
I4
ssg83
g1195
sg76
(lp1202
S'http://127.0.0.1:8000/vsalad/default/index'
p1203
asbasbasbag69
(g85
g71
NtRp1204
(dp1205
g74
(dp1206
sg83
g846
sg76
(lp1207
g69
(g90
g71
NtRp1208
(dp1209
g74
(dp1210
g94
g95
ssg83
g1204
sg76
(lp1211
S'http_user_agent'
p1212
asbag69
(g90
g71
NtRp1213
(dp1214
g74
(dp1215
g101
g102
ssg83
g1204
sg76
(lp1216
S':'
asbag69
(g90
g71
NtRp1217
(dp1218
g74
(dp1219
sg83
g1204
sg76
(lp1220
g69
(g70
g71
NtRp1221
(dp1222
g74
(dp1223
g82
I4
ssg83
g1217
sg76
(lp1224
S'Mozilla/5.0 (X11; Linux x86_64) AppleWebKit/535.19 (KHTML, like Gecko) Chrome/18.0.1025.162 Safari/535.19'
p1225
asbasbasbag69
(g85
g71
NtRp1226
(dp1227
g74
(dp1228
sg83
g846
sg76
(lp1229
g69
(g90
g71
NtRp1230
(dp1231
g74
(dp1232
g94
g95
ssg83
g1226
sg76
(lp1233
S'is_jython'
p1234
asbag69
(g90
g71
NtRp1235
(dp1236
g74
(dp1237
g101
g102
ssg83
g1226
sg76
(lp1238
S':'
asbag69
(g90
g71
NtRp1239
(dp1240
g74
(dp1241
sg83
g1226
sg76
(lp1242
g69
(g70
g71
NtRp1243
(dp1244
g74
(dp1245
g82
I4
ssg83
g1239
sg76
(lp1246
g112
asbasbasbag69
(g85
g71
NtRp1247
(dp1248
g74
(dp1249
sg83
g846
sg76
(lp1250
g69
(g90
g71
NtRp1251
(dp1252
g74
(dp1253
g94
g95
ssg83
g1247
sg76
(lp1254
S'is_pypy'
p1255
asbag69
(g90
g71
NtRp1256
(dp1257
g74
(dp1258
g101
g102
ssg83
g1247
sg76
(lp1259
S':'
asbag69
(g90
g71
NtRp1260
(dp1261
g74
(dp1262
sg83
g1247
sg76
(lp1263
g69
(g70
g71
NtRp1264
(dp1265
g74
(dp1266
g82
I4
ssg83
g1260
sg76
(lp1267
g112
asbasbasbag69
(g85
g71
NtRp1268
(dp1269
g74
(dp1270
sg83
g846
sg76
(lp1271
g69
(g90
g71
NtRp1272
(dp1273
g74
(dp1274
g94
g95
ssg83
g1268
sg76
(lp1275
S'path_info'
p1276
asbag69
(g90
g71
NtRp1277
(dp1278
g74
(dp1279
g101
g102
ssg83
g1268
sg76
(lp1280
S':'
asbag69
(g90
g71
NtRp1281
(dp1282
g74
(dp1283
sg83
g1268
sg76
(lp1284
g69
(g70
g71
NtRp1285
(dp1286
g74
(dp1287
g82
I4
ssg83
g1281
sg76
(lp1288
S'/vsalad/action/comments/4'
p1289
asbasbasbag69
(g85
g71
NtRp1290
(dp1291
g74
(dp1292
sg83
g846
sg76
(lp1293
g69
(g90
g71
NtRp1294
(dp1295
g74
(dp1296
g94
g95
ssg83
g1290
sg76
(lp1297
S'query_string'
p1298
asbag69
(g90
g71
NtRp1299
(dp1300
g74
(dp1301
g101
g102
ssg83
g1290
sg76
(lp1302
S':'
asbag69
(g90
g71
NtRp1303
(dp1304
g74
(dp1305
sg83
g1290
sg76
(lp1306
g69
(g70
g71
NtRp1307
(dp1308
g74
(dp1309
g82
I4
ssg83
g1303
sg76
(lp1310
S''
asbasbasbag69
(g85
g71
NtRp1311
(dp1312
g74
(dp1313
sg83
g846
sg76
(lp1314
g69
(g90
g71
NtRp1315
(dp1316
g74
(dp1317
g94
g95
ssg83
g1311
sg76
(lp1318
S'remote_addr'
p1319
asbag69
(g90
g71
NtRp1320
(dp1321
g74
(dp1322
g101
g102
ssg83
g1311
sg76
(lp1323
S':'
asbag69
(g90
g71
NtRp1324
(dp1325
g74
(dp1326
sg83
g1311
sg76
(lp1327
g69
(g70
g71
NtRp1328
(dp1329
g74
(dp1330
g82
I4
ssg83
g1324
sg76
(lp1331
g214
asbasbasbag69
(g85
g71
NtRp1332
(dp1333
g74
(dp1334
sg83
g846
sg76
(lp1335
g69
(g90
g71
NtRp1336
(dp1337
g74
(dp1338
g94
g95
ssg83
g1332
sg76
(lp1339
S'remote_port'
p1340
asbag69
(g90
g71
NtRp1341
(dp1342
g74
(dp1343
g101
g102
ssg83
g1332
sg76
(lp1344
S':'
asbag69
(g90
g71
NtRp1345
(dp1346
g74
(dp1347
sg83
g1332
sg76
(lp1348
g69
(g70
g71
NtRp1349
(dp1350
g74
(dp1351
g82
I4
ssg83
g1345
sg76
(lp1352
S'56685'
p1353
asbasbasbag69
(g85
g71
NtRp1354
(dp1355
g74
(dp1356
sg83
g846
sg76
(lp1357
g69
(g90
g71
NtRp1358
(dp1359
g74
(dp1360
g94
g95
ssg83
g1354
sg76
(lp1361
S'request_method'
p1362
asbag69
(g90
g71
NtRp1363
(dp1364
g74
(dp1365
g101
g102
ssg83
g1354
sg76
(lp1366
S':'
asbag69
(g90
g71
NtRp1367
(dp1368
g74
(dp1369
sg83
g1354
sg76
(lp1370
g69
(g70
g71
NtRp1371
(dp1372
g74
(dp1373
g82
I4
ssg83
g1367
sg76
(lp1374
S'GET'
p1375
asbasbasbag69
(g85
g71
NtRp1376
(dp1377
g74
(dp1378
sg83
g846
sg76
(lp1379
g69
(g90
g71
NtRp1380
(dp1381
g74
(dp1382
g94
g95
ssg83
g1376
sg76
(lp1383
S'script_name'
p1384
asbag69
(g90
g71
NtRp1385
(dp1386
g74
(dp1387
g101
g102
ssg83
g1376
sg76
(lp1388
S':'
asbag69
(g90
g71
NtRp1389
(dp1390
g74
(dp1391
sg83
g1376
sg76
(lp1392
g69
(g70
g71
NtRp1393
(dp1394
g74
(dp1395
g82
I4
ssg83
g1389
sg76
(lp1396
S''
asbasbasbag69
(g85
g71
NtRp1397
(dp1398
g74
(dp1399
sg83
g846
sg76
(lp1400
g69
(g90
g71
NtRp1401
(dp1402
g74
(dp1403
g94
g95
ssg83
g1397
sg76
(lp1404
S'server_name'
p1405
asbag69
(g90
g71
NtRp1406
(dp1407
g74
(dp1408
g101
g102
ssg83
g1397
sg76
(lp1409
S':'
asbag69
(g90
g71
NtRp1410
(dp1411
g74
(dp1412
sg83
g1397
sg76
(lp1413
g69
(g70
g71
NtRp1414
(dp1415
g74
(dp1416
g82
I4
ssg83
g1410
sg76
(lp1417
S'Master-Fish'
p1418
asbasbasbag69
(g85
g71
NtRp1419
(dp1420
g74
(dp1421
sg83
g846
sg76
(lp1422
g69
(g90
g71
NtRp1423
(dp1424
g74
(dp1425
g94
g95
ssg83
g1419
sg76
(lp1426
S'server_port'
p1427
asbag69
(g90
g71
NtRp1428
(dp1429
g74
(dp1430
g101
g102
ssg83
g1419
sg76
(lp1431
S':'
asbag69
(g90
g71
NtRp1432
(dp1433
g74
(dp1434
sg83
g1419
sg76
(lp1435
g69
(g70
g71
NtRp1436
(dp1437
g74
(dp1438
g82
I4
ssg83
g1432
sg76
(lp1439
S'8000'
p1440
asbasbasbag69
(g85
g71
NtRp1441
(dp1442
g74
(dp1443
sg83
g846
sg76
(lp1444
g69
(g90
g71
NtRp1445
(dp1446
g74
(dp1447
g94
g95
ssg83
g1441
sg76
(lp1448
S'server_protocol'
p1449
asbag69
(g90
g71
NtRp1450
(dp1451
g74
(dp1452
g101
g102
ssg83
g1441
sg76
(lp1453
S':'
asbag69
(g90
g71
NtRp1454
(dp1455
g74
(dp1456
sg83
g1441
sg76
(lp1457
g69
(g70
g71
NtRp1458
(dp1459
g74
(dp1460
g82
I4
ssg83
g1454
sg76
(lp1461
S'HTTP/1.1'
p1462
asbasbasbag69
(g85
g71
NtRp1463
(dp1464
g74
(dp1465
sg83
g846
sg76
(lp1466
g69
(g90
g71
NtRp1467
(dp1468
g74
(dp1469
g94
g95
ssg83
g1463
sg76
(lp1470
S'server_software'
p1471
asbag69
(g90
g71
NtRp1472
(dp1473
g74
(dp1474
g101
g102
ssg83
g1463
sg76
(lp1475
S':'
asbag69
(g90
g71
NtRp1476
(dp1477
g74
(dp1478
sg83
g1463
sg76
(lp1479
g69
(g70
g71
NtRp1480
(dp1481
g74
(dp1482
g82
I4
ssg83
g1476
sg76
(lp1483
S'Rocket 1.2.4'
p1484
asbasbasbag69
(g85
g71
NtRp1485
(dp1486
g74
(dp1487
sg83
g846
sg76
(lp1488
g69
(g90
g71
NtRp1489
(dp1490
g74
(dp1491
g94
g95
ssg83
g1485
sg76
(lp1492
S'web2py_crontype'
p1493
asbag69
(g90
g71
NtRp1494
(dp1495
g74
(dp1496
g101
g102
ssg83
g1485
sg76
(lp1497
S':'
asbag69
(g90
g71
NtRp1498
(dp1499
g74
(dp1500
sg83
g1485
sg76
(lp1501
g69
(g70
g71
NtRp1502
(dp1503
g74
(dp1504
g82
I4
ssg83
g1498
sg76
(lp1505
S'hard'
p1506
asbasbasbag69
(g85
g71
NtRp1507
(dp1508
g74
(dp1509
sg83
g846
sg76
(lp1510
g69
(g90
g71
NtRp1511
(dp1512
g74
(dp1513
g94
g95
ssg83
g1507
sg76
(lp1514
S'web2py_path'
p1515
asbag69
(g90
g71
NtRp1516
(dp1517
g74
(dp1518
g101
g102
ssg83
g1507
sg76
(lp1519
S':'
asbag69
(g90
g71
NtRp1520
(dp1521
g74
(dp1522
sg83
g1507
sg76
(lp1523
g69
(g70
g71
NtRp1524
(dp1525
g74
(dp1526
g82
I4
ssg83
g1520
sg76
(lp1527
g893
asbasbasbag69
(g85
g71
NtRp1528
(dp1529
g74
(dp1530
sg83
g846
sg76
(lp1531
g69
(g90
g71
NtRp1532
(dp1533
g74
(dp1534
g94
g95
ssg83
g1528
sg76
(lp1535
S'web2py_version'
p1536
asbag69
(g90
g71
NtRp1537
(dp1538
g74
(dp1539
g101
g102
ssg83
g1528
sg76
(lp1540
S':'
asbag69
(g90
g71
NtRp1541
(dp1542
g74
(dp1543
sg83
g1528
sg76
(lp1544
g69
(g70
g71
NtRp1545
(dp1546
g74
(dp1547
g82
I4
ssg83
g1541
sg76
(lp1548
g69
(g78
g71
NtRp1549
(dp1550
g74
(dp1551
g82
I3
ssg83
Nsg76
(lp1552
g69
(g85
g71
NtRp1553
(dp1554
g74
(dp1555
sg83
g1549
sg76
(lp1556
g69
(g90
g71
NtRp1557
(dp1558
g74
(dp1559
sg83
g1553
sg76
(lp1560
g69
(g70
g71
NtRp1561
(dp1562
g74
(dp1563
g82
I3
ssg83
g1557
sg76
(lp1564
S'1'
asbasbasbag69
(g85
g71
NtRp1565
(dp1566
g74
(dp1567
sg83
g1549
sg76
(lp1568
g69
(g90
g71
NtRp1569
(dp1570
g74
(dp1571
sg83
g1565
sg76
(lp1572
g69
(g70
g71
NtRp1573
(dp1574
g74
(dp1575
g82
I3
ssg83
g1569
sg76
(lp1576
S'99'
p1577
asbasbasbag69
(g85
g71
NtRp1578
(dp1579
g74
(dp1580
sg83
g1549
sg76
(lp1581
g69
(g90
g71
NtRp1582
(dp1583
g74
(dp1584
sg83
g1578
sg76
(lp1585
g69
(g70
g71
NtRp1586
(dp1587
g74
(dp1588
g82
I3
ssg83
g1582
sg76
(lp1589
S'7'
asbasbasbag69
(g85
g71
NtRp1590
(dp1591
g74
(dp1592
sg83
g1549
sg76
(lp1593
g69
(g90
g71
NtRp1594
(dp1595
g74
(dp1596
sg83
g1590
sg76
(lp1597
g69
(g70
g71
NtRp1598
(dp1599
g74
(dp1600
g82
I3
ssg83
g1594
sg76
(lp1601
S'datetime.datetime(2012, 3, 4, 22, 12, 8)'
p1602
asbasbasbag69
(g85
g71
NtRp1603
(dp1604
g74
(dp1605
sg83
g1549
sg76
(lp1606
g69
(g90
g71
NtRp1607
(dp1608
g74
(dp1609
sg83
g1603
sg76
(lp1610
g69
(g70
g71
NtRp1611
(dp1612
g74
(dp1613
g82
I3
ssg83
g1607
sg76
(lp1614
S'stable'
p1615
asbasbasbasbasbasbasbag69
(g85
g71
NtRp1616
(dp1617
g74
(dp1618
sg83
g846
sg76
(lp1619
g69
(g90
g71
NtRp1620
(dp1621
g74
(dp1622
g94
g95
ssg83
g1616
sg76
(lp1623
S'wsgi_errors'
p1624
asbag69
(g90
g71
NtRp1625
(dp1626
g74
(dp1627
g101
g102
ssg83
g1616
sg76
(lp1628
S':'
asbag69
(g90
g71
NtRp1629
(dp1630
g74
(dp1631
sg83
g1616
sg76
(lp1632
g69
(g70
g71
NtRp1633
(dp1634
g74
(dp1635
g82
I4
ssg83
g1629
sg76
(lp1636
S"<open file '<stderr>', mode 'w' at 0x7fa6e5aa8270>"
p1637
asbasbasbag69
(g85
g71
NtRp1638
(dp1639
g74
(dp1640
sg83
g846
sg76
(lp1641
g69
(g90
g71
NtRp1642
(dp1643
g74
(dp1644
g94
g95
ssg83
g1638
sg76
(lp1645
S'wsgi_file_wrapper'
p1646
asbag69
(g90
g71
NtRp1647
(dp1648
g74
(dp1649
g101
g102
ssg83
g1638
sg76
(lp1650
S':'
asbag69
(g90
g71
NtRp1651
(dp1652
g74
(dp1653
sg83
g1638
sg76
(lp1654
g69
(g70
g71
NtRp1655
(dp1656
g74
(dp1657
g82
I4
ssg83
g1651
sg76
(lp1658
S'<class wsgiref.util.FileWrapper at 0x25e9808>'
p1659
asbasbasbag69
(g85
g71
NtRp1660
(dp1661
g74
(dp1662
sg83
g846
sg76
(lp1663
g69
(g90
g71
NtRp1664
(dp1665
g74
(dp1666
g94
g95
ssg83
g1660
sg76
(lp1667
S'wsgi_input'
p1668
asbag69
(g90
g71
NtRp1669
(dp1670
g74
(dp1671
g101
g102
ssg83
g1660
sg76
(lp1672
S':'
asbag69
(g90
g71
NtRp1673
(dp1674
g74
(dp1675
sg83
g1660
sg76
(lp1676
g69
(g70
g71
NtRp1677
(dp1678
g74
(dp1679
g82
I4
ssg83
g1673
sg76
(lp1680
S'<socket._fileobject object at 0x3140d50>'
p1681
asbasbasbag69
(g85
g71
NtRp1682
(dp1683
g74
(dp1684
sg83
g846
sg76
(lp1685
g69
(g90
g71
NtRp1686
(dp1687
g74
(dp1688
g94
g95
ssg83
g1682
sg76
(lp1689
S'wsgi_multiprocess'
p1690
asbag69
(g90
g71
NtRp1691
(dp1692
g74
(dp1693
g101
g102
ssg83
g1682
sg76
(lp1694
S':'
asbag69
(g90
g71
NtRp1695
(dp1696
g74
(dp1697
sg83
g1682
sg76
(lp1698
g69
(g70
g71
NtRp1699
(dp1700
g74
(dp1701
g82
I4
ssg83
g1695
sg76
(lp1702
g112
asbasbasbag69
(g85
g71
NtRp1703
(dp1704
g74
(dp1705
sg83
g846
sg76
(lp1706
g69
(g90
g71
NtRp1707
(dp1708
g74
(dp1709
g94
g95
ssg83
g1703
sg76
(lp1710
S'wsgi_multithread'
p1711
asbag69
(g90
g71
NtRp1712
(dp1713
g74
(dp1714
g101
g102
ssg83
g1703
sg76
(lp1715
S':'
asbag69
(g90
g71
NtRp1716
(dp1717
g74
(dp1718
sg83
g1703
sg76
(lp1719
g69
(g70
g71
NtRp1720
(dp1721
g74
(dp1722
g82
I4
ssg83
g1716
sg76
(lp1723
S'True'
p1724
asbasbasbag69
(g85
g71
NtRp1725
(dp1726
g74
(dp1727
sg83
g846
sg76
(lp1728
g69
(g90
g71
NtRp1729
(dp1730
g74
(dp1731
g94
g95
ssg83
g1725
sg76
(lp1732
S'wsgi_run_once'
p1733
asbag69
(g90
g71
NtRp1734
(dp1735
g74
(dp1736
g101
g102
ssg83
g1725
sg76
(lp1737
S':'
asbag69
(g90
g71
NtRp1738
(dp1739
g74
(dp1740
sg83
g1725
sg76
(lp1741
g69
(g70
g71
NtRp1742
(dp1743
g74
(dp1744
g82
I4
ssg83
g1738
sg76
(lp1745
g112
asbasbasbag69
(g85
g71
NtRp1746
(dp1747
g74
(dp1748
sg83
g846
sg76
(lp1749
g69
(g90
g71
NtRp1750
(dp1751
g74
(dp1752
g94
g95
ssg83
g1746
sg76
(lp1753
S'wsgi_url_scheme'
p1754
asbag69
(g90
g71
NtRp1755
(dp1756
g74
(dp1757
g101
g102
ssg83
g1746
sg76
(lp1758
S':'
asbag69
(g90
g71
NtRp1759
(dp1760
g74
(dp1761
sg83
g1746
sg76
(lp1762
g69
(g70
g71
NtRp1763
(dp1764
g74
(dp1765
g82
I4
ssg83
g1759
sg76
(lp1766
S'http'
p1767
asbasbasbag69
(g85
g71
NtRp1768
(dp1769
g74
(dp1770
sg83
g846
sg76
(lp1771
g69
(g90
g71
NtRp1772
(dp1773
g74
(dp1774
g94
g95
ssg83
g1768
sg76
(lp1775
S'wsgi_version'
p1776
asbag69
(g90
g71
NtRp1777
(dp1778
g74
(dp1779
g101
g102
ssg83
g1768
sg76
(lp1780
S':'
asbag69
(g90
g71
NtRp1781
(dp1782
g74
(dp1783
sg83
g1768
sg76
(lp1784
g69
(g70
g71
NtRp1785
(dp1786
g74
(dp1787
g82
I4
ssg83
g1781
sg76
(lp1788
g69
(g78
g71
NtRp1789
(dp1790
g74
(dp1791
g82
I3
ssg83
Nsg76
(lp1792
g69
(g85
g71
NtRp1793
(dp1794
g74
(dp1795
sg83
g1789
sg76
(lp1796
g69
(g90
g71
NtRp1797
(dp1798
g74
(dp1799
sg83
g1793
sg76
(lp1800
g69
(g70
g71
NtRp1801
(dp1802
g74
(dp1803
g82
I3
ssg83
g1797
sg76
(lp1804
S'1'
asbasbasbag69
(g85
g71
NtRp1805
(dp1806
g74
(dp1807
sg83
g1789
sg76
(lp1808
g69
(g90
g71
NtRp1809
(dp1810
g74
(dp1811
sg83
g1805
sg76
(lp1812
g69
(g70
g71
NtRp1813
(dp1814
g74
(dp1815
g82
I3
ssg83
g1809
sg76
(lp1816
S'0'
asbasbasbasbasbasbasbasbasbasbasbag69
(g85
g71
NtRp1817
(dp1818
g74
(dp1819
sg83
g79
sg76
(lp1820
g69
(g90
g71
NtRp1821
(dp1822
g74
(dp1823
g94
g95
ssg83
g1817
sg76
(lp1824
S'extension'
p1825
asbag69
(g90
g71
NtRp1826
(dp1827
g74
(dp1828
g101
g102
ssg83
g1817
sg76
(lp1829
S':'
asbag69
(g90
g71
NtRp1830
(dp1831
g74
(dp1832
sg83
g1817
sg76
(lp1833
g69
(g70
g71
NtRp1834
(dp1835
g74
(dp1836
g82
I5
ssg83
g1830
sg76
(lp1837
S'html'
p1838
asbasbasbag69
(g85
g71
NtRp1839
(dp1840
g74
(dp1841
sg83
g79
sg76
(lp1842
g69
(g90
g71
NtRp1843
(dp1844
g74
(dp1845
g94
g95
ssg83
g1839
sg76
(lp1846
S'folder'
p1847
asbag69
(g90
g71
NtRp1848
(dp1849
g74
(dp1850
g101
g102
ssg83
g1839
sg76
(lp1851
S':'
asbag69
(g90
g71
NtRp1852
(dp1853
g74
(dp1854
sg83
g1839
sg76
(lp1855
g69
(g70
g71
NtRp1856
(dp1857
g74
(dp1858
g82
I5
ssg83
g1852
sg76
(lp1859
S'/home/fish/Desktop/web2py/applications/vsalad/'
p1860
asbasbasbag69
(g85
g71
NtRp1861
(dp1862
g74
(dp1863
sg83
g79
sg76
(lp1864
g69
(g90
g71
NtRp1865
(dp1866
g74
(dp1867
g94
g95
ssg83
g1861
sg76
(lp1868
S'function'
p1869
asbag69
(g90
g71
NtRp1870
(dp1871
g74
(dp1872
g101
g102
ssg83
g1861
sg76
(lp1873
S':'
asbag69
(g90
g71
NtRp1874
(dp1875
g74
(dp1876
sg83
g1861
sg76
(lp1877
g69
(g70
g71
NtRp1878
(dp1879
g74
(dp1880
g82
I5
ssg83
g1874
sg76
(lp1881
S'comments'
p1882
asbasbasbag69
(g85
g71
NtRp1883
(dp1884
g74
(dp1885
sg83
g79
sg76
(lp1886
g69
(g90
g71
NtRp1887
(dp1888
g74
(dp1889
g94
g95
ssg83
g1883
sg76
(lp1890
S'get_vars'
p1891
asbag69
(g90
g71
NtRp1892
(dp1893
g74
(dp1894
g101
g102
ssg83
g1883
sg76
(lp1895
S':'
asbag69
(g90
g71
NtRp1896
(dp1897
g74
(dp1898
sg83
g1883
sg76
(lp1899
g69
(g70
g71
NtRp1900
(dp1901
g74
(dp1902
g82
I5
ssg83
g1896
sg76
(lp1903
g69
(g78
g71
NtRp1904
(dp1905
g74
(dp1906
g82
I4
ssg83
Nsg76
(lp1907
sbasbasbasbag69
(g85
g71
NtRp1908
(dp1909
g74
(dp1910
sg83
g79
sg76
(lp1911
g69
(g90
g71
NtRp1912
(dp1913
g74
(dp1914
g94
g95
ssg83
g1908
sg76
(lp1915
S'global_settings'
p1916
asbag69
(g90
g71
NtRp1917
(dp1918
g74
(dp1919
g101
g102
ssg83
g1908
sg76
(lp1920
S':'
asbag69
(g90
g71
NtRp1921
(dp1922
g74
(dp1923
sg83
g1908
sg76
(lp1924
g69
(g70
g71
NtRp1925
(dp1926
g74
(dp1927
g82
I5
ssg83
g1921
sg76
(lp1928
g69
(g78
g71
NtRp1929
(dp1930
g74
(dp1931
g82
I4
ssg83
Nsg76
(lp1932
g69
(g85
g71
NtRp1933
(dp1934
g74
(dp1935
sg83
g1929
sg76
(lp1936
g69
(g90
g71
NtRp1937
(dp1938
g74
(dp1939
g94
g95
ssg83
g1933
sg76
(lp1940
g858
asbag69
(g90
g71
NtRp1941
(dp1942
g74
(dp1943
g101
g102
ssg83
g1933
sg76
(lp1944
S':'
asbag69
(g90
g71
NtRp1945
(dp1946
g74
(dp1947
sg83
g1933
sg76
(lp1948
g69
(g70
g71
NtRp1949
(dp1950
g74
(dp1951
g82
I4
ssg83
g1945
sg76
(lp1952
S"set(['/home/fish/Desktop/web2py/applications/admin/', '/home/fish/Desktop/web2py/applications/welcome/', '/home/fish/Desktop/web2py/applications/vsalad/'])"
p1953
asbasbasbag69
(g85
g71
NtRp1954
(dp1955
g74
(dp1956
sg83
g1929
sg76
(lp1957
g69
(g90
g71
NtRp1958
(dp1959
g74
(dp1960
g94
g95
ssg83
g1954
sg76
(lp1961
g880
asbag69
(g90
g71
NtRp1962
(dp1963
g74
(dp1964
g101
g102
ssg83
g1954
sg76
(lp1965
S':'
asbag69
(g90
g71
NtRp1966
(dp1967
g74
(dp1968
sg83
g1954
sg76
(lp1969
g69
(g70
g71
NtRp1970
(dp1971
g74
(dp1972
g82
I4
ssg83
g1966
sg76
(lp1973
g893
asbasbasbag69
(g85
g71
NtRp1974
(dp1975
g74
(dp1976
sg83
g1929
sg76
(lp1977
g69
(g90
g71
NtRp1978
(dp1979
g74
(dp1980
g94
g95
ssg83
g1974
sg76
(lp1981
g902
asbag69
(g90
g71
NtRp1982
(dp1983
g74
(dp1984
g101
g102
ssg83
g1974
sg76
(lp1985
S':'
asbag69
(g90
g71
NtRp1986
(dp1987
g74
(dp1988
sg83
g1974
sg76
(lp1989
g69
(g70
g71
NtRp1990
(dp1991
g74
(dp1992
g82
I4
ssg83
g1986
sg76
(lp1993
g69
(g78
g71
NtRp1994
(dp1995
g74
(dp1996
g82
I3
ssg83
Nsg76
(lp1997
sbasbasbasbag69
(g85
g71
NtRp1998
(dp1999
g74
(dp2000
sg83
g1929
sg76
(lp2001
g69
(g90
g71
NtRp2002
(dp2003
g74
(dp2004
g94
g95
ssg83
g1998
sg76
(lp2005
g927
asbag69
(g90
g71
NtRp2006
(dp2007
g74
(dp2008
g101
g102
ssg83
g1998
sg76
(lp2009
S':'
asbag69
(g90
g71
NtRp2010
(dp2011
g74
(dp2012
sg83
g1998
sg76
(lp2013
g69
(g70
g71
NtRp2014
(dp2015
g74
(dp2016
g82
I4
ssg83
g2010
sg76
(lp2017
S"<Values at 0x270a518: {'verbose': False, 'ip': '127.0.0.1', 'shutdown_timeout': 5, 'taskbar': False, 'nocron': False, 'pid_filename': 'httpserver.pid', 'maxthreads': None, 'softcron': False, 'server_name': 'Master-Fish', 'bpython': False, 'nogui': False, 'port': 8000, 'extcron': False, 'debuglevel': 30, 'test': None, 'folder': '/home/fish/Desktop/web2py', 'config': '', 'import_models': False, 'winservice': '', 'shell': None, 'run': '', 'log_filename': 'httpserver.log', 'args': [''], 'socket_timeout': 5, 'ssl_ca_certificate': None, 'scheduler': None, 'profiler_filename': None, 'ssl_private_key': '', 'password': '<ask>', 'request_queue_size': 5, 'ssl_certificate': '', 'cronjob': False, 'numthreads': None, 'quiet': False, 'interfaces': None, 'minthreads': None, 'timeout': 10, 'plain': False, 'nobanner': False}>"
p2018
asbasbasbag69
(g85
g71
NtRp2019
(dp2020
g74
(dp2021
sg83
g1929
sg76
(lp2022
g69
(g90
g71
NtRp2023
(dp2024
g74
(dp2025
g94
g95
ssg83
g2019
sg76
(lp2026
g949
asbag69
(g90
g71
NtRp2027
(dp2028
g74
(dp2029
g101
g102
ssg83
g2019
sg76
(lp2030
S':'
asbag69
(g90
g71
NtRp2031
(dp2032
g74
(dp2033
sg83
g2019
sg76
(lp2034
g69
(g70
g71
NtRp2035
(dp2036
g74
(dp2037
g82
I4
ssg83
g2031
sg76
(lp2038
S'set([])'
p2039
asbasbasbag69
(g85
g71
NtRp2040
(dp2041
g74
(dp2042
sg83
g1929
sg76
(lp2043
g69
(g90
g71
NtRp2044
(dp2045
g74
(dp2046
g94
g95
ssg83
g2040
sg76
(lp2047
g971
asbag69
(g90
g71
NtRp2048
(dp2049
g74
(dp2050
g101
g102
ssg83
g2040
sg76
(lp2051
S':'
asbag69
(g90
g71
NtRp2052
(dp2053
g74
(dp2054
sg83
g2040
sg76
(lp2055
g69
(g70
g71
NtRp2056
(dp2057
g74
(dp2058
g82
I4
ssg83
g2052
sg76
(lp2059
g112
asbasbasbag69
(g85
g71
NtRp2060
(dp2061
g74
(dp2062
sg83
g1929
sg76
(lp2063
g69
(g90
g71
NtRp2064
(dp2065
g74
(dp2066
g94
g95
ssg83
g2060
sg76
(lp2067
g992
asbag69
(g90
g71
NtRp2068
(dp2069
g74
(dp2070
g101
g102
ssg83
g2060
sg76
(lp2071
S':'
asbag69
(g90
g71
NtRp2072
(dp2073
g74
(dp2074
sg83
g2060
sg76
(lp2075
g69
(g70
g71
NtRp2076
(dp2077
g74
(dp2078
g82
I4
ssg83
g2072
sg76
(lp2079
g1005
asbasbasbag69
(g85
g71
NtRp2080
(dp2081
g74
(dp2082
sg83
g1929
sg76
(lp2083
g69
(g90
g71
NtRp2084
(dp2085
g74
(dp2086
g94
g95
ssg83
g2080
sg76
(lp2087
g1234
asbag69
(g90
g71
NtRp2088
(dp2089
g74
(dp2090
g101
g102
ssg83
g2080
sg76
(lp2091
S':'
asbag69
(g90
g71
NtRp2092
(dp2093
g74
(dp2094
sg83
g2080
sg76
(lp2095
g69
(g70
g71
NtRp2096
(dp2097
g74
(dp2098
g82
I4
ssg83
g2092
sg76
(lp2099
g112
asbasbasbag69
(g85
g71
NtRp2100
(dp2101
g74
(dp2102
sg83
g1929
sg76
(lp2103
g69
(g90
g71
NtRp2104
(dp2105
g74
(dp2106
g94
g95
ssg83
g2100
sg76
(lp2107
g1255
asbag69
(g90
g71
NtRp2108
(dp2109
g74
(dp2110
g101
g102
ssg83
g2100
sg76
(lp2111
S':'
asbag69
(g90
g71
NtRp2112
(dp2113
g74
(dp2114
sg83
g2100
sg76
(lp2115
g69
(g70
g71
NtRp2116
(dp2117
g74
(dp2118
g82
I4
ssg83
g2112
sg76
(lp2119
g112
asbasbasbag69
(g85
g71
NtRp2120
(dp2121
g74
(dp2122
sg83
g1929
sg76
(lp2123
g69
(g90
g71
NtRp2124
(dp2125
g74
(dp2126
g94
g95
ssg83
g2120
sg76
(lp2127
g1493
asbag69
(g90
g71
NtRp2128
(dp2129
g74
(dp2130
g101
g102
ssg83
g2120
sg76
(lp2131
S':'
asbag69
(g90
g71
NtRp2132
(dp2133
g74
(dp2134
sg83
g2120
sg76
(lp2135
g69
(g70
g71
NtRp2136
(dp2137
g74
(dp2138
g82
I4
ssg83
g2132
sg76
(lp2139
g1506
asbasbasbag69
(g85
g71
NtRp2140
(dp2141
g74
(dp2142
sg83
g1929
sg76
(lp2143
g69
(g90
g71
NtRp2144
(dp2145
g74
(dp2146
g94
g95
ssg83
g2140
sg76
(lp2147
g1536
asbag69
(g90
g71
NtRp2148
(dp2149
g74
(dp2150
g101
g102
ssg83
g2140
sg76
(lp2151
S':'
asbag69
(g90
g71
NtRp2152
(dp2153
g74
(dp2154
sg83
g2140
sg76
(lp2155
g69
(g70
g71
NtRp2156
(dp2157
g74
(dp2158
g82
I4
ssg83
g2152
sg76
(lp2159
g69
(g78
g71
NtRp2160
(dp2161
g74
(dp2162
g82
I3
ssg83
Nsg76
(lp2163
g69
(g85
g71
NtRp2164
(dp2165
g74
(dp2166
sg83
g2160
sg76
(lp2167
g69
(g90
g71
NtRp2168
(dp2169
g74
(dp2170
sg83
g2164
sg76
(lp2171
g69
(g70
g71
NtRp2172
(dp2173
g74
(dp2174
g82
I3
ssg83
g2168
sg76
(lp2175
S'1'
asbasbasbag69
(g85
g71
NtRp2176
(dp2177
g74
(dp2178
sg83
g2160
sg76
(lp2179
g69
(g90
g71
NtRp2180
(dp2181
g74
(dp2182
sg83
g2176
sg76
(lp2183
g69
(g70
g71
NtRp2184
(dp2185
g74
(dp2186
g82
I3
ssg83
g2180
sg76
(lp2187
S'99'
p2188
asbasbasbag69
(g85
g71
NtRp2189
(dp2190
g74
(dp2191
sg83
g2160
sg76
(lp2192
g69
(g90
g71
NtRp2193
(dp2194
g74
(dp2195
sg83
g2189
sg76
(lp2196
g69
(g70
g71
NtRp2197
(dp2198
g74
(dp2199
g82
I3
ssg83
g2193
sg76
(lp2200
S'7'
asbasbasbag69
(g85
g71
NtRp2201
(dp2202
g74
(dp2203
sg83
g2160
sg76
(lp2204
g69
(g90
g71
NtRp2205
(dp2206
g74
(dp2207
sg83
g2201
sg76
(lp2208
g69
(g70
g71
NtRp2209
(dp2210
g74
(dp2211
g82
I3
ssg83
g2205
sg76
(lp2212
S'datetime.datetime(2012, 3, 4, 22, 12, 8)'
p2213
asbasbasbag69
(g85
g71
NtRp2214
(dp2215
g74
(dp2216
sg83
g2160
sg76
(lp2217
g69
(g90
g71
NtRp2218
(dp2219
g74
(dp2220
sg83
g2214
sg76
(lp2221
g69
(g70
g71
NtRp2222
(dp2223
g74
(dp2224
g82
I3
ssg83
g2218
sg76
(lp2225
g1615
asbasbasbasbasbasbasbasbasbasbasbag69
(g85
g71
NtRp2226
(dp2227
g74
(dp2228
sg83
g79
sg76
(lp2229
g69
(g90
g71
NtRp2230
(dp2231
g74
(dp2232
g94
g95
ssg83
g2226
sg76
(lp2233
S'is_https'
p2234
asbag69
(g90
g71
NtRp2235
(dp2236
g74
(dp2237
g101
g102
ssg83
g2226
sg76
(lp2238
S':'
asbag69
(g90
g71
NtRp2239
(dp2240
g74
(dp2241
sg83
g2226
sg76
(lp2242
g69
(g70
g71
NtRp2243
(dp2244
g74
(dp2245
g82
I5
ssg83
g2239
sg76
(lp2246
g112
asbasbasbag69
(g85
g71
NtRp2247
(dp2248
g74
(dp2249
sg83
g79
sg76
(lp2250
g69
(g90
g71
NtRp2251
(dp2252
g74
(dp2253
g94
g95
ssg83
g2247
sg76
(lp2254
S'is_local'
p2255
asbag69
(g90
g71
NtRp2256
(dp2257
g74
(dp2258
g101
g102
ssg83
g2247
sg76
(lp2259
S':'
asbag69
(g90
g71
NtRp2260
(dp2261
g74
(dp2262
sg83
g2247
sg76
(lp2263
g69
(g70
g71
NtRp2264
(dp2265
g74
(dp2266
g82
I5
ssg83
g2260
sg76
(lp2267
g1724
asbasbasbag69
(g85
g71
NtRp2268
(dp2269
g74
(dp2270
sg83
g79
sg76
(lp2271
g69
(g90
g71
NtRp2272
(dp2273
g74
(dp2274
g94
g95
ssg83
g2268
sg76
(lp2275
S'is_restful'
p2276
asbag69
(g90
g71
NtRp2277
(dp2278
g74
(dp2279
g101
g102
ssg83
g2268
sg76
(lp2280
S':'
asbag69
(g90
g71
NtRp2281
(dp2282
g74
(dp2283
sg83
g2268
sg76
(lp2284
g69
(g70
g71
NtRp2285
(dp2286
g74
(dp2287
g82
I5
ssg83
g2281
sg76
(lp2288
g112
asbasbasbag69
(g85
g71
NtRp2289
(dp2290
g74
(dp2291
sg83
g79
sg76
(lp2292
g69
(g90
g71
NtRp2293
(dp2294
g74
(dp2295
g94
g95
ssg83
g2289
sg76
(lp2296
S'now'
p2297
asbag69
(g90
g71
NtRp2298
(dp2299
g74
(dp2300
g101
g102
ssg83
g2289
sg76
(lp2301
S':'
asbag69
(g90
g71
NtRp2302
(dp2303
g74
(dp2304
sg83
g2289
sg76
(lp2305
g69
(g70
g71
NtRp2306
(dp2307
g74
(dp2308
g82
I5
ssg83
g2302
sg76
(lp2309
S'datetime.datetime(2012, 4, 20, 21, 40, 14, 124956)'
p2310
asbasbasbag69
(g85
g71
NtRp2311
(dp2312
g74
(dp2313
sg83
g79
sg76
(lp2314
g69
(g90
g71
NtRp2315
(dp2316
g74
(dp2317
g94
g95
ssg83
g2311
sg76
(lp2318
S'post_vars'
p2319
asbag69
(g90
g71
NtRp2320
(dp2321
g74
(dp2322
g101
g102
ssg83
g2311
sg76
(lp2323
S':'
asbag69
(g90
g71
NtRp2324
(dp2325
g74
(dp2326
sg83
g2311
sg76
(lp2327
g69
(g70
g71
NtRp2328
(dp2329
g74
(dp2330
g82
I5
ssg83
g2324
sg76
(lp2331
g69
(g78
g71
NtRp2332
(dp2333
g74
(dp2334
g82
I4
ssg83
Nsg76
(lp2335
sbasbasbasbag69
(g85
g71
NtRp2336
(dp2337
g74
(dp2338
sg83
g79
sg76
(lp2339
g69
(g90
g71
NtRp2340
(dp2341
g74
(dp2342
g94
g95
ssg83
g2336
sg76
(lp2343
S'raw_args'
p2344
asbag69
(g90
g71
NtRp2345
(dp2346
g74
(dp2347
g101
g102
ssg83
g2336
sg76
(lp2348
S':'
asbag69
(g90
g71
NtRp2349
(dp2350
g74
(dp2351
sg83
g2336
sg76
(lp2352
g69
(g70
g71
NtRp2353
(dp2354
g74
(dp2355
g82
I5
ssg83
g2349
sg76
(lp2356
S'4'
asbasbasbag69
(g85
g71
NtRp2357
(dp2358
g74
(dp2359
sg83
g79
sg76
(lp2360
g69
(g90
g71
NtRp2361
(dp2362
g74
(dp2363
g94
g95
ssg83
g2357
sg76
(lp2364
S'url'
p2365
asbag69
(g90
g71
NtRp2366
(dp2367
g74
(dp2368
g101
g102
ssg83
g2357
sg76
(lp2369
S':'
asbag69
(g90
g71
NtRp2370
(dp2371
g74
(dp2372
sg83
g2357
sg76
(lp2373
g69
(g70
g71
NtRp2374
(dp2375
g74
(dp2376
g82
I5
ssg83
g2370
sg76
(lp2377
S'/vsalad/action/comments/4'
p2378
asbasbasbag69
(g85
g71
NtRp2379
(dp2380
g74
(dp2381
sg83
g79
sg76
(lp2382
g69
(g90
g71
NtRp2383
(dp2384
g74
(dp2385
g94
g95
ssg83
g2379
sg76
(lp2386
S'utcnow'
p2387
asbag69
(g90
g71
NtRp2388
(dp2389
g74
(dp2390
g101
g102
ssg83
g2379
sg76
(lp2391
S':'
asbag69
(g90
g71
NtRp2392
(dp2393
g74
(dp2394
sg83
g2379
sg76
(lp2395
g69
(g70
g71
NtRp2396
(dp2397
g74
(dp2398
g82
I5
ssg83
g2392
sg76
(lp2399
S'datetime.datetime(2012, 4, 20, 17, 40, 14, 124985)'
p2400
asbasbasbag69
(g85
g71
NtRp2401
(dp2402
g74
(dp2403
sg83
g79
sg76
(lp2404
g69
(g90
g71
NtRp2405
(dp2406
g74
(dp2407
g94
g95
ssg83
g2401
sg76
(lp2408
S'uuid'
p2409
asbag69
(g90
g71
NtRp2410
(dp2411
g74
(dp2412
g101
g102
ssg83
g2401
sg76
(lp2413
S':'
asbag69
(g90
g71
NtRp2414
(dp2415
g74
(dp2416
sg83
g2401
sg76
(lp2417
g69
(g70
g71
NtRp2418
(dp2419
g74
(dp2420
g82
I5
ssg83
g2414
sg76
(lp2421
S'vsalad/127.0.0.1.2012-04-20.21-40-14.a6715fba-1590-483d-a46c-ef899ca4e366'
p2422
asbasbasbag69
(g85
g71
NtRp2423
(dp2424
g74
(dp2425
sg83
g79
sg76
(lp2426
g69
(g90
g71
NtRp2427
(dp2428
g74
(dp2429
g94
g95
ssg83
g2423
sg76
(lp2430
S'vars'
p2431
asbag69
(g90
g71
NtRp2432
(dp2433
g74
(dp2434
g101
g102
ssg83
g2423
sg76
(lp2435
S':'
asbag69
(g90
g71
NtRp2436
(dp2437
g74
(dp2438
sg83
g2423
sg76
(lp2439
g69
(g70
g71
NtRp2440
(dp2441
g74
(dp2442
g82
I5
ssg83
g2436
sg76
(lp2443
g69
(g78
g71
NtRp2444
(dp2445
g74
(dp2446
g82
I4
ssg83
Nsg76
(lp2447
sbasbasbasbag69
(g85
g71
NtRp2448
(dp2449
g74
(dp2450
sg83
g79
sg76
(lp2451
g69
(g90
g71
NtRp2452
(dp2453
g74
(dp2454
g94
g95
ssg83
g2448
sg76
(lp2455
S'wsgi'
p2456
asbag69
(g90
g71
NtRp2457
(dp2458
g74
(dp2459
g101
g102
ssg83
g2448
sg76
(lp2460
S':'
asbag69
(g90
g71
NtRp2461
(dp2462
g74
(dp2463
sg83
g2448
sg76
(lp2464
g69
(g70
g71
NtRp2465
(dp2466
g74
(dp2467
g82
I5
ssg83
g2461
sg76
(lp2468
g69
(g78
g71
NtRp2469
(dp2470
g74
(dp2471
g82
I4
ssg83
Nsg76
(lp2472
g69
(g85
g71
NtRp2473
(dp2474
g74
(dp2475
sg83
g2469
sg76
(lp2476
g69
(g90
g71
NtRp2477
(dp2478
g74
(dp2479
g94
g95
ssg83
g2473
sg76
(lp2480
S'environ'
p2481
asbag69
(g90
g71
NtRp2482
(dp2483
g74
(dp2484
g101
g102
ssg83
g2473
sg76
(lp2485
S':'
asbag69
(g90
g71
NtRp2486
(dp2487
g74
(dp2488
sg83
g2473
sg76
(lp2489
g69
(g70
g71
NtRp2490
(dp2491
g74
(dp2492
g82
I4
ssg83
g2486
sg76
(lp2493
g69
(g78
g71
NtRp2494
(dp2495
g74
(dp2496
g82
I3
ssg83
Nsg76
(lp2497
g69
(g85
g71
NtRp2498
(dp2499
g74
(dp2500
sg83
g2494
sg76
(lp2501
g69
(g90
g71
NtRp2502
(dp2503
g74
(dp2504
g94
g95
ssg83
g2498
sg76
(lp2505
S'HTTP_ACCEPT'
p2506
asbag69
(g90
g71
NtRp2507
(dp2508
g74
(dp2509
g101
g102
ssg83
g2498
sg76
(lp2510
S':'
asbag69
(g90
g71
NtRp2511
(dp2512
g74
(dp2513
sg83
g2498
sg76
(lp2514
g69
(g70
g71
NtRp2515
(dp2516
g74
(dp2517
g82
I3
ssg83
g2511
sg76
(lp2518
g1027
asbasbasbag69
(g85
g71
NtRp2519
(dp2520
g74
(dp2521
sg83
g2494
sg76
(lp2522
g69
(g90
g71
NtRp2523
(dp2524
g74
(dp2525
g94
g95
ssg83
g2519
sg76
(lp2526
S'HTTP_ACCEPT_CHARSET'
p2527
asbag69
(g90
g71
NtRp2528
(dp2529
g74
(dp2530
g101
g102
ssg83
g2519
sg76
(lp2531
S':'
asbag69
(g90
g71
NtRp2532
(dp2533
g74
(dp2534
sg83
g2519
sg76
(lp2535
g69
(g70
g71
NtRp2536
(dp2537
g74
(dp2538
g82
I3
ssg83
g2532
sg76
(lp2539
g1049
asbasbasbag69
(g85
g71
NtRp2540
(dp2541
g74
(dp2542
sg83
g2494
sg76
(lp2543
g69
(g90
g71
NtRp2544
(dp2545
g74
(dp2546
g94
g95
ssg83
g2540
sg76
(lp2547
S'HTTP_ACCEPT_ENCODING'
p2548
asbag69
(g90
g71
NtRp2549
(dp2550
g74
(dp2551
g101
g102
ssg83
g2540
sg76
(lp2552
S':'
asbag69
(g90
g71
NtRp2553
(dp2554
g74
(dp2555
sg83
g2540
sg76
(lp2556
g69
(g70
g71
NtRp2557
(dp2558
g74
(dp2559
g82
I3
ssg83
g2553
sg76
(lp2560
g1071
asbasbasbag69
(g85
g71
NtRp2561
(dp2562
g74
(dp2563
sg83
g2494
sg76
(lp2564
g69
(g90
g71
NtRp2565
(dp2566
g74
(dp2567
g94
g95
ssg83
g2561
sg76
(lp2568
S'HTTP_ACCEPT_LANGUAGE'
p2569
asbag69
(g90
g71
NtRp2570
(dp2571
g74
(dp2572
g101
g102
ssg83
g2561
sg76
(lp2573
S':'
asbag69
(g90
g71
NtRp2574
(dp2575
g74
(dp2576
sg83
g2561
sg76
(lp2577
g69
(g70
g71
NtRp2578
(dp2579
g74
(dp2580
g82
I3
ssg83
g2574
sg76
(lp2581
g1093
asbasbasbag69
(g85
g71
NtRp2582
(dp2583
g74
(dp2584
sg83
g2494
sg76
(lp2585
g69
(g90
g71
NtRp2586
(dp2587
g74
(dp2588
g94
g95
ssg83
g2582
sg76
(lp2589
S'HTTP_CACHE_CONTROL'
p2590
asbag69
(g90
g71
NtRp2591
(dp2592
g74
(dp2593
g101
g102
ssg83
g2582
sg76
(lp2594
S':'
asbag69
(g90
g71
NtRp2595
(dp2596
g74
(dp2597
sg83
g2582
sg76
(lp2598
g69
(g70
g71
NtRp2599
(dp2600
g74
(dp2601
g82
I3
ssg83
g2595
sg76
(lp2602
g1115
asbasbasbag69
(g85
g71
NtRp2603
(dp2604
g74
(dp2605
sg83
g2494
sg76
(lp2606
g69
(g90
g71
NtRp2607
(dp2608
g74
(dp2609
g94
g95
ssg83
g2603
sg76
(lp2610
S'HTTP_CONNECTION'
p2611
asbag69
(g90
g71
NtRp2612
(dp2613
g74
(dp2614
g101
g102
ssg83
g2603
sg76
(lp2615
S':'
asbag69
(g90
g71
NtRp2616
(dp2617
g74
(dp2618
sg83
g2603
sg76
(lp2619
g69
(g70
g71
NtRp2620
(dp2621
g74
(dp2622
g82
I3
ssg83
g2616
sg76
(lp2623
g1137
asbasbasbag69
(g85
g71
NtRp2624
(dp2625
g74
(dp2626
sg83
g2494
sg76
(lp2627
g69
(g90
g71
NtRp2628
(dp2629
g74
(dp2630
g94
g95
ssg83
g2624
sg76
(lp2631
S'HTTP_COOKIE'
p2632
asbag69
(g90
g71
NtRp2633
(dp2634
g74
(dp2635
g101
g102
ssg83
g2624
sg76
(lp2636
S':'
asbag69
(g90
g71
NtRp2637
(dp2638
g74
(dp2639
sg83
g2624
sg76
(lp2640
g69
(g70
g71
NtRp2641
(dp2642
g74
(dp2643
g82
I3
ssg83
g2637
sg76
(lp2644
g1159
asbasbasbag69
(g85
g71
NtRp2645
(dp2646
g74
(dp2647
sg83
g2494
sg76
(lp2648
g69
(g90
g71
NtRp2649
(dp2650
g74
(dp2651
g94
g95
ssg83
g2645
sg76
(lp2652
S'HTTP_HOST'
p2653
asbag69
(g90
g71
NtRp2654
(dp2655
g74
(dp2656
g101
g102
ssg83
g2645
sg76
(lp2657
S':'
asbag69
(g90
g71
NtRp2658
(dp2659
g74
(dp2660
sg83
g2645
sg76
(lp2661
g69
(g70
g71
NtRp2662
(dp2663
g74
(dp2664
g82
I3
ssg83
g2658
sg76
(lp2665
g1181
asbasbasbag69
(g85
g71
NtRp2666
(dp2667
g74
(dp2668
sg83
g2494
sg76
(lp2669
g69
(g90
g71
NtRp2670
(dp2671
g74
(dp2672
g94
g95
ssg83
g2666
sg76
(lp2673
S'HTTP_REFERER'
p2674
asbag69
(g90
g71
NtRp2675
(dp2676
g74
(dp2677
g101
g102
ssg83
g2666
sg76
(lp2678
S':'
asbag69
(g90
g71
NtRp2679
(dp2680
g74
(dp2681
sg83
g2666
sg76
(lp2682
g69
(g70
g71
NtRp2683
(dp2684
g74
(dp2685
g82
I3
ssg83
g2679
sg76
(lp2686
g1203
asbasbasbag69
(g85
g71
NtRp2687
(dp2688
g74
(dp2689
sg83
g2494
sg76
(lp2690
g69
(g90
g71
NtRp2691
(dp2692
g74
(dp2693
g94
g95
ssg83
g2687
sg76
(lp2694
S'HTTP_USER_AGENT'
p2695
asbag69
(g90
g71
NtRp2696
(dp2697
g74
(dp2698
g101
g102
ssg83
g2687
sg76
(lp2699
S':'
asbag69
(g90
g71
NtRp2700
(dp2701
g74
(dp2702
sg83
g2687
sg76
(lp2703
g69
(g70
g71
NtRp2704
(dp2705
g74
(dp2706
g82
I3
ssg83
g2700
sg76
(lp2707
g1225
asbasbasbag69
(g85
g71
NtRp2708
(dp2709
g74
(dp2710
sg83
g2494
sg76
(lp2711
g69
(g90
g71
NtRp2712
(dp2713
g74
(dp2714
g94
g95
ssg83
g2708
sg76
(lp2715
S'PATH_INFO'
p2716
asbag69
(g90
g71
NtRp2717
(dp2718
g74
(dp2719
g101
g102
ssg83
g2708
sg76
(lp2720
S':'
asbag69
(g90
g71
NtRp2721
(dp2722
g74
(dp2723
sg83
g2708
sg76
(lp2724
g69
(g70
g71
NtRp2725
(dp2726
g74
(dp2727
g82
I3
ssg83
g2721
sg76
(lp2728
g1289
asbasbasbag69
(g85
g71
NtRp2729
(dp2730
g74
(dp2731
sg83
g2494
sg76
(lp2732
g69
(g90
g71
NtRp2733
(dp2734
g74
(dp2735
g94
g95
ssg83
g2729
sg76
(lp2736
S'QUERY_STRING'
p2737
asbag69
(g90
g71
NtRp2738
(dp2739
g74
(dp2740
g101
g102
ssg83
g2729
sg76
(lp2741
S':'
asbag69
(g90
g71
NtRp2742
(dp2743
g74
(dp2744
sg83
g2729
sg76
(lp2745
g69
(g70
g71
NtRp2746
(dp2747
g74
(dp2748
g82
I3
ssg83
g2742
sg76
(lp2749
S''
asbasbasbag69
(g85
g71
NtRp2750
(dp2751
g74
(dp2752
sg83
g2494
sg76
(lp2753
g69
(g90
g71
NtRp2754
(dp2755
g74
(dp2756
g94
g95
ssg83
g2750
sg76
(lp2757
S'REMOTE_ADDR'
p2758
asbag69
(g90
g71
NtRp2759
(dp2760
g74
(dp2761
g101
g102
ssg83
g2750
sg76
(lp2762
S':'
asbag69
(g90
g71
NtRp2763
(dp2764
g74
(dp2765
sg83
g2750
sg76
(lp2766
g69
(g70
g71
NtRp2767
(dp2768
g74
(dp2769
g82
I3
ssg83
g2763
sg76
(lp2770
g214
asbasbasbag69
(g85
g71
NtRp2771
(dp2772
g74
(dp2773
sg83
g2494
sg76
(lp2774
g69
(g90
g71
NtRp2775
(dp2776
g74
(dp2777
g94
g95
ssg83
g2771
sg76
(lp2778
S'REMOTE_PORT'
p2779
asbag69
(g90
g71
NtRp2780
(dp2781
g74
(dp2782
g101
g102
ssg83
g2771
sg76
(lp2783
S':'
asbag69
(g90
g71
NtRp2784
(dp2785
g74
(dp2786
sg83
g2771
sg76
(lp2787
g69
(g70
g71
NtRp2788
(dp2789
g74
(dp2790
g82
I3
ssg83
g2784
sg76
(lp2791
g1353
asbasbasbag69
(g85
g71
NtRp2792
(dp2793
g74
(dp2794
sg83
g2494
sg76
(lp2795
g69
(g90
g71
NtRp2796
(dp2797
g74
(dp2798
g94
g95
ssg83
g2792
sg76
(lp2799
S'REQUEST_METHOD'
p2800
asbag69
(g90
g71
NtRp2801
(dp2802
g74
(dp2803
g101
g102
ssg83
g2792
sg76
(lp2804
S':'
asbag69
(g90
g71
NtRp2805
(dp2806
g74
(dp2807
sg83
g2792
sg76
(lp2808
g69
(g70
g71
NtRp2809
(dp2810
g74
(dp2811
g82
I3
ssg83
g2805
sg76
(lp2812
g1375
asbasbasbag69
(g85
g71
NtRp2813
(dp2814
g74
(dp2815
sg83
g2494
sg76
(lp2816
g69
(g90
g71
NtRp2817
(dp2818
g74
(dp2819
g94
g95
ssg83
g2813
sg76
(lp2820
S'SCRIPT_NAME'
p2821
asbag69
(g90
g71
NtRp2822
(dp2823
g74
(dp2824
g101
g102
ssg83
g2813
sg76
(lp2825
S':'
asbag69
(g90
g71
NtRp2826
(dp2827
g74
(dp2828
sg83
g2813
sg76
(lp2829
g69
(g70
g71
NtRp2830
(dp2831
g74
(dp2832
g82
I3
ssg83
g2826
sg76
(lp2833
S''
asbasbasbag69
(g85
g71
NtRp2834
(dp2835
g74
(dp2836
sg83
g2494
sg76
(lp2837
g69
(g90
g71
NtRp2838
(dp2839
g74
(dp2840
g94
g95
ssg83
g2834
sg76
(lp2841
S'SERVER_NAME'
p2842
asbag69
(g90
g71
NtRp2843
(dp2844
g74
(dp2845
g101
g102
ssg83
g2834
sg76
(lp2846
S':'
asbag69
(g90
g71
NtRp2847
(dp2848
g74
(dp2849
sg83
g2834
sg76
(lp2850
g69
(g70
g71
NtRp2851
(dp2852
g74
(dp2853
g82
I3
ssg83
g2847
sg76
(lp2854
g1418
asbasbasbag69
(g85
g71
NtRp2855
(dp2856
g74
(dp2857
sg83
g2494
sg76
(lp2858
g69
(g90
g71
NtRp2859
(dp2860
g74
(dp2861
g94
g95
ssg83
g2855
sg76
(lp2862
S'SERVER_PORT'
p2863
asbag69
(g90
g71
NtRp2864
(dp2865
g74
(dp2866
g101
g102
ssg83
g2855
sg76
(lp2867
S':'
asbag69
(g90
g71
NtRp2868
(dp2869
g74
(dp2870
sg83
g2855
sg76
(lp2871
g69
(g70
g71
NtRp2872
(dp2873
g74
(dp2874
g82
I3
ssg83
g2868
sg76
(lp2875
g1440
asbasbasbag69
(g85
g71
NtRp2876
(dp2877
g74
(dp2878
sg83
g2494
sg76
(lp2879
g69
(g90
g71
NtRp2880
(dp2881
g74
(dp2882
g94
g95
ssg83
g2876
sg76
(lp2883
S'SERVER_PROTOCOL'
p2884
asbag69
(g90
g71
NtRp2885
(dp2886
g74
(dp2887
g101
g102
ssg83
g2876
sg76
(lp2888
S':'
asbag69
(g90
g71
NtRp2889
(dp2890
g74
(dp2891
sg83
g2876
sg76
(lp2892
g69
(g70
g71
NtRp2893
(dp2894
g74
(dp2895
g82
I3
ssg83
g2889
sg76
(lp2896
g1462
asbasbasbag69
(g85
g71
NtRp2897
(dp2898
g74
(dp2899
sg83
g2494
sg76
(lp2900
g69
(g90
g71
NtRp2901
(dp2902
g74
(dp2903
g94
g95
ssg83
g2897
sg76
(lp2904
S'SERVER_SOFTWARE'
p2905
asbag69
(g90
g71
NtRp2906
(dp2907
g74
(dp2908
g101
g102
ssg83
g2897
sg76
(lp2909
S':'
asbag69
(g90
g71
NtRp2910
(dp2911
g74
(dp2912
sg83
g2897
sg76
(lp2913
g69
(g70
g71
NtRp2914
(dp2915
g74
(dp2916
g82
I3
ssg83
g2910
sg76
(lp2917
g1484
asbasbasbag69
(g85
g71
NtRp2918
(dp2919
g74
(dp2920
sg83
g2494
sg76
(lp2921
g69
(g90
g71
NtRp2922
(dp2923
g74
(dp2924
g94
g95
ssg83
g2918
sg76
(lp2925
S'wsgi.errors'
p2926
asbag69
(g90
g71
NtRp2927
(dp2928
g74
(dp2929
g101
g102
ssg83
g2918
sg76
(lp2930
S':'
asbag69
(g90
g71
NtRp2931
(dp2932
g74
(dp2933
sg83
g2918
sg76
(lp2934
g69
(g70
g71
NtRp2935
(dp2936
g74
(dp2937
g82
I3
ssg83
g2931
sg76
(lp2938
S"<open file '<stderr>', mode 'w' at 0x7fa6e5aa8270>"
p2939
asbasbasbag69
(g85
g71
NtRp2940
(dp2941
g74
(dp2942
sg83
g2494
sg76
(lp2943
g69
(g90
g71
NtRp2944
(dp2945
g74
(dp2946
g94
g95
ssg83
g2940
sg76
(lp2947
S'wsgi.file_wrapper'
p2948
asbag69
(g90
g71
NtRp2949
(dp2950
g74
(dp2951
g101
g102
ssg83
g2940
sg76
(lp2952
S':'
asbag69
(g90
g71
NtRp2953
(dp2954
g74
(dp2955
sg83
g2940
sg76
(lp2956
g69
(g70
g71
NtRp2957
(dp2958
g74
(dp2959
g82
I3
ssg83
g2953
sg76
(lp2960
S'<class wsgiref.util.FileWrapper at 0x25e9808>'
p2961
asbasbasbag69
(g85
g71
NtRp2962
(dp2963
g74
(dp2964
sg83
g2494
sg76
(lp2965
g69
(g90
g71
NtRp2966
(dp2967
g74
(dp2968
g94
g95
ssg83
g2962
sg76
(lp2969
S'wsgi.input'
p2970
asbag69
(g90
g71
NtRp2971
(dp2972
g74
(dp2973
g101
g102
ssg83
g2962
sg76
(lp2974
S':'
asbag69
(g90
g71
NtRp2975
(dp2976
g74
(dp2977
sg83
g2962
sg76
(lp2978
g69
(g70
g71
NtRp2979
(dp2980
g74
(dp2981
g82
I3
ssg83
g2975
sg76
(lp2982
S'<cStringIO.StringO object at 0x2fe6e68>'
p2983
asbasbasbag69
(g85
g71
NtRp2984
(dp2985
g74
(dp2986
sg83
g2494
sg76
(lp2987
g69
(g90
g71
NtRp2988
(dp2989
g74
(dp2990
g94
g95
ssg83
g2984
sg76
(lp2991
S'wsgi.multiprocess'
p2992
asbag69
(g90
g71
NtRp2993
(dp2994
g74
(dp2995
g101
g102
ssg83
g2984
sg76
(lp2996
S':'
asbag69
(g90
g71
NtRp2997
(dp2998
g74
(dp2999
sg83
g2984
sg76
(lp3000
g69
(g70
g71
NtRp3001
(dp3002
g74
(dp3003
g82
I3
ssg83
g2997
sg76
(lp3004
g112
asbasbasbag69
(g85
g71
NtRp3005
(dp3006
g74
(dp3007
sg83
g2494
sg76
(lp3008
g69
(g90
g71
NtRp3009
(dp3010
g74
(dp3011
g94
g95
ssg83
g3005
sg76
(lp3012
S'wsgi.multithread'
p3013
asbag69
(g90
g71
NtRp3014
(dp3015
g74
(dp3016
g101
g102
ssg83
g3005
sg76
(lp3017
S':'
asbag69
(g90
g71
NtRp3018
(dp3019
g74
(dp3020
sg83
g3005
sg76
(lp3021
g69
(g70
g71
NtRp3022
(dp3023
g74
(dp3024
g82
I3
ssg83
g3018
sg76
(lp3025
g1724
asbasbasbag69
(g85
g71
NtRp3026
(dp3027
g74
(dp3028
sg83
g2494
sg76
(lp3029
g69
(g90
g71
NtRp3030
(dp3031
g74
(dp3032
g94
g95
ssg83
g3026
sg76
(lp3033
S'wsgi.run_once'
p3034
asbag69
(g90
g71
NtRp3035
(dp3036
g74
(dp3037
g101
g102
ssg83
g3026
sg76
(lp3038
S':'
asbag69
(g90
g71
NtRp3039
(dp3040
g74
(dp3041
sg83
g3026
sg76
(lp3042
g69
(g70
g71
NtRp3043
(dp3044
g74
(dp3045
g82
I3
ssg83
g3039
sg76
(lp3046
g112
asbasbasbag69
(g85
g71
NtRp3047
(dp3048
g74
(dp3049
sg83
g2494
sg76
(lp3050
g69
(g90
g71
NtRp3051
(dp3052
g74
(dp3053
g94
g95
ssg83
g3047
sg76
(lp3054
S'wsgi.url_scheme'
p3055
asbag69
(g90
g71
NtRp3056
(dp3057
g74
(dp3058
g101
g102
ssg83
g3047
sg76
(lp3059
S':'
asbag69
(g90
g71
NtRp3060
(dp3061
g74
(dp3062
sg83
g3047
sg76
(lp3063
g69
(g70
g71
NtRp3064
(dp3065
g74
(dp3066
g82
I3
ssg83
g3060
sg76
(lp3067
g1767
asbasbasbag69
(g85
g71
NtRp3068
(dp3069
g74
(dp3070
sg83
g2494
sg76
(lp3071
g69
(g90
g71
NtRp3072
(dp3073
g74
(dp3074
g94
g95
ssg83
g3068
sg76
(lp3075
S'wsgi.version'
p3076
asbag69
(g90
g71
NtRp3077
(dp3078
g74
(dp3079
g101
g102
ssg83
g3068
sg76
(lp3080
S':'
asbag69
(g90
g71
NtRp3081
(dp3082
g74
(dp3083
sg83
g3068
sg76
(lp3084
g69
(g70
g71
NtRp3085
(dp3086
g74
(dp3087
g82
I3
ssg83
g3081
sg76
(lp3088
S'1'
asbasbasbasbasbasbasbasbasbasbasbasbasbsS'frames'
p3089
(lp3090
(dp3091
S'file'
p3092
S'/home/fish/Desktop/web2py/gluon/restricted.py'
p3093
sS'dump'
p3094
(dp3095
S'code'
p3096
S'\'response.write(\\\'<html lang="en">\\\\n<head>\\\\n    <s...ponse.write(\\\'\\\\n</body>\\\\n</html>\\\\n\\\', escape=False)\''
p3097
sS'layer'
p3098
S"'/home/fish/Desktop/web2py/applications/vsalad/views/action/comments.html'"
p3099
sS'global compile2'
p3100
S'<function compile2>'
p3101
sS'ccode'
p3102
S'undefined'
p3103
ssS'lnum'
p3104
I204
sS'lines'
p3105
(dp3106
I199
S"    environment['__name__'] = '__restricted__'"
p3107
sI200
S'    try:'
p3108
sI201
S'        if type(code) == types.CodeType:'
p3109
sI202
S'            ccode = code'
p3110
sI203
S'        else:'
p3111
sI204
S'            ccode = compile2(code,layer)'
p3112
sI205
S'        exec ccode in environment'
p3113
sI206
S'    except HTTP:'
p3114
sI207
S'        raise'
p3115
sI208
S'    except RestrictedError:'
p3116
ssS'call'
p3117
S'(code=\'response.write(\\\'<html lang="en">\\\\n<head>\\\\n    <s...ponse.write(\\\'\\\\n</body>\\\\n</html>\\\\n\\\', escape=False)\', environment={\'A\': <class \'gluon.html.A\'>, \'Auth\': <class \'gluon.tools.Auth\'>, \'B\': <class \'gluon.html.B\'>, \'BEAUTIFY\': <class \'gluon.html.BEAUTIFY\'>, \'BODY\': <class \'gluon.html.BODY\'>, \'BR\': <class \'gluon.html.BR\'>, \'BUTTON\': <class \'gluon.html.BUTTON\'>, \'CAT\': <class \'gluon.html.CAT\'>, \'CENTER\': <class \'gluon.html.CENTER\'>, \'CLEANUP\': <class \'gluon.validators.CLEANUP\'>, ...}, layer=\'/home/fish/Desktop/web2py/applications/vsalad/views/action/comments.html\')'
p3118
sS'func'
p3119
S'restricted'
p3120
sa(dp3121
g3092
S'/home/fish/Desktop/web2py/gluon/restricted.py'
p3122
sg3094
(dp3123
S'builtincompile'
p3124
S'<built-in function compile>'
p3125
sS'code'
p3126
S'\'response.write(\\\'<html lang="en">\\\\n<head>\\\\n    <s...ponse.write(\\\'\\\\n</body>\\\\n</html>\\\\n\\\', escape=False)\''
p3127
sS'code.rstrip'
p3128
S'<built-in method rstrip of str object>'
p3129
sS').replace'
p3130
g3103
sS'layer'
p3131
S"'/home/fish/Desktop/web2py/applications/vsalad/views/action/comments.html'"
p3132
ssg3104
I189
sg3105
(dp3133
I192
S'    """'
p3134
sI193
S'    runs code in environment and returns the output. if an exception occurs'
p3135
sI184
S''
sI185
S'def compile2(code,layer):'
p3136
sI186
S'    """'
p3137
sI187
S"    The +'\\n' is necessary else compile fails when code ends in a comment."
p3138
sI188
S'    """'
p3139
sI189
S"    return compile(code.rstrip().replace('\\r\\n','\\n')+'\\n', layer, 'exec')"
p3140
sI190
S''
sI191
S"def restricted(code, environment=None, layer='Unknown'):"
p3141
ssg3117
S'(code=\'response.write(\\\'<html lang="en">\\\\n<head>\\\\n    <s...ponse.write(\\\'\\\\n</body>\\\\n</html>\\\\n\\\', escape=False)\', layer=\'/home/fish/Desktop/web2py/applications/vsalad/views/action/comments.html\')'
p3142
sg3119
S'compile2'
p3143
sasS'pyver'
p3144
S'Python 2.7.2+: /usr/bin/python'
p3145
sS'session'
p3146
g69
(g70
g71
NtRp3147
(dp3148
g74
(dp3149
sg76
(lp3150
g69
(g78
g71
NtRp3151
(dp3152
g74
(dp3153
g82
I5
ssg83
Nsg76
(lp3154
g69
(g85
g71
NtRp3155
(dp3156
g74
(dp3157
sg83
g3151
sg76
(lp3158
g69
(g90
g71
NtRp3159
(dp3160
g74
(dp3161
g94
g95
ssg83
g3155
sg76
(lp3162
S'last_query'
p3163
asbag69
(g90
g71
NtRp3164
(dp3165
g74
(dp3166
g101
g102
ssg83
g3155
sg76
(lp3167
S':'
asbag69
(g90
g71
NtRp3168
(dp3169
g74
(dp3170
sg83
g3155
sg76
(lp3171
g69
(g70
g71
NtRp3172
(dp3173
g74
(dp3174
g82
I5
ssg83
g3168
sg76
(lp3175
S'db.comments.id>0'
p3176
asbasbasbasbasbsS'etype'
p3177
S"<type 'exceptions.SyntaxError'>"
p3178
sS'date'
p3179
S'Fri Apr 20 21:40:14 2012'
p3180
sS'response'
p3181
g69
(g70
g71
NtRp3182
(dp3183
g74
(dp3184
sg76
(lp3185
g69
(g78
g71
NtRp3186
(dp3187
g74
(dp3188
g82
I5
ssg83
Nsg76
(lp3189
g69
(g85
g71
NtRp3190
(dp3191
g74
(dp3192
sg83
g3186
sg76
(lp3193
g69
(g90
g71
NtRp3194
(dp3195
g74
(dp3196
g94
g95
ssg83
g3190
sg76
(lp3197
g179
asbag69
(g90
g71
NtRp3198
(dp3199
g74
(dp3200
g101
g102
ssg83
g3190
sg76
(lp3201
S':'
asbag69
(g90
g71
NtRp3202
(dp3203
g74
(dp3204
sg83
g3190
sg76
(lp3205
g69
(g70
g71
NtRp3206
(dp3207
g74
(dp3208
g82
I5
ssg83
g3202
sg76
(lp3209
S'<cStringIO.StringO object at 0x31317a0>'
p3210
asbasbasbag69
(g85
g71
NtRp3211
(dp3212
g74
(dp3213
sg83
g3186
sg76
(lp3214
g69
(g90
g71
NtRp3215
(dp3216
g74
(dp3217
g94
g95
ssg83
g3211
sg76
(lp3218
g245
asbag69
(g90
g71
NtRp3219
(dp3220
g74
(dp3221
g101
g102
ssg83
g3211
sg76
(lp3222
S':'
asbag69
(g90
g71
NtRp3223
(dp3224
g74
(dp3225
sg83
g3211
sg76
(lp3226
g69
(g70
g71
NtRp3227
(dp3228
g74
(dp3229
g82
I5
ssg83
g3223
sg76
(lp3230
g69
(g78
g71
NtRp3231
(dp3232
g74
(dp3233
g82
I4
ssg83
Nsg76
(lp3234
g69
(g85
g71
NtRp3235
(dp3236
g74
(dp3237
sg83
g3231
sg76
(lp3238
g69
(g90
g71
NtRp3239
(dp3240
g74
(dp3241
g94
g95
ssg83
g3235
sg76
(lp3242
S'session_id_vsalad'
p3243
asbag69
(g90
g71
NtRp3244
(dp3245
g74
(dp3246
g101
g102
ssg83
g3235
sg76
(lp3247
S':'
asbag69
(g90
g71
NtRp3248
(dp3249
g74
(dp3250
sg83
g3235
sg76
(lp3251
g69
(g70
g71
NtRp3252
(dp3253
g74
(dp3254
g82
I4
ssg83
g3248
sg76
(lp3255
g69
(g78
g71
NtRp3256
(dp3257
g74
(dp3258
g82
I3
ssg83
Nsg76
(lp3259
g69
(g85
g71
NtRp3260
(dp3261
g74
(dp3262
sg83
g3256
sg76
(lp3263
g69
(g90
g71
NtRp3264
(dp3265
g74
(dp3266
g94
g95
ssg83
g3260
sg76
(lp3267
g295
asbag69
(g90
g71
NtRp3268
(dp3269
g74
(dp3270
g101
g102
ssg83
g3260
sg76
(lp3271
S':'
asbag69
(g90
g71
NtRp3272
(dp3273
g74
(dp3274
sg83
g3260
sg76
(lp3275
g69
(g70
g71
NtRp3276
(dp3277
g74
(dp3278
g82
I3
ssg83
g3272
sg76
(lp3279
S''
asbasbasbag69
(g85
g71
NtRp3280
(dp3281
g74
(dp3282
sg83
g3256
sg76
(lp3283
g69
(g90
g71
NtRp3284
(dp3285
g74
(dp3286
g94
g95
ssg83
g3280
sg76
(lp3287
g316
asbag69
(g90
g71
NtRp3288
(dp3289
g74
(dp3290
g101
g102
ssg83
g3280
sg76
(lp3291
S':'
asbag69
(g90
g71
NtRp3292
(dp3293
g74
(dp3294
sg83
g3280
sg76
(lp3295
g69
(g70
g71
NtRp3296
(dp3297
g74
(dp3298
g82
I3
ssg83
g3292
sg76
(lp3299
S''
asbasbasbag69
(g85
g71
NtRp3300
(dp3301
g74
(dp3302
sg83
g3256
sg76
(lp3303
g69
(g90
g71
NtRp3304
(dp3305
g74
(dp3306
g94
g95
ssg83
g3300
sg76
(lp3307
g337
asbag69
(g90
g71
NtRp3308
(dp3309
g74
(dp3310
g101
g102
ssg83
g3300
sg76
(lp3311
S':'
asbag69
(g90
g71
NtRp3312
(dp3313
g74
(dp3314
sg83
g3300
sg76
(lp3315
g69
(g70
g71
NtRp3316
(dp3317
g74
(dp3318
g82
I3
ssg83
g3312
sg76
(lp3319
S''
asbasbasbag69
(g85
g71
NtRp3320
(dp3321
g74
(dp3322
sg83
g3256
sg76
(lp3323
g69
(g90
g71
NtRp3324
(dp3325
g74
(dp3326
g94
g95
ssg83
g3320
sg76
(lp3327
g358
asbag69
(g90
g71
NtRp3328
(dp3329
g74
(dp3330
g101
g102
ssg83
g3320
sg76
(lp3331
S':'
asbag69
(g90
g71
NtRp3332
(dp3333
g74
(dp3334
sg83
g3320
sg76
(lp3335
g69
(g70
g71
NtRp3336
(dp3337
g74
(dp3338
g82
I3
ssg83
g3332
sg76
(lp3339
S''
asbasbasbag69
(g85
g71
NtRp3340
(dp3341
g74
(dp3342
sg83
g3256
sg76
(lp3343
g69
(g90
g71
NtRp3344
(dp3345
g74
(dp3346
g94
g95
ssg83
g3340
sg76
(lp3347
g379
asbag69
(g90
g71
NtRp3348
(dp3349
g74
(dp3350
g101
g102
ssg83
g3340
sg76
(lp3351
S':'
asbag69
(g90
g71
NtRp3352
(dp3353
g74
(dp3354
sg83
g3340
sg76
(lp3355
g69
(g70
g71
NtRp3356
(dp3357
g74
(dp3358
g82
I3
ssg83
g3352
sg76
(lp3359
S''
asbasbasbag69
(g85
g71
NtRp3360
(dp3361
g74
(dp3362
sg83
g3256
sg76
(lp3363
g69
(g90
g71
NtRp3364
(dp3365
g74
(dp3366
g94
g95
ssg83
g3360
sg76
(lp3367
g400
asbag69
(g90
g71
NtRp3368
(dp3369
g74
(dp3370
g101
g102
ssg83
g3360
sg76
(lp3371
S':'
asbag69
(g90
g71
NtRp3372
(dp3373
g74
(dp3374
sg83
g3360
sg76
(lp3375
g69
(g70
g71
NtRp3376
(dp3377
g74
(dp3378
g82
I3
ssg83
g3372
sg76
(lp3379
S'/'
asbasbasbag69
(g85
g71
NtRp3380
(dp3381
g74
(dp3382
sg83
g3256
sg76
(lp3383
g69
(g90
g71
NtRp3384
(dp3385
g74
(dp3386
g94
g95
ssg83
g3380
sg76
(lp3387
g421
asbag69
(g90
g71
NtRp3388
(dp3389
g74
(dp3390
g101
g102
ssg83
g3380
sg76
(lp3391
S':'
asbag69
(g90
g71
NtRp3392
(dp3393
g74
(dp3394
sg83
g3380
sg76
(lp3395
g69
(g70
g71
NtRp3396
(dp3397
g74
(dp3398
g82
I3
ssg83
g3392
sg76
(lp3399
S''
asbasbasbag69
(g85
g71
NtRp3400
(dp3401
g74
(dp3402
sg83
g3256
sg76
(lp3403
g69
(g90
g71
NtRp3404
(dp3405
g74
(dp3406
g94
g95
ssg83
g3400
sg76
(lp3407
g442
asbag69
(g90
g71
NtRp3408
(dp3409
g74
(dp3410
g101
g102
ssg83
g3400
sg76
(lp3411
S':'
asbag69
(g90
g71
NtRp3412
(dp3413
g74
(dp3414
sg83
g3400
sg76
(lp3415
g69
(g70
g71
NtRp3416
(dp3417
g74
(dp3418
g82
I3
ssg83
g3412
sg76
(lp3419
S''
asbasbasbasbasbasbasbasbasbasbasbag69
(g85
g71
NtRp3420
(dp3421
g74
(dp3422
sg83
g3186
sg76
(lp3423
g69
(g90
g71
NtRp3424
(dp3425
g74
(dp3426
g94
g95
ssg83
g3420
sg76
(lp3427
S'delimiters'
p3428
asbag69
(g90
g71
NtRp3429
(dp3430
g74
(dp3431
g101
g102
ssg83
g3420
sg76
(lp3432
S':'
asbag69
(g90
g71
NtRp3433
(dp3434
g74
(dp3435
sg83
g3420
sg76
(lp3436
g69
(g70
g71
NtRp3437
(dp3438
g74
(dp3439
g82
I5
ssg83
g3433
sg76
(lp3440
g69
(g78
g71
NtRp3441
(dp3442
g74
(dp3443
g82
I4
ssg83
Nsg76
(lp3444
g69
(g85
g71
NtRp3445
(dp3446
g74
(dp3447
sg83
g3441
sg76
(lp3448
g69
(g90
g71
NtRp3449
(dp3450
g74
(dp3451
sg83
g3445
sg76
(lp3452
g69
(g70
g71
NtRp3453
(dp3454
g74
(dp3455
g82
I4
ssg83
g3449
sg76
(lp3456
S'{{'
p3457
asbasbasbag69
(g85
g71
NtRp3458
(dp3459
g74
(dp3460
sg83
g3441
sg76
(lp3461
g69
(g90
g71
NtRp3462
(dp3463
g74
(dp3464
sg83
g3458
sg76
(lp3465
g69
(g70
g71
NtRp3466
(dp3467
g74
(dp3468
g82
I4
ssg83
g3462
sg76
(lp3469
S'}}'
p3470
asbasbasbasbasbasbasbag69
(g85
g71
NtRp3471
(dp3472
g74
(dp3473
sg83
g3186
sg76
(lp3474
g69
(g90
g71
NtRp3475
(dp3476
g74
(dp3477
g94
g95
ssg83
g3471
sg76
(lp3478
S'files'
p3479
asbag69
(g90
g71
NtRp3480
(dp3481
g74
(dp3482
g101
g102
ssg83
g3471
sg76
(lp3483
S':'
asbag69
(g90
g71
NtRp3484
(dp3485
g74
(dp3486
sg83
g3471
sg76
(lp3487
g69
(g70
g71
NtRp3488
(dp3489
g74
(dp3490
g82
I5
ssg83
g3484
sg76
(lp3491
g69
(g78
g71
NtRp3492
(dp3493
g74
(dp3494
g82
I4
ssg83
Nsg76
(lp3495
sbasbasbasbag69
(g85
g71
NtRp3496
(dp3497
g74
(dp3498
sg83
g3186
sg76
(lp3499
g69
(g90
g71
NtRp3500
(dp3501
g74
(dp3502
g94
g95
ssg83
g3496
sg76
(lp3503
S'flash'
p3504
asbag69
(g90
g71
NtRp3505
(dp3506
g74
(dp3507
g101
g102
ssg83
g3496
sg76
(lp3508
S':'
asbag69
(g90
g71
NtRp3509
(dp3510
g74
(dp3511
sg83
g3496
sg76
(lp3512
g69
(g70
g71
NtRp3513
(dp3514
g74
(dp3515
g82
I5
ssg83
g3509
sg76
(lp3516
S''
asbasbasbag69
(g85
g71
NtRp3517
(dp3518
g74
(dp3519
sg83
g3186
sg76
(lp3520
g69
(g90
g71
NtRp3521
(dp3522
g74
(dp3523
g94
g95
ssg83
g3517
sg76
(lp3524
S'generic_patterns'
p3525
asbag69
(g90
g71
NtRp3526
(dp3527
g74
(dp3528
g101
g102
ssg83
g3517
sg76
(lp3529
S':'
asbag69
(g90
g71
NtRp3530
(dp3531
g74
(dp3532
sg83
g3517
sg76
(lp3533
g69
(g70
g71
NtRp3534
(dp3535
g74
(dp3536
g82
I5
ssg83
g3530
sg76
(lp3537
g69
(g78
g71
NtRp3538
(dp3539
g74
(dp3540
g82
I4
ssg83
Nsg76
(lp3541
g69
(g85
g71
NtRp3542
(dp3543
g74
(dp3544
sg83
g3538
sg76
(lp3545
g69
(g90
g71
NtRp3546
(dp3547
g74
(dp3548
sg83
g3542
sg76
(lp3549
g69
(g70
g71
NtRp3550
(dp3551
g74
(dp3552
g82
I4
ssg83
g3546
sg76
(lp3553
S'*'
asbasbasbasbasbasbasbag69
(g85
g71
NtRp3554
(dp3555
g74
(dp3556
sg83
g3186
sg76
(lp3557
g69
(g90
g71
NtRp3558
(dp3559
g74
(dp3560
g94
g95
ssg83
g3554
sg76
(lp3561
S'headers'
p3562
asbag69
(g90
g71
NtRp3563
(dp3564
g74
(dp3565
g101
g102
ssg83
g3554
sg76
(lp3566
S':'
asbag69
(g90
g71
NtRp3567
(dp3568
g74
(dp3569
sg83
g3554
sg76
(lp3570
g69
(g70
g71
NtRp3571
(dp3572
g74
(dp3573
g82
I5
ssg83
g3567
sg76
(lp3574
g69
(g78
g71
NtRp3575
(dp3576
g74
(dp3577
g82
I4
ssg83
Nsg76
(lp3578
g69
(g85
g71
NtRp3579
(dp3580
g74
(dp3581
sg83
g3575
sg76
(lp3582
g69
(g90
g71
NtRp3583
(dp3584
g74
(dp3585
g94
g95
ssg83
g3579
sg76
(lp3586
S'Cache-Control'
p3587
asbag69
(g90
g71
NtRp3588
(dp3589
g74
(dp3590
g101
g102
ssg83
g3579
sg76
(lp3591
S':'
asbag69
(g90
g71
NtRp3592
(dp3593
g74
(dp3594
sg83
g3579
sg76
(lp3595
g69
(g70
g71
NtRp3596
(dp3597
g74
(dp3598
g82
I4
ssg83
g3592
sg76
(lp3599
S'no-store, no-cache, must-revalidate, post-check=0, pre-check=0'
p3600
asbasbasbag69
(g85
g71
NtRp3601
(dp3602
g74
(dp3603
sg83
g3575
sg76
(lp3604
g69
(g90
g71
NtRp3605
(dp3606
g74
(dp3607
g94
g95
ssg83
g3601
sg76
(lp3608
S'Content-Type'
p3609
asbag69
(g90
g71
NtRp3610
(dp3611
g74
(dp3612
g101
g102
ssg83
g3601
sg76
(lp3613
S':'
asbag69
(g90
g71
NtRp3614
(dp3615
g74
(dp3616
sg83
g3601
sg76
(lp3617
g69
(g70
g71
NtRp3618
(dp3619
g74
(dp3620
g82
I4
ssg83
g3614
sg76
(lp3621
S'text/html; charset=utf-8'
p3622
asbasbasbag69
(g85
g71
NtRp3623
(dp3624
g74
(dp3625
sg83
g3575
sg76
(lp3626
g69
(g90
g71
NtRp3627
(dp3628
g74
(dp3629
g94
g95
ssg83
g3623
sg76
(lp3630
S'Expires'
p3631
asbag69
(g90
g71
NtRp3632
(dp3633
g74
(dp3634
g101
g102
ssg83
g3623
sg76
(lp3635
S':'
asbag69
(g90
g71
NtRp3636
(dp3637
g74
(dp3638
sg83
g3623
sg76
(lp3639
g69
(g70
g71
NtRp3640
(dp3641
g74
(dp3642
g82
I4
ssg83
g3636
sg76
(lp3643
S'Fri, 20 Apr 2012 17:40:14 GMT'
p3644
asbasbasbag69
(g85
g71
NtRp3645
(dp3646
g74
(dp3647
sg83
g3575
sg76
(lp3648
g69
(g90
g71
NtRp3649
(dp3650
g74
(dp3651
g94
g95
ssg83
g3645
sg76
(lp3652
S'Pragma'
p3653
asbag69
(g90
g71
NtRp3654
(dp3655
g74
(dp3656
g101
g102
ssg83
g3645
sg76
(lp3657
S':'
asbag69
(g90
g71
NtRp3658
(dp3659
g74
(dp3660
sg83
g3645
sg76
(lp3661
g69
(g70
g71
NtRp3662
(dp3663
g74
(dp3664
g82
I4
ssg83
g3658
sg76
(lp3665
S'no-cache'
p3666
asbasbasbag69
(g85
g71
NtRp3667
(dp3668
g74
(dp3669
sg83
g3575
sg76
(lp3670
g69
(g90
g71
NtRp3671
(dp3672
g74
(dp3673
g94
g95
ssg83
g3667
sg76
(lp3674
S'X-Powered-By'
p3675
asbag69
(g90
g71
NtRp3676
(dp3677
g74
(dp3678
g101
g102
ssg83
g3667
sg76
(lp3679
S':'
asbag69
(g90
g71
NtRp3680
(dp3681
g74
(dp3682
sg83
g3667
sg76
(lp3683
g69
(g70
g71
NtRp3684
(dp3685
g74
(dp3686
g82
I4
ssg83
g3680
sg76
(lp3687
S'web2py'
p3688
asbasbasbasbasbasbasbag69
(g85
g71
NtRp3689
(dp3690
g74
(dp3691
sg83
g3186
sg76
(lp3692
g69
(g90
g71
NtRp3693
(dp3694
g74
(dp3695
g94
g95
ssg83
g3689
sg76
(lp3696
S'menu'
p3697
asbag69
(g90
g71
NtRp3698
(dp3699
g74
(dp3700
g101
g102
ssg83
g3689
sg76
(lp3701
S':'
asbag69
(g90
g71
NtRp3702
(dp3703
g74
(dp3704
sg83
g3689
sg76
(lp3705
g69
(g70
g71
NtRp3706
(dp3707
g74
(dp3708
g82
I5
ssg83
g3702
sg76
(lp3709
g69
(g78
g71
NtRp3710
(dp3711
g74
(dp3712
g82
I4
ssg83
Nsg76
(lp3713
g69
(g85
g71
NtRp3714
(dp3715
g74
(dp3716
sg83
g3710
sg76
(lp3717
g69
(g90
g71
NtRp3718
(dp3719
g74
(dp3720
sg83
g3714
sg76
(lp3721
g69
(g70
g71
NtRp3722
(dp3723
g74
(dp3724
g82
I4
ssg83
g3718
sg76
(lp3725
g69
(g78
g71
NtRp3726
(dp3727
g74
(dp3728
g82
I3
ssg83
Nsg76
(lp3729
g69
(g85
g71
NtRp3730
(dp3731
g74
(dp3732
sg83
g3726
sg76
(lp3733
g69
(g90
g71
NtRp3734
(dp3735
g74
(dp3736
sg83
g3730
sg76
(lp3737
g69
(g70
g71
NtRp3738
(dp3739
g74
(dp3740
g82
I3
ssg83
g3734
sg76
(lp3741
cgluon.languages
lazyT_unpickle
p3742
(S't\x04\x00\x00\x00Home'
tRp3743
asbasbasbag69
(g85
g71
NtRp3744
(dp3745
g74
(dp3746
sg83
g3726
sg76
(lp3747
g69
(g90
g71
NtRp3748
(dp3749
g74
(dp3750
sg83
g3744
sg76
(lp3751
g69
(g70
g71
NtRp3752
(dp3753
g74
(dp3754
g82
I3
ssg83
g3748
sg76
(lp3755
g112
asbasbasbag69
(g85
g71
NtRp3756
(dp3757
g74
(dp3758
sg83
g3726
sg76
(lp3759
g69
(g90
g71
NtRp3760
(dp3761
g74
(dp3762
sg83
g3756
sg76
(lp3763
g69
(g70
g71
NtRp3764
(dp3765
g74
(dp3766
g82
I3
ssg83
g3760
sg76
(lp3767
S'/vsalad/default/index'
p3768
asbasbasbag69
(g85
g71
NtRp3769
(dp3770
g74
(dp3771
sg83
g3726
sg76
(lp3772
g69
(g90
g71
NtRp3773
(dp3774
g74
(dp3775
sg83
g3769
sg76
(lp3776
g69
(g70
g71
NtRp3777
(dp3778
g74
(dp3779
g82
I3
ssg83
g3773
sg76
(lp3780
g69
(g78
g71
NtRp3781
(dp3782
g74
(dp3783
g82
I2
ssg83
Nsg76
(lp3784
sbasbasbasbasbasbasbasbag69
(g85
g71
NtRp3785
(dp3786
g74
(dp3787
sg83
g3710
sg76
(lp3788
g69
(g90
g71
NtRp3789
(dp3790
g74
(dp3791
sg83
g3785
sg76
(lp3792
g69
(g70
g71
NtRp3793
(dp3794
g74
(dp3795
g82
I4
ssg83
g3789
sg76
(lp3796
g69
(g78
g71
NtRp3797
(dp3798
g74
(dp3799
g82
I3
ssg83
Nsg76
(lp3800
g69
(g85
g71
NtRp3801
(dp3802
g74
(dp3803
sg83
g3797
sg76
(lp3804
g69
(g90
g71
NtRp3805
(dp3806
g74
(dp3807
sg83
g3801
sg76
(lp3808
g69
(g70
g71
NtRp3809
(dp3810
g74
(dp3811
g82
I3
ssg83
g3805
sg76
(lp3812
g69
(cgluon.html
SPAN
p3813
g71
NtRp3814
(dp3815
g74
(dp3816
g94
S'color:yellow'
p3817
ssg83
Nsg76
(lp3818
g3688
asbasbasbasbag69
(g85
g71
NtRp3819
(dp3820
g74
(dp3821
sg83
g3797
sg76
(lp3822
g69
(g90
g71
NtRp3823
(dp3824
g74
(dp3825
sg83
g3819
sg76
(lp3826
g69
(g70
g71
NtRp3827
(dp3828
g74
(dp3829
g82
I3
ssg83
g3823
sg76
(lp3830
g112
asbasbasbag69
(g85
g71
NtRp3831
(dp3832
g74
(dp3833
sg83
g3797
sg76
(lp3834
g69
(g90
g71
NtRp3835
(dp3836
g74
(dp3837
sg83
g3831
sg76
(lp3838
g69
(g70
g71
NtRp3839
(dp3840
g74
(dp3841
g82
I3
ssg83
g3835
sg76
(lp3842
S'None'
p3843
asbasbasbag69
(g85
g71
NtRp3844
(dp3845
g74
(dp3846
sg83
g3797
sg76
(lp3847
g69
(g90
g71
NtRp3848
(dp3849
g74
(dp3850
sg83
g3844
sg76
(lp3851
g69
(g70
g71
NtRp3852
(dp3853
g74
(dp3854
g82
I3
ssg83
g3848
sg76
(lp3855
g69
(g78
g71
NtRp3856
(dp3857
g74
(dp3858
g82
I2
ssg83
Nsg76
(lp3859
g69
(g85
g71
NtRp3860
(dp3861
g74
(dp3862
sg83
g3856
sg76
(lp3863
g69
(g90
g71
NtRp3864
(dp3865
g74
(dp3866
sg83
g3860
sg76
(lp3867
g69
(g70
g71
NtRp3868
(dp3869
g74
(dp3870
g82
I2
ssg83
g3864
sg76
(lp3871
g69
(g78
g71
NtRp3872
(dp3873
g74
(dp3874
g82
I1
ssg83
Nsg76
(lp3875
g69
(g85
g71
NtRp3876
(dp3877
g74
(dp3878
sg83
g3872
sg76
(lp3879
g69
(g90
g71
NtRp3880
(dp3881
g74
(dp3882
sg83
g3876
sg76
(lp3883
g69
(g70
g71
NtRp3884
(dp3885
g74
(dp3886
g82
I1
ssg83
g3880
sg76
(lp3887
g3742
(S's\x08\x00\x00\x00My Sites'
tRp3888
asbasbasbag69
(g85
g71
NtRp3889
(dp3890
g74
(dp3891
sg83
g3872
sg76
(lp3892
g69
(g90
g71
NtRp3893
(dp3894
g74
(dp3895
sg83
g3889
sg76
(lp3896
g69
(g70
g71
NtRp3897
(dp3898
g74
(dp3899
g82
I1
ssg83
g3893
sg76
(lp3900
I00
asbasbasbag69
(g85
g71
NtRp3901
(dp3902
g74
(dp3903
sg83
g3872
sg76
(lp3904
g69
(g90
g71
NtRp3905
(dp3906
g74
(dp3907
sg83
g3901
sg76
(lp3908
g69
(g70
g71
NtRp3909
(dp3910
g74
(dp3911
g82
I1
ssg83
g3905
sg76
(lp3912
S'/admin/default/site'
p3913
asbasbasbasbasbasbasbag69
(g85
g71
NtRp3914
(dp3915
g74
(dp3916
sg83
g3856
sg76
(lp3917
g69
(g90
g71
NtRp3918
(dp3919
g74
(dp3920
sg83
g3914
sg76
(lp3921
g69
(g70
g71
NtRp3922
(dp3923
g74
(dp3924
g82
I2
ssg83
g3918
sg76
(lp3925
g69
(g78
g71
NtRp3926
(dp3927
g74
(dp3928
g82
I1
ssg83
Nsg76
(lp3929
g69
(g85
g71
NtRp3930
(dp3931
g74
(dp3932
sg83
g3926
sg76
(lp3933
g69
(g90
g71
NtRp3934
(dp3935
g74
(dp3936
sg83
g3930
sg76
(lp3937
g69
(g70
g71
NtRp3938
(dp3939
g74
(dp3940
g82
I1
ssg83
g3934
sg76
(lp3941
g3742
(S's\x08\x00\x00\x00This App'
tRp3942
asbasbasbag69
(g85
g71
NtRp3943
(dp3944
g74
(dp3945
sg83
g3926
sg76
(lp3946
g69
(g90
g71
NtRp3947
(dp3948
g74
(dp3949
sg83
g3943
sg76
(lp3950
g69
(g70
g71
NtRp3951
(dp3952
g74
(dp3953
g82
I1
ssg83
g3947
sg76
(lp3954
I00
asbasbasbag69
(g85
g71
NtRp3955
(dp3956
g74
(dp3957
sg83
g3926
sg76
(lp3958
g69
(g90
g71
NtRp3959
(dp3960
g74
(dp3961
sg83
g3955
sg76
(lp3962
g69
(g70
g71
NtRp3963
(dp3964
g74
(dp3965
g82
I1
ssg83
g3959
sg76
(lp3966
S'/admin/default/design/vsalad'
p3967
asbasbasbag69
(g85
g71
NtRp3968
(dp3969
g74
(dp3970
sg83
g3926
sg76
(lp3971
g69
(g90
g71
NtRp3972
(dp3973
g74
(dp3974
sg83
g3968
sg76
(lp3975
g69
(g70
g71
NtRp3976
(dp3977
g74
(dp3978
g82
I1
ssg83
g3972
sg76
(lp3979
(lp3980
(g3742
(S't\n\x00\x00\x00Controller'
tRp3981
I00
S'/admin/default/edit/vsalad/controllers/action.py'
tp3982
a(g3742
(S't\x04\x00\x00\x00View'
tRp3983
I00
S'/admin/default/edit/vsalad/views/action/comments.html'
tp3984
a(g3742
(S't\x06\x00\x00\x00Layout'
tRp3985
I00
S'/admin/default/edit/vsalad/views/layout.html'
tp3986
a(g3742
(S't\n\x00\x00\x00Stylesheet'
tRp3987
I00
S'/admin/default/edit/vsalad/static/css/web2py.css'
tp3988
a(g3742
(S's\x08\x00\x00\x00DB Model'
tRp3989
I00
S'/admin/default/edit/vsalad/models/db.py'
tp3990
a(g3742
(S's\n\x00\x00\x00Menu Model'
tRp3991
I00
S'/admin/default/edit/vsalad/models/menu.py'
tp3992
a(g3742
(S't\x08\x00\x00\x00Database'
tRp3993
I00
S'/vsalad/appadmin/index'
tp3994
a(g3742
(S't\x06\x00\x00\x00Errors'
tRp3995
I00
S'/admin/default/errors/vsalad'
tp3996
a(g3742
(S't\x05\x00\x00\x00About'
tRp3997
I00
S'/admin/default/about/vsalad'
tp3998
aasbasbasbasbasbasbasbag69
(g85
g71
NtRp3999
(dp4000
g74
(dp4001
sg83
g3856
sg76
(lp4002
g69
(g90
g71
NtRp4003
(dp4004
g74
(dp4005
sg83
g3999
sg76
(lp4006
g69
(g70
g71
NtRp4007
(dp4008
g74
(dp4009
g82
I2
ssg83
g4003
sg76
(lp4010
g69
(g78
g71
NtRp4011
(dp4012
g74
(dp4013
g82
I1
ssg83
Nsg76
(lp4014
g69
(g85
g71
NtRp4015
(dp4016
g74
(dp4017
sg83
g4011
sg76
(lp4018
g69
(g90
g71
NtRp4019
(dp4020
g74
(dp4021
sg83
g4015
sg76
(lp4022
g69
(g70
g71
NtRp4023
(dp4024
g74
(dp4025
g82
I1
ssg83
g4019
sg76
(lp4026
S'web2py.com'
p4027
asbasbasbag69
(g85
g71
NtRp4028
(dp4029
g74
(dp4030
sg83
g4011
sg76
(lp4031
g69
(g90
g71
NtRp4032
(dp4033
g74
(dp4034
sg83
g4028
sg76
(lp4035
g69
(g70
g71
NtRp4036
(dp4037
g74
(dp4038
g82
I1
ssg83
g4032
sg76
(lp4039
I00
asbasbasbag69
(g85
g71
NtRp4040
(dp4041
g74
(dp4042
sg83
g4011
sg76
(lp4043
g69
(g90
g71
NtRp4044
(dp4045
g74
(dp4046
sg83
g4040
sg76
(lp4047
g69
(g70
g71
NtRp4048
(dp4049
g74
(dp4050
g82
I1
ssg83
g4044
sg76
(lp4051
S'http://www.web2py.com'
p4052
asbasbasbag69
(g85
g71
NtRp4053
(dp4054
g74
(dp4055
sg83
g4011
sg76
(lp4056
g69
(g90
g71
NtRp4057
(dp4058
g74
(dp4059
sg83
g4053
sg76
(lp4060
g69
(g70
g71
NtRp4061
(dp4062
g74
(dp4063
g82
I1
ssg83
g4057
sg76
(lp4064
(lp4065
(g3742
(S't\x08\x00\x00\x00Download'
tRp4066
I00
S'http://www.web2py.com/examples/default/download'
p4067
tp4068
a(g3742
(S't\x07\x00\x00\x00Support'
tRp4069
I00
S'http://www.web2py.com/examples/default/support'
p4070
tp4071
a(g3742
(S't\x04\x00\x00\x00Demo'
tRp4072
I00
S'http://web2py.com/demo_admin'
p4073
tp4074
a(g3742
(S's\x0e\x00\x00\x00Quick Examples'
tRp4075
I00
S'http://web2py.com/examples/default/examples'
p4076
tp4077
a(g3742
(S't\x03\x00\x00\x00FAQ'
tRp4078
I00
S'http://web2py.com/AlterEgo'
p4079
tp4080
a(g3742
(S't\x06\x00\x00\x00Videos'
tRp4081
I00
S'http://www.web2py.com/examples/default/videos/'
p4082
tp4083
a(g3742
(S's\x11\x00\x00\x00Free Applications'
tRp4084
I00
S'http://web2py.com/appliances'
p4085
tp4086
a(g3742
(S't\x07\x00\x00\x00Plugins'
tRp4087
I00
S'http://web2py.com/plugins'
p4088
tp4089
a(g3742
(S't\x07\x00\x00\x00Layouts'
tRp4090
I00
S'http://web2py.com/layouts'
p4091
tp4092
a(g3742
(S't\x07\x00\x00\x00Recipes'
tRp4093
I00
S'http://web2pyslices.com/'
p4094
tp4095
a(g3742
(S't\x08\x00\x00\x00Semantic'
tRp4096
I00
S'http://web2py.com/semantic'
p4097
tp4098
aasbasbasbasbasbasbasbag69
(g85
g71
NtRp4099
(dp4100
g74
(dp4101
sg83
g3856
sg76
(lp4102
g69
(g90
g71
NtRp4103
(dp4104
g74
(dp4105
sg83
g4099
sg76
(lp4106
g69
(g70
g71
NtRp4107
(dp4108
g74
(dp4109
g82
I2
ssg83
g4103
sg76
(lp4110
g69
(g78
g71
NtRp4111
(dp4112
g74
(dp4113
g82
I1
ssg83
Nsg76
(lp4114
g69
(g85
g71
NtRp4115
(dp4116
g74
(dp4117
sg83
g4111
sg76
(lp4118
g69
(g90
g71
NtRp4119
(dp4120
g74
(dp4121
sg83
g4115
sg76
(lp4122
g69
(g70
g71
NtRp4123
(dp4124
g74
(dp4125
g82
I1
ssg83
g4119
sg76
(lp4126
g3742
(S't\r\x00\x00\x00Documentation'
tRp4127
asbasbasbag69
(g85
g71
NtRp4128
(dp4129
g74
(dp4130
sg83
g4111
sg76
(lp4131
g69
(g90
g71
NtRp4132
(dp4133
g74
(dp4134
sg83
g4128
sg76
(lp4135
g69
(g70
g71
NtRp4136
(dp4137
g74
(dp4138
g82
I1
ssg83
g4132
sg76
(lp4139
I00
asbasbasbag69
(g85
g71
NtRp4140
(dp4141
g74
(dp4142
sg83
g4111
sg76
(lp4143
g69
(g90
g71
NtRp4144
(dp4145
g74
(dp4146
sg83
g4140
sg76
(lp4147
g69
(g70
g71
NtRp4148
(dp4149
g74
(dp4150
g82
I1
ssg83
g4144
sg76
(lp4151
S'http://www.web2py.com/book'
p4152
asbasbasbag69
(g85
g71
NtRp4153
(dp4154
g74
(dp4155
sg83
g4111
sg76
(lp4156
g69
(g90
g71
NtRp4157
(dp4158
g74
(dp4159
sg83
g4153
sg76
(lp4160
g69
(g70
g71
NtRp4161
(dp4162
g74
(dp4163
g82
I1
ssg83
g4157
sg76
(lp4164
(lp4165
(g3742
(S't\x07\x00\x00\x00Preface'
tRp4166
I00
S'http://www.web2py.com/book/default/chapter/00'
p4167
tp4168
a(g3742
(S't\x0c\x00\x00\x00Introduction'
tRp4169
I00
S'http://www.web2py.com/book/default/chapter/01'
p4170
tp4171
a(g3742
(S't\x06\x00\x00\x00Python'
tRp4172
I00
S'http://www.web2py.com/book/default/chapter/02'
p4173
tp4174
a(g3742
(S't\x08\x00\x00\x00Overview'
tRp4175
I00
S'http://www.web2py.com/book/default/chapter/03'
p4176
tp4177
a(g3742
(S's\x08\x00\x00\x00The Core'
tRp4178
I00
S'http://www.web2py.com/book/default/chapter/04'
p4179
tp4180
a(g3742
(S's\t\x00\x00\x00The Views'
tRp4181
I00
S'http://www.web2py.com/book/default/chapter/05'
p4182
tp4183
a(g3742
(S't\x08\x00\x00\x00Database'
tRp4184
I00
S'http://www.web2py.com/book/default/chapter/06'
p4185
tp4186
a(g3742
(S's\x14\x00\x00\x00Forms and Validators'
tRp4187
I00
S'http://www.web2py.com/book/default/chapter/07'
p4188
tp4189
a(g3742
(S's\r\x00\x00\x00Email and SMS'
tRp4190
I00
S'http://www.web2py.com/book/default/chapter/08'
p4191
tp4192
a(g3742
(S's\x0e\x00\x00\x00Access Control'
tRp4193
I00
S'http://www.web2py.com/book/default/chapter/09'
p4194
tp4195
a(g3742
(S't\x08\x00\x00\x00Services'
tRp4196
I00
S'http://www.web2py.com/book/default/chapter/10'
p4197
tp4198
a(g3742
(S's\x0c\x00\x00\x00Ajax Recipes'
tRp4199
I00
S'http://www.web2py.com/book/default/chapter/11'
p4200
tp4201
a(g3742
(S's\x16\x00\x00\x00Components and Plugins'
tRp4202
I00
S'http://www.web2py.com/book/default/chapter/12'
p4203
tp4204
a(g3742
(S's\x12\x00\x00\x00Deployment Recipes'
tRp4205
I00
S'http://www.web2py.com/book/default/chapter/13'
p4206
tp4207
a(g3742
(S's\r\x00\x00\x00Other Recipes'
tRp4208
I00
S'http://www.web2py.com/book/default/chapter/14'
p4209
tp4210
a(g3742
(S's\r\x00\x00\x00Buy this book'
tRp4211
I00
S'http://stores.lulu.com/web2py'
p4212
tp4213
aasbasbasbasbasbasbasbag69
(g85
g71
NtRp4214
(dp4215
g74
(dp4216
sg83
g3856
sg76
(lp4217
g69
(g90
g71
NtRp4218
(dp4219
g74
(dp4220
sg83
g4214
sg76
(lp4221
g69
(g70
g71
NtRp4222
(dp4223
g74
(dp4224
g82
I2
ssg83
g4218
sg76
(lp4225
g69
(g78
g71
NtRp4226
(dp4227
g74
(dp4228
g82
I1
ssg83
Nsg76
(lp4229
g69
(g85
g71
NtRp4230
(dp4231
g74
(dp4232
sg83
g4226
sg76
(lp4233
g69
(g90
g71
NtRp4234
(dp4235
g74
(dp4236
sg83
g4230
sg76
(lp4237
g69
(g70
g71
NtRp4238
(dp4239
g74
(dp4240
g82
I1
ssg83
g4234
sg76
(lp4241
g3742
(S't\t\x00\x00\x00Community'
tRp4242
asbasbasbag69
(g85
g71
NtRp4243
(dp4244
g74
(dp4245
sg83
g4226
sg76
(lp4246
g69
(g90
g71
NtRp4247
(dp4248
g74
(dp4249
sg83
g4243
sg76
(lp4250
g69
(g70
g71
NtRp4251
(dp4252
g74
(dp4253
g82
I1
ssg83
g4247
sg76
(lp4254
I00
asbasbasbag69
(g85
g71
NtRp4255
(dp4256
g74
(dp4257
sg83
g4226
sg76
(lp4258
g69
(g90
g71
NtRp4259
(dp4260
g74
(dp4261
sg83
g4255
sg76
(lp4262
g69
(g70
g71
NtRp4263
(dp4264
g74
(dp4265
g82
I1
ssg83
g4259
sg76
(lp4266
Nasbasbasbag69
(g85
g71
NtRp4267
(dp4268
g74
(dp4269
sg83
g4226
sg76
(lp4270
g69
(g90
g71
NtRp4271
(dp4272
g74
(dp4273
sg83
g4267
sg76
(lp4274
g69
(g70
g71
NtRp4275
(dp4276
g74
(dp4277
g82
I1
ssg83
g4271
sg76
(lp4278
(lp4279
(g3742
(S't\x06\x00\x00\x00Groups'
tRp4280
I00
S'http://www.web2py.com/examples/default/usergroups'
p4281
tp4282
a(g3742
(S't\x07\x00\x00\x00Twitter'
tRp4283
I00
S'http://twitter.com/web2py'
p4284
tp4285
a(g3742
(S's\t\x00\x00\x00Live Chat'
tRp4286
I00
S'http://webchat.freenode.net/?channels=web2py'
p4287
tp4288
aasbasbasbasbasbasbasbag69
(g85
g71
NtRp4289
(dp4290
g74
(dp4291
sg83
g3856
sg76
(lp4292
g69
(g90
g71
NtRp4293
(dp4294
g74
(dp4295
sg83
g4289
sg76
(lp4296
g69
(g70
g71
NtRp4297
(dp4298
g74
(dp4299
g82
I2
ssg83
g4293
sg76
(lp4300
g69
(g78
g71
NtRp4301
(dp4302
g74
(dp4303
g82
I1
ssg83
Nsg76
(lp4304
g69
(g85
g71
NtRp4305
(dp4306
g74
(dp4307
sg83
g4301
sg76
(lp4308
g69
(g90
g71
NtRp4309
(dp4310
g74
(dp4311
sg83
g4305
sg76
(lp4312
g69
(g70
g71
NtRp4313
(dp4314
g74
(dp4315
g82
I1
ssg83
g4309
sg76
(lp4316
g3742
(S't\x07\x00\x00\x00Plugins'
tRp4317
asbasbasbag69
(g85
g71
NtRp4318
(dp4319
g74
(dp4320
sg83
g4301
sg76
(lp4321
g69
(g90
g71
NtRp4322
(dp4323
g74
(dp4324
sg83
g4318
sg76
(lp4325
g69
(g70
g71
NtRp4326
(dp4327
g74
(dp4328
g82
I1
ssg83
g4322
sg76
(lp4329
I00
asbasbasbag69
(g85
g71
NtRp4330
(dp4331
g74
(dp4332
sg83
g4301
sg76
(lp4333
g69
(g90
g71
NtRp4334
(dp4335
g74
(dp4336
sg83
g4330
sg76
(lp4337
g69
(g70
g71
NtRp4338
(dp4339
g74
(dp4340
g82
I1
ssg83
g4334
sg76
(lp4341
Nasbasbasbag69
(g85
g71
NtRp4342
(dp4343
g74
(dp4344
sg83
g4301
sg76
(lp4345
g69
(g90
g71
NtRp4346
(dp4347
g74
(dp4348
sg83
g4342
sg76
(lp4349
g69
(g70
g71
NtRp4350
(dp4351
g74
(dp4352
g82
I1
ssg83
g4346
sg76
(lp4353
(lp4354
(S'plugin_wiki'
p4355
I00
S'http://web2py.com/examples/default/download'
p4356
tp4357
a(g3742
(S's\r\x00\x00\x00Other Plugins'
tRp4358
I00
g4088
tp4359
a(g3742
(S's\x0e\x00\x00\x00Layout Plugins'
tRp4360
I00
g4091
tp4361
aasbasbasbasbasbasbasbasbasbasbasbasbasbasbasbasbasbasbasbag69
(g85
g71
NtRp4362
(dp4363
g74
(dp4364
sg83
g3186
sg76
(lp4365
g69
(g90
g71
NtRp4366
(dp4367
g74
(dp4368
g94
g95
ssg83
g4362
sg76
(lp4369
S'meta'
p4370
asbag69
(g90
g71
NtRp4371
(dp4372
g74
(dp4373
g101
g102
ssg83
g4362
sg76
(lp4374
S':'
asbag69
(g90
g71
NtRp4375
(dp4376
g74
(dp4377
sg83
g4362
sg76
(lp4378
g69
(g70
g71
NtRp4379
(dp4380
g74
(dp4381
g82
I5
ssg83
g4375
sg76
(lp4382
g69
(g78
g71
NtRp4383
(dp4384
g74
(dp4385
g82
I4
ssg83
Nsg76
(lp4386
g69
(g85
g71
NtRp4387
(dp4388
g74
(dp4389
sg83
g4383
sg76
(lp4390
g69
(g90
g71
NtRp4391
(dp4392
g74
(dp4393
g94
g95
ssg83
g4387
sg76
(lp4394
S'author'
p4395
asbag69
(g90
g71
NtRp4396
(dp4397
g74
(dp4398
g101
g102
ssg83
g4387
sg76
(lp4399
S':'
asbag69
(g90
g71
NtRp4400
(dp4401
g74
(dp4402
sg83
g4387
sg76
(lp4403
g69
(g70
g71
NtRp4404
(dp4405
g74
(dp4406
g82
I4
ssg83
g4400
sg76
(lp4407
S'Your Name <you@example.com>'
p4408
asbasbasbag69
(g85
g71
NtRp4409
(dp4410
g74
(dp4411
sg83
g4383
sg76
(lp4412
g69
(g90
g71
NtRp4413
(dp4414
g74
(dp4415
g94
g95
ssg83
g4409
sg76
(lp4416
S'copyright'
p4417
asbag69
(g90
g71
NtRp4418
(dp4419
g74
(dp4420
g101
g102
ssg83
g4409
sg76
(lp4421
S':'
asbag69
(g90
g71
NtRp4422
(dp4423
g74
(dp4424
sg83
g4409
sg76
(lp4425
g69
(g70
g71
NtRp4426
(dp4427
g74
(dp4428
g82
I4
ssg83
g4422
sg76
(lp4429
S'Copyright 2011'
p4430
asbasbasbag69
(g85
g71
NtRp4431
(dp4432
g74
(dp4433
sg83
g4383
sg76
(lp4434
g69
(g90
g71
NtRp4435
(dp4436
g74
(dp4437
g94
g95
ssg83
g4431
sg76
(lp4438
S'description'
p4439
asbag69
(g90
g71
NtRp4440
(dp4441
g74
(dp4442
g101
g102
ssg83
g4431
sg76
(lp4443
S':'
asbag69
(g90
g71
NtRp4444
(dp4445
g74
(dp4446
sg83
g4431
sg76
(lp4447
g69
(g70
g71
NtRp4448
(dp4449
g74
(dp4450
g82
I4
ssg83
g4444
sg76
(lp4451
S'a cool new app'
p4452
asbasbasbag69
(g85
g71
NtRp4453
(dp4454
g74
(dp4455
sg83
g4383
sg76
(lp4456
g69
(g90
g71
NtRp4457
(dp4458
g74
(dp4459
g94
g95
ssg83
g4453
sg76
(lp4460
S'generator'
p4461
asbag69
(g90
g71
NtRp4462
(dp4463
g74
(dp4464
g101
g102
ssg83
g4453
sg76
(lp4465
S':'
asbag69
(g90
g71
NtRp4466
(dp4467
g74
(dp4468
sg83
g4453
sg76
(lp4469
g69
(g70
g71
NtRp4470
(dp4471
g74
(dp4472
g82
I4
ssg83
g4466
sg76
(lp4473
S'Web2py Web Framework'
p4474
asbasbasbag69
(g85
g71
NtRp4475
(dp4476
g74
(dp4477
sg83
g4383
sg76
(lp4478
g69
(g90
g71
NtRp4479
(dp4480
g74
(dp4481
g94
g95
ssg83
g4475
sg76
(lp4482
S'keywords'
p4483
asbag69
(g90
g71
NtRp4484
(dp4485
g74
(dp4486
g101
g102
ssg83
g4475
sg76
(lp4487
S':'
asbag69
(g90
g71
NtRp4488
(dp4489
g74
(dp4490
sg83
g4475
sg76
(lp4491
g69
(g70
g71
NtRp4492
(dp4493
g74
(dp4494
g82
I4
ssg83
g4488
sg76
(lp4495
S'web2py, python, framework'
p4496
asbasbasbasbasbasbasbag69
(g85
g71
NtRp4497
(dp4498
g74
(dp4499
sg83
g3186
sg76
(lp4500
g69
(g90
g71
NtRp4501
(dp4502
g74
(dp4503
g94
g95
ssg83
g4497
sg76
(lp4504
S'postprocessing'
p4505
asbag69
(g90
g71
NtRp4506
(dp4507
g74
(dp4508
g101
g102
ssg83
g4497
sg76
(lp4509
S':'
asbag69
(g90
g71
NtRp4510
(dp4511
g74
(dp4512
sg83
g4497
sg76
(lp4513
g69
(g70
g71
NtRp4514
(dp4515
g74
(dp4516
g82
I5
ssg83
g4510
sg76
(lp4517
g69
(g78
g71
NtRp4518
(dp4519
g74
(dp4520
g82
I4
ssg83
Nsg76
(lp4521
sbasbasbasbag69
(g85
g71
NtRp4522
(dp4523
g74
(dp4524
sg83
g3186
sg76
(lp4525
g69
(g90
g71
NtRp4526
(dp4527
g74
(dp4528
g94
g95
ssg83
g4522
sg76
(lp4529
S'session_file'
p4530
asbag69
(g90
g71
NtRp4531
(dp4532
g74
(dp4533
g101
g102
ssg83
g4522
sg76
(lp4534
S':'
asbag69
(g90
g71
NtRp4535
(dp4536
g74
(dp4537
sg83
g4522
sg76
(lp4538
g69
(g70
g71
NtRp4539
(dp4540
g74
(dp4541
g82
I5
ssg83
g4535
sg76
(lp4542
S"<open file '/home/fish/Desktop/web2py/applications/vsalad/sessions/127.0.0.1-b0c9b93e-e451-4f91-a69e-ca27d345bc2e', mode 'rb+' at 0x36205d0>"
p4543
asbasbasbag69
(g85
g71
NtRp4544
(dp4545
g74
(dp4546
sg83
g3186
sg76
(lp4547
g69
(g90
g71
NtRp4548
(dp4549
g74
(dp4550
g94
g95
ssg83
g4544
sg76
(lp4551
S'session_filename'
p4552
asbag69
(g90
g71
NtRp4553
(dp4554
g74
(dp4555
g101
g102
ssg83
g4544
sg76
(lp4556
S':'
asbag69
(g90
g71
NtRp4557
(dp4558
g74
(dp4559
sg83
g4544
sg76
(lp4560
g69
(g70
g71
NtRp4561
(dp4562
g74
(dp4563
g82
I5
ssg83
g4557
sg76
(lp4564
S'/home/fish/Desktop/web2py/applications/vsalad/sessions/127.0.0.1-b0c9b93e-e451-4f91-a69e-ca27d345bc2e'
p4565
asbasbasbag69
(g85
g71
NtRp4566
(dp4567
g74
(dp4568
sg83
g3186
sg76
(lp4569
g69
(g90
g71
NtRp4570
(dp4571
g74
(dp4572
g94
g95
ssg83
g4566
sg76
(lp4573
S'session_id'
p4574
asbag69
(g90
g71
NtRp4575
(dp4576
g74
(dp4577
g101
g102
ssg83
g4566
sg76
(lp4578
S':'
asbag69
(g90
g71
NtRp4579
(dp4580
g74
(dp4581
sg83
g4566
sg76
(lp4582
g69
(g70
g71
NtRp4583
(dp4584
g74
(dp4585
g82
I5
ssg83
g4579
sg76
(lp4586
S'127.0.0.1-b0c9b93e-e451-4f91-a69e-ca27d345bc2e'
p4587
asbasbasbag69
(g85
g71
NtRp4588
(dp4589
g74
(dp4590
sg83
g3186
sg76
(lp4591
g69
(g90
g71
NtRp4592
(dp4593
g74
(dp4594
g94
g95
ssg83
g4588
sg76
(lp4595
S'session_id_name'
p4596
asbag69
(g90
g71
NtRp4597
(dp4598
g74
(dp4599
g101
g102
ssg83
g4588
sg76
(lp4600
S':'
asbag69
(g90
g71
NtRp4601
(dp4602
g74
(dp4603
sg83
g4588
sg76
(lp4604
g69
(g70
g71
NtRp4605
(dp4606
g74
(dp4607
g82
I5
ssg83
g4601
sg76
(lp4608
g3243
asbasbasbag69
(g85
g71
NtRp4609
(dp4610
g74
(dp4611
sg83
g3186
sg76
(lp4612
g69
(g90
g71
NtRp4613
(dp4614
g74
(dp4615
g94
g95
ssg83
g4609
sg76
(lp4616
S'session_locked'
p4617
asbag69
(g90
g71
NtRp4618
(dp4619
g74
(dp4620
g101
g102
ssg83
g4609
sg76
(lp4621
S':'
asbag69
(g90
g71
NtRp4622
(dp4623
g74
(dp4624
sg83
g4609
sg76
(lp4625
g69
(g70
g71
NtRp4626
(dp4627
g74
(dp4628
g82
I5
ssg83
g4622
sg76
(lp4629
g1724
asbasbasbag69
(g85
g71
NtRp4630
(dp4631
g74
(dp4632
sg83
g3186
sg76
(lp4633
g69
(g90
g71
NtRp4634
(dp4635
g74
(dp4636
g94
g95
ssg83
g4630
sg76
(lp4637
S'session_new'
p4638
asbag69
(g90
g71
NtRp4639
(dp4640
g74
(dp4641
g101
g102
ssg83
g4630
sg76
(lp4642
S':'
asbag69
(g90
g71
NtRp4643
(dp4644
g74
(dp4645
sg83
g4630
sg76
(lp4646
g69
(g70
g71
NtRp4647
(dp4648
g74
(dp4649
g82
I5
ssg83
g4643
sg76
(lp4650
g112
asbasbasbag69
(g85
g71
NtRp4651
(dp4652
g74
(dp4653
sg83
g3186
sg76
(lp4654
g69
(g90
g71
NtRp4655
(dp4656
g74
(dp4657
g94
g95
ssg83
g4651
sg76
(lp4658
S'status'
p4659
asbag69
(g90
g71
NtRp4660
(dp4661
g74
(dp4662
g101
g102
ssg83
g4651
sg76
(lp4663
S':'
asbag69
(g90
g71
NtRp4664
(dp4665
g74
(dp4666
sg83
g4651
sg76
(lp4667
g69
(g70
g71
NtRp4668
(dp4669
g74
(dp4670
g82
I5
ssg83
g4664
sg76
(lp4671
S'200'
p4672
asbasbasbag69
(g85
g71
NtRp4673
(dp4674
g74
(dp4675
sg83
g3186
sg76
(lp4676
g69
(g90
g71
NtRp4677
(dp4678
g74
(dp4679
g94
g95
ssg83
g4673
sg76
(lp4680
S'subtitle'
p4681
asbag69
(g90
g71
NtRp4682
(dp4683
g74
(dp4684
g101
g102
ssg83
g4673
sg76
(lp4685
S':'
asbag69
(g90
g71
NtRp4686
(dp4687
g74
(dp4688
sg83
g4673
sg76
(lp4689
g69
(g70
g71
NtRp4690
(dp4691
g74
(dp4692
g82
I5
ssg83
g4686
sg76
(lp4693
g3742
(S's\r\x00\x00\x00customize me!'
tRp4694
asbasbasbag69
(g85
g71
NtRp4695
(dp4696
g74
(dp4697
sg83
g3186
sg76
(lp4698
g69
(g90
g71
NtRp4699
(dp4700
g74
(dp4701
g94
g95
ssg83
g4695
sg76
(lp4702
S'title'
p4703
asbag69
(g90
g71
NtRp4704
(dp4705
g74
(dp4706
g101
g102
ssg83
g4695
sg76
(lp4707
S':'
asbag69
(g90
g71
NtRp4708
(dp4709
g74
(dp4710
sg83
g4695
sg76
(lp4711
g69
(g70
g71
NtRp4712
(dp4713
g74
(dp4714
g82
I5
ssg83
g4708
sg76
(lp4715
S'Vsalad'
p4716
asbasbasbag69
(g85
g71
NtRp4717
(dp4718
g74
(dp4719
sg83
g3186
sg76
(lp4720
g69
(g90
g71
NtRp4721
(dp4722
g74
(dp4723
g94
g95
ssg83
g4717
sg76
(lp4724
g2409
asbag69
(g90
g71
NtRp4725
(dp4726
g74
(dp4727
g101
g102
ssg83
g4717
sg76
(lp4728
S':'
asbag69
(g90
g71
NtRp4729
(dp4730
g74
(dp4731
sg83
g4717
sg76
(lp4732
g69
(g70
g71
NtRp4733
(dp4734
g74
(dp4735
g82
I5
ssg83
g4729
sg76
(lp4736
g2422
asbasbasbag69
(g85
g71
NtRp4737
(dp4738
g74
(dp4739
sg83
g3186
sg76
(lp4740
g69
(g90
g71
NtRp4741
(dp4742
g74
(dp4743
g94
g95
ssg83
g4737
sg76
(lp4744
S'view'
p4745
asbag69
(g90
g71
NtRp4746
(dp4747
g74
(dp4748
g101
g102
ssg83
g4737
sg76
(lp4749
S':'
asbag69
(g90
g71
NtRp4750
(dp4751
g74
(dp4752
sg83
g4737
sg76
(lp4753
g69
(g70
g71
NtRp4754
(dp4755
g74
(dp4756
g82
I5
ssg83
g4750
sg76
(lp4757
S'action/comments.html'
p4758
asbasbasbasbasbsS'locals'
p4759
(dp4760
g4
S"'/home/fish/Desktop/web2py/applications/vsalad/views/action/comments.html'"
p4761
sg6
S'\'response.write(\\\'<html lang="en">\\\\n<head>\\\\n    <s...ponse.write(\\\'\\\\n</body>\\\\n</html>\\\\n\\\', escape=False)\''
p4762
sssS'traceback'
p4763
S'Traceback (most recent call last):\n  File "/home/fish/Desktop/web2py/gluon/restricted.py", line 204, in restricted\n    ccode = compile2(code,layer)\n  File "/home/fish/Desktop/web2py/gluon/restricted.py", line 189, in compile2\n    return compile(code.rstrip().replace(\'\\r\\n\',\'\\n\')+\'\\n\', layer, \'exec\')\n  File "/home/fish/Desktop/web2py/applications/vsalad/views/action/comments.html", line 43\n    if count = 3:\n             ^\nSyntaxError: invalid syntax\n'
p4764
s.