(dp1
S'output'
p2
S"<type 'exceptions.IndexError'> list index out of range"
p3
sS'layer'
p4
S'/home/fish/Desktop/web2py/applications/vsalad/controllers/action.py'
p5
sS'code'
p6
S"# coding: utf8\n#TODO Sorting methods\n@service.run\ndef comments():\n    article = request.args[1] or 1\n    cmtdb = db(db.comments.article == article).select()\n    cmts = []\n    comment_mapping = {}\n    top_level = []\n\n    for r in cmtdb:\n        comments.append({'id':r.id, 'author':r.author, 'created_on':r.created_on, 'body':r.body, 'parent':r.parent_node, 'children':[]})\n        \n    for c in cmts:\n        pid = c['parent']       \n        cid = c['id']    \n        comment_mapping[cid] = c\n        if pid:\n            comment_mapping[pid]['children'].append(c)\n        else:\n            top_level.append(c)\n      \n\n\n    return dict(comments=top_level)\n\nresponse._vars=response._caller(comments)\n"
p7
sS'snapshot'
p8
(dp9
S'exception'
p10
(dp11
S'__hash__'
p12
S"<method-wrapper '__hash__' of exceptions.IndexError object>"
p13
sS'__setattr__'
p14
S"<method-wrapper '__setattr__' of exceptions.IndexError object>"
p15
sS'__reduce_ex__'
p16
S'<built-in method __reduce_ex__ of exceptions.IndexError object>'
p17
sS'__getslice__'
p18
S"<method-wrapper '__getslice__' of exceptions.IndexError object>"
p19
sS'__getitem__'
p20
S"<method-wrapper '__getitem__' of exceptions.IndexError object>"
p21
sS'__setstate__'
p22
S'<built-in method __setstate__ of exceptions.IndexError object>'
p23
sS'args'
p24
S"('list index out of range',)"
p25
sS'__reduce__'
p26
S'<built-in method __reduce__ of exceptions.IndexError object>'
p27
sS'__str__'
p28
S"<method-wrapper '__str__' of exceptions.IndexError object>"
p29
sS'__format__'
p30
S'<built-in method __format__ of exceptions.IndexError object>'
p31
sS'__getattribute__'
p32
S"<method-wrapper '__getattribute__' of exceptions.IndexError object>"
p33
sS'__class__'
p34
S"<type 'exceptions.IndexError'>"
p35
sS'__unicode__'
p36
S'<built-in method __unicode__ of exceptions.IndexError object>'
p37
sS'__delattr__'
p38
S"<method-wrapper '__delattr__' of exceptions.IndexError object>"
p39
sS'__subclasshook__'
p40
S'<built-in method __subclasshook__ of type object>'
p41
sS'__repr__'
p42
S"<method-wrapper '__repr__' of exceptions.IndexError object>"
p43
sS'__dict__'
p44
S'{}'
p45
sS'__sizeof__'
p46
S'<built-in method __sizeof__ of exceptions.IndexError object>'
p47
sS'__doc__'
p48
S"'Sequence index out of range.'"
p49
sS'__init__'
p50
S"<method-wrapper '__init__' of exceptions.IndexError object>"
p51
sS'__new__'
p52
S'<built-in method __new__ of type object>'
p53
ssS'evalue'
p54
S'list index out of range'
p55
sS'request'
p56
ccopy_reg
_reconstructor
p57
(cgluon.html
BEAUTIFY
p58
c__builtin__
object
p59
NtRp60
(dp61
S'attributes'
p62
(dp63
sS'components'
p64
(lp65
g57
(cgluon.html
TABLE
p66
g59
NtRp67
(dp68
g62
(dp69
S'level'
p70
I5
ssS'parent'
p71
Nsg64
(lp72
g57
(cgluon.html
TR
p73
g59
NtRp74
(dp75
g62
(dp76
sg71
g67
sg64
(lp77
g57
(cgluon.html
TD
p78
g59
NtRp79
(dp80
g62
(dp81
S'_style'
p82
S'font-weight:bold;vertical-align:top'
p83
ssg71
g74
sg64
(lp84
S'ajax'
p85
asbag57
(g78
g59
NtRp86
(dp87
g62
(dp88
S'_valign'
p89
S'top'
p90
ssg71
g74
sg64
(lp91
S':'
asbag57
(g78
g59
NtRp92
(dp93
g62
(dp94
sg71
g74
sg64
(lp95
g57
(g58
g59
NtRp96
(dp97
g62
(dp98
g70
I5
ssg71
g92
sg64
(lp99
S'False'
p100
asbasbasbag57
(g73
g59
NtRp101
(dp102
g62
(dp103
sg71
g67
sg64
(lp104
g57
(g78
g59
NtRp105
(dp106
g62
(dp107
g82
g83
ssg71
g101
sg64
(lp108
S'application'
p109
asbag57
(g78
g59
NtRp110
(dp111
g62
(dp112
g89
g90
ssg71
g101
sg64
(lp113
S':'
asbag57
(g78
g59
NtRp114
(dp115
g62
(dp116
sg71
g101
sg64
(lp117
g57
(g58
g59
NtRp118
(dp119
g62
(dp120
g70
I5
ssg71
g114
sg64
(lp121
S'vsalad'
p122
asbasbasbag57
(g73
g59
NtRp123
(dp124
g62
(dp125
sg71
g67
sg64
(lp126
g57
(g78
g59
NtRp127
(dp128
g62
(dp129
g82
g83
ssg71
g123
sg64
(lp130
g24
asbag57
(g78
g59
NtRp131
(dp132
g62
(dp133
g89
g90
ssg71
g123
sg64
(lp134
S':'
asbag57
(g78
g59
NtRp135
(dp136
g62
(dp137
sg71
g123
sg64
(lp138
g57
(g58
g59
NtRp139
(dp140
g62
(dp141
g70
I5
ssg71
g135
sg64
(lp142
g57
(g66
g59
NtRp143
(dp144
g62
(dp145
g70
I4
ssg71
Nsg64
(lp146
sbasbasbasbag57
(g73
g59
NtRp147
(dp148
g62
(dp149
sg71
g67
sg64
(lp150
g57
(g78
g59
NtRp151
(dp152
g62
(dp153
g82
g83
ssg71
g147
sg64
(lp154
S'body'
p155
asbag57
(g78
g59
NtRp156
(dp157
g62
(dp158
g89
g90
ssg71
g147
sg64
(lp159
S':'
asbag57
(g78
g59
NtRp160
(dp161
g62
(dp162
sg71
g147
sg64
(lp163
g57
(g58
g59
NtRp164
(dp165
g62
(dp166
g70
I5
ssg71
g160
sg64
(lp167
S'<cStringIO.StringO object at 0x27bf8b8>'
p168
asbasbasbag57
(g73
g59
NtRp169
(dp170
g62
(dp171
sg71
g67
sg64
(lp172
g57
(g78
g59
NtRp173
(dp174
g62
(dp175
g82
g83
ssg71
g169
sg64
(lp176
S'client'
p177
asbag57
(g78
g59
NtRp178
(dp179
g62
(dp180
g89
g90
ssg71
g169
sg64
(lp181
S':'
asbag57
(g78
g59
NtRp182
(dp183
g62
(dp184
sg71
g169
sg64
(lp185
g57
(g58
g59
NtRp186
(dp187
g62
(dp188
g70
I5
ssg71
g182
sg64
(lp189
S'127.0.0.1'
p190
asbasbasbag57
(g73
g59
NtRp191
(dp192
g62
(dp193
sg71
g67
sg64
(lp194
g57
(g78
g59
NtRp195
(dp196
g62
(dp197
g82
g83
ssg71
g191
sg64
(lp198
S'controller'
p199
asbag57
(g78
g59
NtRp200
(dp201
g62
(dp202
g89
g90
ssg71
g191
sg64
(lp203
S':'
asbag57
(g78
g59
NtRp204
(dp205
g62
(dp206
sg71
g191
sg64
(lp207
g57
(g58
g59
NtRp208
(dp209
g62
(dp210
g70
I5
ssg71
g204
sg64
(lp211
S'action'
p212
asbasbasbag57
(g73
g59
NtRp213
(dp214
g62
(dp215
sg71
g67
sg64
(lp216
g57
(g78
g59
NtRp217
(dp218
g62
(dp219
g82
g83
ssg71
g213
sg64
(lp220
S'cookies'
p221
asbag57
(g78
g59
NtRp222
(dp223
g62
(dp224
g89
g90
ssg71
g213
sg64
(lp225
S':'
asbag57
(g78
g59
NtRp226
(dp227
g62
(dp228
sg71
g213
sg64
(lp229
g57
(g58
g59
NtRp230
(dp231
g62
(dp232
g70
I5
ssg71
g226
sg64
(lp233
g57
(g66
g59
NtRp234
(dp235
g62
(dp236
g70
I4
ssg71
Nsg64
(lp237
g57
(g73
g59
NtRp238
(dp239
g62
(dp240
sg71
g234
sg64
(lp241
g57
(g78
g59
NtRp242
(dp243
g62
(dp244
g82
g83
ssg71
g238
sg64
(lp245
S'session_id_admin'
p246
asbag57
(g78
g59
NtRp247
(dp248
g62
(dp249
g89
g90
ssg71
g238
sg64
(lp250
S':'
asbag57
(g78
g59
NtRp251
(dp252
g62
(dp253
sg71
g238
sg64
(lp254
g57
(g58
g59
NtRp255
(dp256
g62
(dp257
g70
I4
ssg71
g251
sg64
(lp258
g57
(g66
g59
NtRp259
(dp260
g62
(dp261
g70
I3
ssg71
Nsg64
(lp262
g57
(g73
g59
NtRp263
(dp264
g62
(dp265
sg71
g259
sg64
(lp266
g57
(g78
g59
NtRp267
(dp268
g62
(dp269
g82
g83
ssg71
g263
sg64
(lp270
S'comment'
p271
asbag57
(g78
g59
NtRp272
(dp273
g62
(dp274
g89
g90
ssg71
g263
sg64
(lp275
S':'
asbag57
(g78
g59
NtRp276
(dp277
g62
(dp278
sg71
g263
sg64
(lp279
g57
(g58
g59
NtRp280
(dp281
g62
(dp282
g70
I3
ssg71
g276
sg64
(lp283
S''
asbasbasbag57
(g73
g59
NtRp284
(dp285
g62
(dp286
sg71
g259
sg64
(lp287
g57
(g78
g59
NtRp288
(dp289
g62
(dp290
g82
g83
ssg71
g284
sg64
(lp291
S'domain'
p292
asbag57
(g78
g59
NtRp293
(dp294
g62
(dp295
g89
g90
ssg71
g284
sg64
(lp296
S':'
asbag57
(g78
g59
NtRp297
(dp298
g62
(dp299
sg71
g284
sg64
(lp300
g57
(g58
g59
NtRp301
(dp302
g62
(dp303
g70
I3
ssg71
g297
sg64
(lp304
S''
asbasbasbag57
(g73
g59
NtRp305
(dp306
g62
(dp307
sg71
g259
sg64
(lp308
g57
(g78
g59
NtRp309
(dp310
g62
(dp311
g82
g83
ssg71
g305
sg64
(lp312
S'expires'
p313
asbag57
(g78
g59
NtRp314
(dp315
g62
(dp316
g89
g90
ssg71
g305
sg64
(lp317
S':'
asbag57
(g78
g59
NtRp318
(dp319
g62
(dp320
sg71
g305
sg64
(lp321
g57
(g58
g59
NtRp322
(dp323
g62
(dp324
g70
I3
ssg71
g318
sg64
(lp325
S''
asbasbasbag57
(g73
g59
NtRp326
(dp327
g62
(dp328
sg71
g259
sg64
(lp329
g57
(g78
g59
NtRp330
(dp331
g62
(dp332
g82
g83
ssg71
g326
sg64
(lp333
S'httponly'
p334
asbag57
(g78
g59
NtRp335
(dp336
g62
(dp337
g89
g90
ssg71
g326
sg64
(lp338
S':'
asbag57
(g78
g59
NtRp339
(dp340
g62
(dp341
sg71
g326
sg64
(lp342
g57
(g58
g59
NtRp343
(dp344
g62
(dp345
g70
I3
ssg71
g339
sg64
(lp346
S''
asbasbasbag57
(g73
g59
NtRp347
(dp348
g62
(dp349
sg71
g259
sg64
(lp350
g57
(g78
g59
NtRp351
(dp352
g62
(dp353
g82
g83
ssg71
g347
sg64
(lp354
S'max-age'
p355
asbag57
(g78
g59
NtRp356
(dp357
g62
(dp358
g89
g90
ssg71
g347
sg64
(lp359
S':'
asbag57
(g78
g59
NtRp360
(dp361
g62
(dp362
sg71
g347
sg64
(lp363
g57
(g58
g59
NtRp364
(dp365
g62
(dp366
g70
I3
ssg71
g360
sg64
(lp367
S''
asbasbasbag57
(g73
g59
NtRp368
(dp369
g62
(dp370
sg71
g259
sg64
(lp371
g57
(g78
g59
NtRp372
(dp373
g62
(dp374
g82
g83
ssg71
g368
sg64
(lp375
S'path'
p376
asbag57
(g78
g59
NtRp377
(dp378
g62
(dp379
g89
g90
ssg71
g368
sg64
(lp380
S':'
asbag57
(g78
g59
NtRp381
(dp382
g62
(dp383
sg71
g368
sg64
(lp384
g57
(g58
g59
NtRp385
(dp386
g62
(dp387
g70
I3
ssg71
g381
sg64
(lp388
S''
asbasbasbag57
(g73
g59
NtRp389
(dp390
g62
(dp391
sg71
g259
sg64
(lp392
g57
(g78
g59
NtRp393
(dp394
g62
(dp395
g82
g83
ssg71
g389
sg64
(lp396
S'secure'
p397
asbag57
(g78
g59
NtRp398
(dp399
g62
(dp400
g89
g90
ssg71
g389
sg64
(lp401
S':'
asbag57
(g78
g59
NtRp402
(dp403
g62
(dp404
sg71
g389
sg64
(lp405
g57
(g58
g59
NtRp406
(dp407
g62
(dp408
g70
I3
ssg71
g402
sg64
(lp409
S''
asbasbasbag57
(g73
g59
NtRp410
(dp411
g62
(dp412
sg71
g259
sg64
(lp413
g57
(g78
g59
NtRp414
(dp415
g62
(dp416
g82
g83
ssg71
g410
sg64
(lp417
S'version'
p418
asbag57
(g78
g59
NtRp419
(dp420
g62
(dp421
g89
g90
ssg71
g410
sg64
(lp422
S':'
asbag57
(g78
g59
NtRp423
(dp424
g62
(dp425
sg71
g410
sg64
(lp426
g57
(g58
g59
NtRp427
(dp428
g62
(dp429
g70
I3
ssg71
g423
sg64
(lp430
S''
asbasbasbasbasbasbasbag57
(g73
g59
NtRp431
(dp432
g62
(dp433
sg71
g234
sg64
(lp434
g57
(g78
g59
NtRp435
(dp436
g62
(dp437
g82
g83
ssg71
g431
sg64
(lp438
S'session_id_vsalad'
p439
asbag57
(g78
g59
NtRp440
(dp441
g62
(dp442
g89
g90
ssg71
g431
sg64
(lp443
S':'
asbag57
(g78
g59
NtRp444
(dp445
g62
(dp446
sg71
g431
sg64
(lp447
g57
(g58
g59
NtRp448
(dp449
g62
(dp450
g70
I4
ssg71
g444
sg64
(lp451
g57
(g66
g59
NtRp452
(dp453
g62
(dp454
g70
I3
ssg71
Nsg64
(lp455
g57
(g73
g59
NtRp456
(dp457
g62
(dp458
sg71
g452
sg64
(lp459
g57
(g78
g59
NtRp460
(dp461
g62
(dp462
g82
g83
ssg71
g456
sg64
(lp463
g271
asbag57
(g78
g59
NtRp464
(dp465
g62
(dp466
g89
g90
ssg71
g456
sg64
(lp467
S':'
asbag57
(g78
g59
NtRp468
(dp469
g62
(dp470
sg71
g456
sg64
(lp471
g57
(g58
g59
NtRp472
(dp473
g62
(dp474
g70
I3
ssg71
g468
sg64
(lp475
S''
asbasbasbag57
(g73
g59
NtRp476
(dp477
g62
(dp478
sg71
g452
sg64
(lp479
g57
(g78
g59
NtRp480
(dp481
g62
(dp482
g82
g83
ssg71
g476
sg64
(lp483
g292
asbag57
(g78
g59
NtRp484
(dp485
g62
(dp486
g89
g90
ssg71
g476
sg64
(lp487
S':'
asbag57
(g78
g59
NtRp488
(dp489
g62
(dp490
sg71
g476
sg64
(lp491
g57
(g58
g59
NtRp492
(dp493
g62
(dp494
g70
I3
ssg71
g488
sg64
(lp495
S''
asbasbasbag57
(g73
g59
NtRp496
(dp497
g62
(dp498
sg71
g452
sg64
(lp499
g57
(g78
g59
NtRp500
(dp501
g62
(dp502
g82
g83
ssg71
g496
sg64
(lp503
g313
asbag57
(g78
g59
NtRp504
(dp505
g62
(dp506
g89
g90
ssg71
g496
sg64
(lp507
S':'
asbag57
(g78
g59
NtRp508
(dp509
g62
(dp510
sg71
g496
sg64
(lp511
g57
(g58
g59
NtRp512
(dp513
g62
(dp514
g70
I3
ssg71
g508
sg64
(lp515
S''
asbasbasbag57
(g73
g59
NtRp516
(dp517
g62
(dp518
sg71
g452
sg64
(lp519
g57
(g78
g59
NtRp520
(dp521
g62
(dp522
g82
g83
ssg71
g516
sg64
(lp523
g334
asbag57
(g78
g59
NtRp524
(dp525
g62
(dp526
g89
g90
ssg71
g516
sg64
(lp527
S':'
asbag57
(g78
g59
NtRp528
(dp529
g62
(dp530
sg71
g516
sg64
(lp531
g57
(g58
g59
NtRp532
(dp533
g62
(dp534
g70
I3
ssg71
g528
sg64
(lp535
S''
asbasbasbag57
(g73
g59
NtRp536
(dp537
g62
(dp538
sg71
g452
sg64
(lp539
g57
(g78
g59
NtRp540
(dp541
g62
(dp542
g82
g83
ssg71
g536
sg64
(lp543
g355
asbag57
(g78
g59
NtRp544
(dp545
g62
(dp546
g89
g90
ssg71
g536
sg64
(lp547
S':'
asbag57
(g78
g59
NtRp548
(dp549
g62
(dp550
sg71
g536
sg64
(lp551
g57
(g58
g59
NtRp552
(dp553
g62
(dp554
g70
I3
ssg71
g548
sg64
(lp555
S''
asbasbasbag57
(g73
g59
NtRp556
(dp557
g62
(dp558
sg71
g452
sg64
(lp559
g57
(g78
g59
NtRp560
(dp561
g62
(dp562
g82
g83
ssg71
g556
sg64
(lp563
g376
asbag57
(g78
g59
NtRp564
(dp565
g62
(dp566
g89
g90
ssg71
g556
sg64
(lp567
S':'
asbag57
(g78
g59
NtRp568
(dp569
g62
(dp570
sg71
g556
sg64
(lp571
g57
(g58
g59
NtRp572
(dp573
g62
(dp574
g70
I3
ssg71
g568
sg64
(lp575
S''
asbasbasbag57
(g73
g59
NtRp576
(dp577
g62
(dp578
sg71
g452
sg64
(lp579
g57
(g78
g59
NtRp580
(dp581
g62
(dp582
g82
g83
ssg71
g576
sg64
(lp583
g397
asbag57
(g78
g59
NtRp584
(dp585
g62
(dp586
g89
g90
ssg71
g576
sg64
(lp587
S':'
asbag57
(g78
g59
NtRp588
(dp589
g62
(dp590
sg71
g576
sg64
(lp591
g57
(g58
g59
NtRp592
(dp593
g62
(dp594
g70
I3
ssg71
g588
sg64
(lp595
S''
asbasbasbag57
(g73
g59
NtRp596
(dp597
g62
(dp598
sg71
g452
sg64
(lp599
g57
(g78
g59
NtRp600
(dp601
g62
(dp602
g82
g83
ssg71
g596
sg64
(lp603
g418
asbag57
(g78
g59
NtRp604
(dp605
g62
(dp606
g89
g90
ssg71
g596
sg64
(lp607
S':'
asbag57
(g78
g59
NtRp608
(dp609
g62
(dp610
sg71
g596
sg64
(lp611
g57
(g58
g59
NtRp612
(dp613
g62
(dp614
g70
I3
ssg71
g608
sg64
(lp615
S''
asbasbasbasbasbasbasbag57
(g73
g59
NtRp616
(dp617
g62
(dp618
sg71
g234
sg64
(lp619
g57
(g78
g59
NtRp620
(dp621
g62
(dp622
g82
g83
ssg71
g616
sg64
(lp623
S'session_id_welcome'
p624
asbag57
(g78
g59
NtRp625
(dp626
g62
(dp627
g89
g90
ssg71
g616
sg64
(lp628
S':'
asbag57
(g78
g59
NtRp629
(dp630
g62
(dp631
sg71
g616
sg64
(lp632
g57
(g58
g59
NtRp633
(dp634
g62
(dp635
g70
I4
ssg71
g629
sg64
(lp636
g57
(g66
g59
NtRp637
(dp638
g62
(dp639
g70
I3
ssg71
Nsg64
(lp640
g57
(g73
g59
NtRp641
(dp642
g62
(dp643
sg71
g637
sg64
(lp644
g57
(g78
g59
NtRp645
(dp646
g62
(dp647
g82
g83
ssg71
g641
sg64
(lp648
g271
asbag57
(g78
g59
NtRp649
(dp650
g62
(dp651
g89
g90
ssg71
g641
sg64
(lp652
S':'
asbag57
(g78
g59
NtRp653
(dp654
g62
(dp655
sg71
g641
sg64
(lp656
g57
(g58
g59
NtRp657
(dp658
g62
(dp659
g70
I3
ssg71
g653
sg64
(lp660
S''
asbasbasbag57
(g73
g59
NtRp661
(dp662
g62
(dp663
sg71
g637
sg64
(lp664
g57
(g78
g59
NtRp665
(dp666
g62
(dp667
g82
g83
ssg71
g661
sg64
(lp668
g292
asbag57
(g78
g59
NtRp669
(dp670
g62
(dp671
g89
g90
ssg71
g661
sg64
(lp672
S':'
asbag57
(g78
g59
NtRp673
(dp674
g62
(dp675
sg71
g661
sg64
(lp676
g57
(g58
g59
NtRp677
(dp678
g62
(dp679
g70
I3
ssg71
g673
sg64
(lp680
S''
asbasbasbag57
(g73
g59
NtRp681
(dp682
g62
(dp683
sg71
g637
sg64
(lp684
g57
(g78
g59
NtRp685
(dp686
g62
(dp687
g82
g83
ssg71
g681
sg64
(lp688
g313
asbag57
(g78
g59
NtRp689
(dp690
g62
(dp691
g89
g90
ssg71
g681
sg64
(lp692
S':'
asbag57
(g78
g59
NtRp693
(dp694
g62
(dp695
sg71
g681
sg64
(lp696
g57
(g58
g59
NtRp697
(dp698
g62
(dp699
g70
I3
ssg71
g693
sg64
(lp700
S''
asbasbasbag57
(g73
g59
NtRp701
(dp702
g62
(dp703
sg71
g637
sg64
(lp704
g57
(g78
g59
NtRp705
(dp706
g62
(dp707
g82
g83
ssg71
g701
sg64
(lp708
g334
asbag57
(g78
g59
NtRp709
(dp710
g62
(dp711
g89
g90
ssg71
g701
sg64
(lp712
S':'
asbag57
(g78
g59
NtRp713
(dp714
g62
(dp715
sg71
g701
sg64
(lp716
g57
(g58
g59
NtRp717
(dp718
g62
(dp719
g70
I3
ssg71
g713
sg64
(lp720
S''
asbasbasbag57
(g73
g59
NtRp721
(dp722
g62
(dp723
sg71
g637
sg64
(lp724
g57
(g78
g59
NtRp725
(dp726
g62
(dp727
g82
g83
ssg71
g721
sg64
(lp728
g355
asbag57
(g78
g59
NtRp729
(dp730
g62
(dp731
g89
g90
ssg71
g721
sg64
(lp732
S':'
asbag57
(g78
g59
NtRp733
(dp734
g62
(dp735
sg71
g721
sg64
(lp736
g57
(g58
g59
NtRp737
(dp738
g62
(dp739
g70
I3
ssg71
g733
sg64
(lp740
S''
asbasbasbag57
(g73
g59
NtRp741
(dp742
g62
(dp743
sg71
g637
sg64
(lp744
g57
(g78
g59
NtRp745
(dp746
g62
(dp747
g82
g83
ssg71
g741
sg64
(lp748
g376
asbag57
(g78
g59
NtRp749
(dp750
g62
(dp751
g89
g90
ssg71
g741
sg64
(lp752
S':'
asbag57
(g78
g59
NtRp753
(dp754
g62
(dp755
sg71
g741
sg64
(lp756
g57
(g58
g59
NtRp757
(dp758
g62
(dp759
g70
I3
ssg71
g753
sg64
(lp760
S''
asbasbasbag57
(g73
g59
NtRp761
(dp762
g62
(dp763
sg71
g637
sg64
(lp764
g57
(g78
g59
NtRp765
(dp766
g62
(dp767
g82
g83
ssg71
g761
sg64
(lp768
g397
asbag57
(g78
g59
NtRp769
(dp770
g62
(dp771
g89
g90
ssg71
g761
sg64
(lp772
S':'
asbag57
(g78
g59
NtRp773
(dp774
g62
(dp775
sg71
g761
sg64
(lp776
g57
(g58
g59
NtRp777
(dp778
g62
(dp779
g70
I3
ssg71
g773
sg64
(lp780
S''
asbasbasbag57
(g73
g59
NtRp781
(dp782
g62
(dp783
sg71
g637
sg64
(lp784
g57
(g78
g59
NtRp785
(dp786
g62
(dp787
g82
g83
ssg71
g781
sg64
(lp788
g418
asbag57
(g78
g59
NtRp789
(dp790
g62
(dp791
g89
g90
ssg71
g781
sg64
(lp792
S':'
asbag57
(g78
g59
NtRp793
(dp794
g62
(dp795
sg71
g781
sg64
(lp796
g57
(g58
g59
NtRp797
(dp798
g62
(dp799
g70
I3
ssg71
g793
sg64
(lp800
S''
asbasbasbasbasbasbasbasbasbasbasbag57
(g73
g59
NtRp801
(dp802
g62
(dp803
sg71
g67
sg64
(lp804
g57
(g78
g59
NtRp805
(dp806
g62
(dp807
g82
g83
ssg71
g801
sg64
(lp808
S'env'
p809
asbag57
(g78
g59
NtRp810
(dp811
g62
(dp812
g89
g90
ssg71
g801
sg64
(lp813
S':'
asbag57
(g78
g59
NtRp814
(dp815
g62
(dp816
sg71
g801
sg64
(lp817
g57
(g58
g59
NtRp818
(dp819
g62
(dp820
g70
I5
ssg71
g814
sg64
(lp821
g57
(g66
g59
NtRp822
(dp823
g62
(dp824
g70
I4
ssg71
Nsg64
(lp825
g57
(g73
g59
NtRp826
(dp827
g62
(dp828
sg71
g822
sg64
(lp829
g57
(g78
g59
NtRp830
(dp831
g62
(dp832
g82
g83
ssg71
g826
sg64
(lp833
S'app_folders'
p834
asbag57
(g78
g59
NtRp835
(dp836
g62
(dp837
g89
g90
ssg71
g826
sg64
(lp838
S':'
asbag57
(g78
g59
NtRp839
(dp840
g62
(dp841
sg71
g826
sg64
(lp842
g57
(g58
g59
NtRp843
(dp844
g62
(dp845
g70
I4
ssg71
g839
sg64
(lp846
S"set(['/home/fish/Desktop/web2py/applications/admin/', '/home/fish/Desktop/web2py/applications/welcome/', '/home/fish/Desktop/web2py/applications/vsalad/'])"
p847
asbasbasbag57
(g73
g59
NtRp848
(dp849
g62
(dp850
sg71
g822
sg64
(lp851
g57
(g78
g59
NtRp852
(dp853
g62
(dp854
g82
g83
ssg71
g848
sg64
(lp855
S'applications_parent'
p856
asbag57
(g78
g59
NtRp857
(dp858
g62
(dp859
g89
g90
ssg71
g848
sg64
(lp860
S':'
asbag57
(g78
g59
NtRp861
(dp862
g62
(dp863
sg71
g848
sg64
(lp864
g57
(g58
g59
NtRp865
(dp866
g62
(dp867
g70
I4
ssg71
g861
sg64
(lp868
S'/home/fish/Desktop/web2py'
p869
asbasbasbag57
(g73
g59
NtRp870
(dp871
g62
(dp872
sg71
g822
sg64
(lp873
g57
(g78
g59
NtRp874
(dp875
g62
(dp876
g82
g83
ssg71
g870
sg64
(lp877
S'cmd_args'
p878
asbag57
(g78
g59
NtRp879
(dp880
g62
(dp881
g89
g90
ssg71
g870
sg64
(lp882
S':'
asbag57
(g78
g59
NtRp883
(dp884
g62
(dp885
sg71
g870
sg64
(lp886
g57
(g58
g59
NtRp887
(dp888
g62
(dp889
g70
I4
ssg71
g883
sg64
(lp890
g57
(g66
g59
NtRp891
(dp892
g62
(dp893
g70
I3
ssg71
Nsg64
(lp894
sbasbasbasbag57
(g73
g59
NtRp895
(dp896
g62
(dp897
sg71
g822
sg64
(lp898
g57
(g78
g59
NtRp899
(dp900
g62
(dp901
g82
g83
ssg71
g895
sg64
(lp902
S'cmd_options'
p903
asbag57
(g78
g59
NtRp904
(dp905
g62
(dp906
g89
g90
ssg71
g895
sg64
(lp907
S':'
asbag57
(g78
g59
NtRp908
(dp909
g62
(dp910
sg71
g895
sg64
(lp911
g57
(g58
g59
NtRp912
(dp913
g62
(dp914
g70
I4
ssg71
g908
sg64
(lp915
S"<Values at 0x20375a8: {'verbose': False, 'ip': '127.0.0.1', 'shutdown_timeout': 5, 'taskbar': False, 'nocron': False, 'pid_filename': 'httpserver.pid', 'maxthreads': None, 'softcron': False, 'server_name': 'Master-Fish', 'bpython': False, 'nogui': False, 'port': 8000, 'extcron': False, 'debuglevel': 30, 'test': None, 'folder': '/home/fish/Desktop/web2py', 'config': '', 'import_models': False, 'winservice': '', 'shell': None, 'run': '', 'log_filename': 'httpserver.log', 'args': [''], 'socket_timeout': 5, 'ssl_ca_certificate': None, 'scheduler': None, 'profiler_filename': None, 'ssl_private_key': '', 'password': '<ask>', 'request_queue_size': 5, 'ssl_certificate': '', 'cronjob': False, 'numthreads': None, 'quiet': False, 'interfaces': None, 'minthreads': None, 'timeout': 10, 'plain': False, 'nobanner': False}>"
p916
asbasbasbag57
(g73
g59
NtRp917
(dp918
g62
(dp919
sg71
g822
sg64
(lp920
g57
(g78
g59
NtRp921
(dp922
g62
(dp923
g82
g83
ssg71
g917
sg64
(lp924
S'db_sessions'
p925
asbag57
(g78
g59
NtRp926
(dp927
g62
(dp928
g89
g90
ssg71
g917
sg64
(lp929
S':'
asbag57
(g78
g59
NtRp930
(dp931
g62
(dp932
sg71
g917
sg64
(lp933
g57
(g58
g59
NtRp934
(dp935
g62
(dp936
g70
I4
ssg71
g930
sg64
(lp937
S'set([])'
p938
asbasbasbag57
(g73
g59
NtRp939
(dp940
g62
(dp941
sg71
g822
sg64
(lp942
g57
(g78
g59
NtRp943
(dp944
g62
(dp945
g82
g83
ssg71
g939
sg64
(lp946
S'debugging'
p947
asbag57
(g78
g59
NtRp948
(dp949
g62
(dp950
g89
g90
ssg71
g939
sg64
(lp951
S':'
asbag57
(g78
g59
NtRp952
(dp953
g62
(dp954
sg71
g939
sg64
(lp955
g57
(g58
g59
NtRp956
(dp957
g62
(dp958
g70
I4
ssg71
g952
sg64
(lp959
g100
asbasbasbag57
(g73
g59
NtRp960
(dp961
g62
(dp962
sg71
g822
sg64
(lp963
g57
(g78
g59
NtRp964
(dp965
g62
(dp966
g82
g83
ssg71
g960
sg64
(lp967
S'gluon_parent'
p968
asbag57
(g78
g59
NtRp969
(dp970
g62
(dp971
g89
g90
ssg71
g960
sg64
(lp972
S':'
asbag57
(g78
g59
NtRp973
(dp974
g62
(dp975
sg71
g960
sg64
(lp976
g57
(g58
g59
NtRp977
(dp978
g62
(dp979
g70
I4
ssg71
g973
sg64
(lp980
S'/home/fish/Desktop/web2py'
p981
asbasbasbag57
(g73
g59
NtRp982
(dp983
g62
(dp984
sg71
g822
sg64
(lp985
g57
(g78
g59
NtRp986
(dp987
g62
(dp988
g82
g83
ssg71
g982
sg64
(lp989
S'http_accept'
p990
asbag57
(g78
g59
NtRp991
(dp992
g62
(dp993
g89
g90
ssg71
g982
sg64
(lp994
S':'
asbag57
(g78
g59
NtRp995
(dp996
g62
(dp997
sg71
g982
sg64
(lp998
g57
(g58
g59
NtRp999
(dp1000
g62
(dp1001
g70
I4
ssg71
g995
sg64
(lp1002
S'text/html,application/xhtml+xml,application/xml;q=0.9,*/*;q=0.8'
p1003
asbasbasbag57
(g73
g59
NtRp1004
(dp1005
g62
(dp1006
sg71
g822
sg64
(lp1007
g57
(g78
g59
NtRp1008
(dp1009
g62
(dp1010
g82
g83
ssg71
g1004
sg64
(lp1011
S'http_accept_charset'
p1012
asbag57
(g78
g59
NtRp1013
(dp1014
g62
(dp1015
g89
g90
ssg71
g1004
sg64
(lp1016
S':'
asbag57
(g78
g59
NtRp1017
(dp1018
g62
(dp1019
sg71
g1004
sg64
(lp1020
g57
(g58
g59
NtRp1021
(dp1022
g62
(dp1023
g70
I4
ssg71
g1017
sg64
(lp1024
S'ISO-8859-1,utf-8;q=0.7,*;q=0.3'
p1025
asbasbasbag57
(g73
g59
NtRp1026
(dp1027
g62
(dp1028
sg71
g822
sg64
(lp1029
g57
(g78
g59
NtRp1030
(dp1031
g62
(dp1032
g82
g83
ssg71
g1026
sg64
(lp1033
S'http_accept_encoding'
p1034
asbag57
(g78
g59
NtRp1035
(dp1036
g62
(dp1037
g89
g90
ssg71
g1026
sg64
(lp1038
S':'
asbag57
(g78
g59
NtRp1039
(dp1040
g62
(dp1041
sg71
g1026
sg64
(lp1042
g57
(g58
g59
NtRp1043
(dp1044
g62
(dp1045
g70
I4
ssg71
g1039
sg64
(lp1046
S'gzip,deflate,sdch'
p1047
asbasbasbag57
(g73
g59
NtRp1048
(dp1049
g62
(dp1050
sg71
g822
sg64
(lp1051
g57
(g78
g59
NtRp1052
(dp1053
g62
(dp1054
g82
g83
ssg71
g1048
sg64
(lp1055
S'http_accept_language'
p1056
asbag57
(g78
g59
NtRp1057
(dp1058
g62
(dp1059
g89
g90
ssg71
g1048
sg64
(lp1060
S':'
asbag57
(g78
g59
NtRp1061
(dp1062
g62
(dp1063
sg71
g1048
sg64
(lp1064
g57
(g58
g59
NtRp1065
(dp1066
g62
(dp1067
g70
I4
ssg71
g1061
sg64
(lp1068
S'en-US,en;q=0.8,fr;q=0.6'
p1069
asbasbasbag57
(g73
g59
NtRp1070
(dp1071
g62
(dp1072
sg71
g822
sg64
(lp1073
g57
(g78
g59
NtRp1074
(dp1075
g62
(dp1076
g82
g83
ssg71
g1070
sg64
(lp1077
S'http_connection'
p1078
asbag57
(g78
g59
NtRp1079
(dp1080
g62
(dp1081
g89
g90
ssg71
g1070
sg64
(lp1082
S':'
asbag57
(g78
g59
NtRp1083
(dp1084
g62
(dp1085
sg71
g1070
sg64
(lp1086
g57
(g58
g59
NtRp1087
(dp1088
g62
(dp1089
g70
I4
ssg71
g1083
sg64
(lp1090
S'keep-alive'
p1091
asbasbasbag57
(g73
g59
NtRp1092
(dp1093
g62
(dp1094
sg71
g822
sg64
(lp1095
g57
(g78
g59
NtRp1096
(dp1097
g62
(dp1098
g82
g83
ssg71
g1092
sg64
(lp1099
S'http_cookie'
p1100
asbag57
(g78
g59
NtRp1101
(dp1102
g62
(dp1103
g89
g90
ssg71
g1092
sg64
(lp1104
S':'
asbag57
(g78
g59
NtRp1105
(dp1106
g62
(dp1107
sg71
g1092
sg64
(lp1108
g57
(g58
g59
NtRp1109
(dp1110
g62
(dp1111
g70
I4
ssg71
g1105
sg64
(lp1112
S'session_id_welcome=127.0.0.1-58a1de35-06e9-4f78-871a-bb07c5d631a0; session_id_vsalad=127.0.0.1-9206053d-789b-496f-9d52-f991054c1580; session_id_admin=127.0.0.1-5e1e78e7-16be-44ef-bb9c-a2506e199775'
p1113
asbasbasbag57
(g73
g59
NtRp1114
(dp1115
g62
(dp1116
sg71
g822
sg64
(lp1117
g57
(g78
g59
NtRp1118
(dp1119
g62
(dp1120
g82
g83
ssg71
g1114
sg64
(lp1121
S'http_host'
p1122
asbag57
(g78
g59
NtRp1123
(dp1124
g62
(dp1125
g89
g90
ssg71
g1114
sg64
(lp1126
S':'
asbag57
(g78
g59
NtRp1127
(dp1128
g62
(dp1129
sg71
g1114
sg64
(lp1130
g57
(g58
g59
NtRp1131
(dp1132
g62
(dp1133
g70
I4
ssg71
g1127
sg64
(lp1134
S'127.0.0.1:8000'
p1135
asbasbasbag57
(g73
g59
NtRp1136
(dp1137
g62
(dp1138
sg71
g822
sg64
(lp1139
g57
(g78
g59
NtRp1140
(dp1141
g62
(dp1142
g82
g83
ssg71
g1136
sg64
(lp1143
S'http_user_agent'
p1144
asbag57
(g78
g59
NtRp1145
(dp1146
g62
(dp1147
g89
g90
ssg71
g1136
sg64
(lp1148
S':'
asbag57
(g78
g59
NtRp1149
(dp1150
g62
(dp1151
sg71
g1136
sg64
(lp1152
g57
(g58
g59
NtRp1153
(dp1154
g62
(dp1155
g70
I4
ssg71
g1149
sg64
(lp1156
S'Mozilla/5.0 (X11; Linux x86_64) AppleWebKit/535.19 (KHTML, like Gecko) Chrome/18.0.1025.151 Safari/535.19'
p1157
asbasbasbag57
(g73
g59
NtRp1158
(dp1159
g62
(dp1160
sg71
g822
sg64
(lp1161
g57
(g78
g59
NtRp1162
(dp1163
g62
(dp1164
g82
g83
ssg71
g1158
sg64
(lp1165
S'is_jython'
p1166
asbag57
(g78
g59
NtRp1167
(dp1168
g62
(dp1169
g89
g90
ssg71
g1158
sg64
(lp1170
S':'
asbag57
(g78
g59
NtRp1171
(dp1172
g62
(dp1173
sg71
g1158
sg64
(lp1174
g57
(g58
g59
NtRp1175
(dp1176
g62
(dp1177
g70
I4
ssg71
g1171
sg64
(lp1178
g100
asbasbasbag57
(g73
g59
NtRp1179
(dp1180
g62
(dp1181
sg71
g822
sg64
(lp1182
g57
(g78
g59
NtRp1183
(dp1184
g62
(dp1185
g82
g83
ssg71
g1179
sg64
(lp1186
S'is_pypy'
p1187
asbag57
(g78
g59
NtRp1188
(dp1189
g62
(dp1190
g89
g90
ssg71
g1179
sg64
(lp1191
S':'
asbag57
(g78
g59
NtRp1192
(dp1193
g62
(dp1194
sg71
g1179
sg64
(lp1195
g57
(g58
g59
NtRp1196
(dp1197
g62
(dp1198
g70
I4
ssg71
g1192
sg64
(lp1199
g100
asbasbasbag57
(g73
g59
NtRp1200
(dp1201
g62
(dp1202
sg71
g822
sg64
(lp1203
g57
(g78
g59
NtRp1204
(dp1205
g62
(dp1206
g82
g83
ssg71
g1200
sg64
(lp1207
S'path_info'
p1208
asbag57
(g78
g59
NtRp1209
(dp1210
g62
(dp1211
g89
g90
ssg71
g1200
sg64
(lp1212
S':'
asbag57
(g78
g59
NtRp1213
(dp1214
g62
(dp1215
sg71
g1200
sg64
(lp1216
g57
(g58
g59
NtRp1217
(dp1218
g62
(dp1219
g70
I4
ssg71
g1213
sg64
(lp1220
S'/vsalad/action/comments.json'
p1221
asbasbasbag57
(g73
g59
NtRp1222
(dp1223
g62
(dp1224
sg71
g822
sg64
(lp1225
g57
(g78
g59
NtRp1226
(dp1227
g62
(dp1228
g82
g83
ssg71
g1222
sg64
(lp1229
S'query_string'
p1230
asbag57
(g78
g59
NtRp1231
(dp1232
g62
(dp1233
g89
g90
ssg71
g1222
sg64
(lp1234
S':'
asbag57
(g78
g59
NtRp1235
(dp1236
g62
(dp1237
sg71
g1222
sg64
(lp1238
g57
(g58
g59
NtRp1239
(dp1240
g62
(dp1241
g70
I4
ssg71
g1235
sg64
(lp1242
S''
asbasbasbag57
(g73
g59
NtRp1243
(dp1244
g62
(dp1245
sg71
g822
sg64
(lp1246
g57
(g78
g59
NtRp1247
(dp1248
g62
(dp1249
g82
g83
ssg71
g1243
sg64
(lp1250
S'remote_addr'
p1251
asbag57
(g78
g59
NtRp1252
(dp1253
g62
(dp1254
g89
g90
ssg71
g1243
sg64
(lp1255
S':'
asbag57
(g78
g59
NtRp1256
(dp1257
g62
(dp1258
sg71
g1243
sg64
(lp1259
g57
(g58
g59
NtRp1260
(dp1261
g62
(dp1262
g70
I4
ssg71
g1256
sg64
(lp1263
g190
asbasbasbag57
(g73
g59
NtRp1264
(dp1265
g62
(dp1266
sg71
g822
sg64
(lp1267
g57
(g78
g59
NtRp1268
(dp1269
g62
(dp1270
g82
g83
ssg71
g1264
sg64
(lp1271
S'remote_port'
p1272
asbag57
(g78
g59
NtRp1273
(dp1274
g62
(dp1275
g89
g90
ssg71
g1264
sg64
(lp1276
S':'
asbag57
(g78
g59
NtRp1277
(dp1278
g62
(dp1279
sg71
g1264
sg64
(lp1280
g57
(g58
g59
NtRp1281
(dp1282
g62
(dp1283
g70
I4
ssg71
g1277
sg64
(lp1284
S'44569'
p1285
asbasbasbag57
(g73
g59
NtRp1286
(dp1287
g62
(dp1288
sg71
g822
sg64
(lp1289
g57
(g78
g59
NtRp1290
(dp1291
g62
(dp1292
g82
g83
ssg71
g1286
sg64
(lp1293
S'request_method'
p1294
asbag57
(g78
g59
NtRp1295
(dp1296
g62
(dp1297
g89
g90
ssg71
g1286
sg64
(lp1298
S':'
asbag57
(g78
g59
NtRp1299
(dp1300
g62
(dp1301
sg71
g1286
sg64
(lp1302
g57
(g58
g59
NtRp1303
(dp1304
g62
(dp1305
g70
I4
ssg71
g1299
sg64
(lp1306
S'GET'
p1307
asbasbasbag57
(g73
g59
NtRp1308
(dp1309
g62
(dp1310
sg71
g822
sg64
(lp1311
g57
(g78
g59
NtRp1312
(dp1313
g62
(dp1314
g82
g83
ssg71
g1308
sg64
(lp1315
S'script_name'
p1316
asbag57
(g78
g59
NtRp1317
(dp1318
g62
(dp1319
g89
g90
ssg71
g1308
sg64
(lp1320
S':'
asbag57
(g78
g59
NtRp1321
(dp1322
g62
(dp1323
sg71
g1308
sg64
(lp1324
g57
(g58
g59
NtRp1325
(dp1326
g62
(dp1327
g70
I4
ssg71
g1321
sg64
(lp1328
S''
asbasbasbag57
(g73
g59
NtRp1329
(dp1330
g62
(dp1331
sg71
g822
sg64
(lp1332
g57
(g78
g59
NtRp1333
(dp1334
g62
(dp1335
g82
g83
ssg71
g1329
sg64
(lp1336
S'server_name'
p1337
asbag57
(g78
g59
NtRp1338
(dp1339
g62
(dp1340
g89
g90
ssg71
g1329
sg64
(lp1341
S':'
asbag57
(g78
g59
NtRp1342
(dp1343
g62
(dp1344
sg71
g1329
sg64
(lp1345
g57
(g58
g59
NtRp1346
(dp1347
g62
(dp1348
g70
I4
ssg71
g1342
sg64
(lp1349
S'Master-Fish'
p1350
asbasbasbag57
(g73
g59
NtRp1351
(dp1352
g62
(dp1353
sg71
g822
sg64
(lp1354
g57
(g78
g59
NtRp1355
(dp1356
g62
(dp1357
g82
g83
ssg71
g1351
sg64
(lp1358
S'server_port'
p1359
asbag57
(g78
g59
NtRp1360
(dp1361
g62
(dp1362
g89
g90
ssg71
g1351
sg64
(lp1363
S':'
asbag57
(g78
g59
NtRp1364
(dp1365
g62
(dp1366
sg71
g1351
sg64
(lp1367
g57
(g58
g59
NtRp1368
(dp1369
g62
(dp1370
g70
I4
ssg71
g1364
sg64
(lp1371
S'8000'
p1372
asbasbasbag57
(g73
g59
NtRp1373
(dp1374
g62
(dp1375
sg71
g822
sg64
(lp1376
g57
(g78
g59
NtRp1377
(dp1378
g62
(dp1379
g82
g83
ssg71
g1373
sg64
(lp1380
S'server_protocol'
p1381
asbag57
(g78
g59
NtRp1382
(dp1383
g62
(dp1384
g89
g90
ssg71
g1373
sg64
(lp1385
S':'
asbag57
(g78
g59
NtRp1386
(dp1387
g62
(dp1388
sg71
g1373
sg64
(lp1389
g57
(g58
g59
NtRp1390
(dp1391
g62
(dp1392
g70
I4
ssg71
g1386
sg64
(lp1393
S'HTTP/1.1'
p1394
asbasbasbag57
(g73
g59
NtRp1395
(dp1396
g62
(dp1397
sg71
g822
sg64
(lp1398
g57
(g78
g59
NtRp1399
(dp1400
g62
(dp1401
g82
g83
ssg71
g1395
sg64
(lp1402
S'server_software'
p1403
asbag57
(g78
g59
NtRp1404
(dp1405
g62
(dp1406
g89
g90
ssg71
g1395
sg64
(lp1407
S':'
asbag57
(g78
g59
NtRp1408
(dp1409
g62
(dp1410
sg71
g1395
sg64
(lp1411
g57
(g58
g59
NtRp1412
(dp1413
g62
(dp1414
g70
I4
ssg71
g1408
sg64
(lp1415
S'Rocket 1.2.4'
p1416
asbasbasbag57
(g73
g59
NtRp1417
(dp1418
g62
(dp1419
sg71
g822
sg64
(lp1420
g57
(g78
g59
NtRp1421
(dp1422
g62
(dp1423
g82
g83
ssg71
g1417
sg64
(lp1424
S'web2py_crontype'
p1425
asbag57
(g78
g59
NtRp1426
(dp1427
g62
(dp1428
g89
g90
ssg71
g1417
sg64
(lp1429
S':'
asbag57
(g78
g59
NtRp1430
(dp1431
g62
(dp1432
sg71
g1417
sg64
(lp1433
g57
(g58
g59
NtRp1434
(dp1435
g62
(dp1436
g70
I4
ssg71
g1430
sg64
(lp1437
S'hard'
p1438
asbasbasbag57
(g73
g59
NtRp1439
(dp1440
g62
(dp1441
sg71
g822
sg64
(lp1442
g57
(g78
g59
NtRp1443
(dp1444
g62
(dp1445
g82
g83
ssg71
g1439
sg64
(lp1446
S'web2py_path'
p1447
asbag57
(g78
g59
NtRp1448
(dp1449
g62
(dp1450
g89
g90
ssg71
g1439
sg64
(lp1451
S':'
asbag57
(g78
g59
NtRp1452
(dp1453
g62
(dp1454
sg71
g1439
sg64
(lp1455
g57
(g58
g59
NtRp1456
(dp1457
g62
(dp1458
g70
I4
ssg71
g1452
sg64
(lp1459
g869
asbasbasbag57
(g73
g59
NtRp1460
(dp1461
g62
(dp1462
sg71
g822
sg64
(lp1463
g57
(g78
g59
NtRp1464
(dp1465
g62
(dp1466
g82
g83
ssg71
g1460
sg64
(lp1467
S'web2py_version'
p1468
asbag57
(g78
g59
NtRp1469
(dp1470
g62
(dp1471
g89
g90
ssg71
g1460
sg64
(lp1472
S':'
asbag57
(g78
g59
NtRp1473
(dp1474
g62
(dp1475
sg71
g1460
sg64
(lp1476
g57
(g58
g59
NtRp1477
(dp1478
g62
(dp1479
g70
I4
ssg71
g1473
sg64
(lp1480
g57
(g66
g59
NtRp1481
(dp1482
g62
(dp1483
g70
I3
ssg71
Nsg64
(lp1484
g57
(g73
g59
NtRp1485
(dp1486
g62
(dp1487
sg71
g1481
sg64
(lp1488
g57
(g78
g59
NtRp1489
(dp1490
g62
(dp1491
sg71
g1485
sg64
(lp1492
g57
(g58
g59
NtRp1493
(dp1494
g62
(dp1495
g70
I3
ssg71
g1489
sg64
(lp1496
S'1'
asbasbasbag57
(g73
g59
NtRp1497
(dp1498
g62
(dp1499
sg71
g1481
sg64
(lp1500
g57
(g78
g59
NtRp1501
(dp1502
g62
(dp1503
sg71
g1497
sg64
(lp1504
g57
(g58
g59
NtRp1505
(dp1506
g62
(dp1507
g70
I3
ssg71
g1501
sg64
(lp1508
S'99'
p1509
asbasbasbag57
(g73
g59
NtRp1510
(dp1511
g62
(dp1512
sg71
g1481
sg64
(lp1513
g57
(g78
g59
NtRp1514
(dp1515
g62
(dp1516
sg71
g1510
sg64
(lp1517
g57
(g58
g59
NtRp1518
(dp1519
g62
(dp1520
g70
I3
ssg71
g1514
sg64
(lp1521
S'7'
asbasbasbag57
(g73
g59
NtRp1522
(dp1523
g62
(dp1524
sg71
g1481
sg64
(lp1525
g57
(g78
g59
NtRp1526
(dp1527
g62
(dp1528
sg71
g1522
sg64
(lp1529
g57
(g58
g59
NtRp1530
(dp1531
g62
(dp1532
g70
I3
ssg71
g1526
sg64
(lp1533
S'datetime.datetime(2012, 3, 4, 22, 12, 8)'
p1534
asbasbasbag57
(g73
g59
NtRp1535
(dp1536
g62
(dp1537
sg71
g1481
sg64
(lp1538
g57
(g78
g59
NtRp1539
(dp1540
g62
(dp1541
sg71
g1535
sg64
(lp1542
g57
(g58
g59
NtRp1543
(dp1544
g62
(dp1545
g70
I3
ssg71
g1539
sg64
(lp1546
S'stable'
p1547
asbasbasbasbasbasbasbag57
(g73
g59
NtRp1548
(dp1549
g62
(dp1550
sg71
g822
sg64
(lp1551
g57
(g78
g59
NtRp1552
(dp1553
g62
(dp1554
g82
g83
ssg71
g1548
sg64
(lp1555
S'wsgi_errors'
p1556
asbag57
(g78
g59
NtRp1557
(dp1558
g62
(dp1559
g89
g90
ssg71
g1548
sg64
(lp1560
S':'
asbag57
(g78
g59
NtRp1561
(dp1562
g62
(dp1563
sg71
g1548
sg64
(lp1564
g57
(g58
g59
NtRp1565
(dp1566
g62
(dp1567
g70
I4
ssg71
g1561
sg64
(lp1568
S"<open file '<stderr>', mode 'w' at 0x7ff96880b270>"
p1569
asbasbasbag57
(g73
g59
NtRp1570
(dp1571
g62
(dp1572
sg71
g822
sg64
(lp1573
g57
(g78
g59
NtRp1574
(dp1575
g62
(dp1576
g82
g83
ssg71
g1570
sg64
(lp1577
S'wsgi_file_wrapper'
p1578
asbag57
(g78
g59
NtRp1579
(dp1580
g62
(dp1581
g89
g90
ssg71
g1570
sg64
(lp1582
S':'
asbag57
(g78
g59
NtRp1583
(dp1584
g62
(dp1585
sg71
g1570
sg64
(lp1586
g57
(g58
g59
NtRp1587
(dp1588
g62
(dp1589
g70
I4
ssg71
g1583
sg64
(lp1590
S'<class wsgiref.util.FileWrapper at 0x1f13870>'
p1591
asbasbasbag57
(g73
g59
NtRp1592
(dp1593
g62
(dp1594
sg71
g822
sg64
(lp1595
g57
(g78
g59
NtRp1596
(dp1597
g62
(dp1598
g82
g83
ssg71
g1592
sg64
(lp1599
S'wsgi_input'
p1600
asbag57
(g78
g59
NtRp1601
(dp1602
g62
(dp1603
g89
g90
ssg71
g1592
sg64
(lp1604
S':'
asbag57
(g78
g59
NtRp1605
(dp1606
g62
(dp1607
sg71
g1592
sg64
(lp1608
g57
(g58
g59
NtRp1609
(dp1610
g62
(dp1611
g70
I4
ssg71
g1605
sg64
(lp1612
S'<socket._fileobject object at 0x7ff95809d450>'
p1613
asbasbasbag57
(g73
g59
NtRp1614
(dp1615
g62
(dp1616
sg71
g822
sg64
(lp1617
g57
(g78
g59
NtRp1618
(dp1619
g62
(dp1620
g82
g83
ssg71
g1614
sg64
(lp1621
S'wsgi_multiprocess'
p1622
asbag57
(g78
g59
NtRp1623
(dp1624
g62
(dp1625
g89
g90
ssg71
g1614
sg64
(lp1626
S':'
asbag57
(g78
g59
NtRp1627
(dp1628
g62
(dp1629
sg71
g1614
sg64
(lp1630
g57
(g58
g59
NtRp1631
(dp1632
g62
(dp1633
g70
I4
ssg71
g1627
sg64
(lp1634
g100
asbasbasbag57
(g73
g59
NtRp1635
(dp1636
g62
(dp1637
sg71
g822
sg64
(lp1638
g57
(g78
g59
NtRp1639
(dp1640
g62
(dp1641
g82
g83
ssg71
g1635
sg64
(lp1642
S'wsgi_multithread'
p1643
asbag57
(g78
g59
NtRp1644
(dp1645
g62
(dp1646
g89
g90
ssg71
g1635
sg64
(lp1647
S':'
asbag57
(g78
g59
NtRp1648
(dp1649
g62
(dp1650
sg71
g1635
sg64
(lp1651
g57
(g58
g59
NtRp1652
(dp1653
g62
(dp1654
g70
I4
ssg71
g1648
sg64
(lp1655
S'True'
p1656
asbasbasbag57
(g73
g59
NtRp1657
(dp1658
g62
(dp1659
sg71
g822
sg64
(lp1660
g57
(g78
g59
NtRp1661
(dp1662
g62
(dp1663
g82
g83
ssg71
g1657
sg64
(lp1664
S'wsgi_run_once'
p1665
asbag57
(g78
g59
NtRp1666
(dp1667
g62
(dp1668
g89
g90
ssg71
g1657
sg64
(lp1669
S':'
asbag57
(g78
g59
NtRp1670
(dp1671
g62
(dp1672
sg71
g1657
sg64
(lp1673
g57
(g58
g59
NtRp1674
(dp1675
g62
(dp1676
g70
I4
ssg71
g1670
sg64
(lp1677
g100
asbasbasbag57
(g73
g59
NtRp1678
(dp1679
g62
(dp1680
sg71
g822
sg64
(lp1681
g57
(g78
g59
NtRp1682
(dp1683
g62
(dp1684
g82
g83
ssg71
g1678
sg64
(lp1685
S'wsgi_url_scheme'
p1686
asbag57
(g78
g59
NtRp1687
(dp1688
g62
(dp1689
g89
g90
ssg71
g1678
sg64
(lp1690
S':'
asbag57
(g78
g59
NtRp1691
(dp1692
g62
(dp1693
sg71
g1678
sg64
(lp1694
g57
(g58
g59
NtRp1695
(dp1696
g62
(dp1697
g70
I4
ssg71
g1691
sg64
(lp1698
S'http'
p1699
asbasbasbag57
(g73
g59
NtRp1700
(dp1701
g62
(dp1702
sg71
g822
sg64
(lp1703
g57
(g78
g59
NtRp1704
(dp1705
g62
(dp1706
g82
g83
ssg71
g1700
sg64
(lp1707
S'wsgi_version'
p1708
asbag57
(g78
g59
NtRp1709
(dp1710
g62
(dp1711
g89
g90
ssg71
g1700
sg64
(lp1712
S':'
asbag57
(g78
g59
NtRp1713
(dp1714
g62
(dp1715
sg71
g1700
sg64
(lp1716
g57
(g58
g59
NtRp1717
(dp1718
g62
(dp1719
g70
I4
ssg71
g1713
sg64
(lp1720
g57
(g66
g59
NtRp1721
(dp1722
g62
(dp1723
g70
I3
ssg71
Nsg64
(lp1724
g57
(g73
g59
NtRp1725
(dp1726
g62
(dp1727
sg71
g1721
sg64
(lp1728
g57
(g78
g59
NtRp1729
(dp1730
g62
(dp1731
sg71
g1725
sg64
(lp1732
g57
(g58
g59
NtRp1733
(dp1734
g62
(dp1735
g70
I3
ssg71
g1729
sg64
(lp1736
S'1'
asbasbasbag57
(g73
g59
NtRp1737
(dp1738
g62
(dp1739
sg71
g1721
sg64
(lp1740
g57
(g78
g59
NtRp1741
(dp1742
g62
(dp1743
sg71
g1737
sg64
(lp1744
g57
(g58
g59
NtRp1745
(dp1746
g62
(dp1747
g70
I3
ssg71
g1741
sg64
(lp1748
S'0'
asbasbasbasbasbasbasbasbasbasbasbag57
(g73
g59
NtRp1749
(dp1750
g62
(dp1751
sg71
g67
sg64
(lp1752
g57
(g78
g59
NtRp1753
(dp1754
g62
(dp1755
g82
g83
ssg71
g1749
sg64
(lp1756
S'extension'
p1757
asbag57
(g78
g59
NtRp1758
(dp1759
g62
(dp1760
g89
g90
ssg71
g1749
sg64
(lp1761
S':'
asbag57
(g78
g59
NtRp1762
(dp1763
g62
(dp1764
sg71
g1749
sg64
(lp1765
g57
(g58
g59
NtRp1766
(dp1767
g62
(dp1768
g70
I5
ssg71
g1762
sg64
(lp1769
S'json'
p1770
asbasbasbag57
(g73
g59
NtRp1771
(dp1772
g62
(dp1773
sg71
g67
sg64
(lp1774
g57
(g78
g59
NtRp1775
(dp1776
g62
(dp1777
g82
g83
ssg71
g1771
sg64
(lp1778
S'folder'
p1779
asbag57
(g78
g59
NtRp1780
(dp1781
g62
(dp1782
g89
g90
ssg71
g1771
sg64
(lp1783
S':'
asbag57
(g78
g59
NtRp1784
(dp1785
g62
(dp1786
sg71
g1771
sg64
(lp1787
g57
(g58
g59
NtRp1788
(dp1789
g62
(dp1790
g70
I5
ssg71
g1784
sg64
(lp1791
S'/home/fish/Desktop/web2py/applications/vsalad/'
p1792
asbasbasbag57
(g73
g59
NtRp1793
(dp1794
g62
(dp1795
sg71
g67
sg64
(lp1796
g57
(g78
g59
NtRp1797
(dp1798
g62
(dp1799
g82
g83
ssg71
g1793
sg64
(lp1800
S'function'
p1801
asbag57
(g78
g59
NtRp1802
(dp1803
g62
(dp1804
g89
g90
ssg71
g1793
sg64
(lp1805
S':'
asbag57
(g78
g59
NtRp1806
(dp1807
g62
(dp1808
sg71
g1793
sg64
(lp1809
g57
(g58
g59
NtRp1810
(dp1811
g62
(dp1812
g70
I5
ssg71
g1806
sg64
(lp1813
S'comments'
p1814
asbasbasbag57
(g73
g59
NtRp1815
(dp1816
g62
(dp1817
sg71
g67
sg64
(lp1818
g57
(g78
g59
NtRp1819
(dp1820
g62
(dp1821
g82
g83
ssg71
g1815
sg64
(lp1822
S'get_vars'
p1823
asbag57
(g78
g59
NtRp1824
(dp1825
g62
(dp1826
g89
g90
ssg71
g1815
sg64
(lp1827
S':'
asbag57
(g78
g59
NtRp1828
(dp1829
g62
(dp1830
sg71
g1815
sg64
(lp1831
g57
(g58
g59
NtRp1832
(dp1833
g62
(dp1834
g70
I5
ssg71
g1828
sg64
(lp1835
g57
(g66
g59
NtRp1836
(dp1837
g62
(dp1838
g70
I4
ssg71
Nsg64
(lp1839
sbasbasbasbag57
(g73
g59
NtRp1840
(dp1841
g62
(dp1842
sg71
g67
sg64
(lp1843
g57
(g78
g59
NtRp1844
(dp1845
g62
(dp1846
g82
g83
ssg71
g1840
sg64
(lp1847
S'global_settings'
p1848
asbag57
(g78
g59
NtRp1849
(dp1850
g62
(dp1851
g89
g90
ssg71
g1840
sg64
(lp1852
S':'
asbag57
(g78
g59
NtRp1853
(dp1854
g62
(dp1855
sg71
g1840
sg64
(lp1856
g57
(g58
g59
NtRp1857
(dp1858
g62
(dp1859
g70
I5
ssg71
g1853
sg64
(lp1860
g57
(g66
g59
NtRp1861
(dp1862
g62
(dp1863
g70
I4
ssg71
Nsg64
(lp1864
g57
(g73
g59
NtRp1865
(dp1866
g62
(dp1867
sg71
g1861
sg64
(lp1868
g57
(g78
g59
NtRp1869
(dp1870
g62
(dp1871
g82
g83
ssg71
g1865
sg64
(lp1872
g834
asbag57
(g78
g59
NtRp1873
(dp1874
g62
(dp1875
g89
g90
ssg71
g1865
sg64
(lp1876
S':'
asbag57
(g78
g59
NtRp1877
(dp1878
g62
(dp1879
sg71
g1865
sg64
(lp1880
g57
(g58
g59
NtRp1881
(dp1882
g62
(dp1883
g70
I4
ssg71
g1877
sg64
(lp1884
S"set(['/home/fish/Desktop/web2py/applications/admin/', '/home/fish/Desktop/web2py/applications/welcome/', '/home/fish/Desktop/web2py/applications/vsalad/'])"
p1885
asbasbasbag57
(g73
g59
NtRp1886
(dp1887
g62
(dp1888
sg71
g1861
sg64
(lp1889
g57
(g78
g59
NtRp1890
(dp1891
g62
(dp1892
g82
g83
ssg71
g1886
sg64
(lp1893
g856
asbag57
(g78
g59
NtRp1894
(dp1895
g62
(dp1896
g89
g90
ssg71
g1886
sg64
(lp1897
S':'
asbag57
(g78
g59
NtRp1898
(dp1899
g62
(dp1900
sg71
g1886
sg64
(lp1901
g57
(g58
g59
NtRp1902
(dp1903
g62
(dp1904
g70
I4
ssg71
g1898
sg64
(lp1905
g869
asbasbasbag57
(g73
g59
NtRp1906
(dp1907
g62
(dp1908
sg71
g1861
sg64
(lp1909
g57
(g78
g59
NtRp1910
(dp1911
g62
(dp1912
g82
g83
ssg71
g1906
sg64
(lp1913
g878
asbag57
(g78
g59
NtRp1914
(dp1915
g62
(dp1916
g89
g90
ssg71
g1906
sg64
(lp1917
S':'
asbag57
(g78
g59
NtRp1918
(dp1919
g62
(dp1920
sg71
g1906
sg64
(lp1921
g57
(g58
g59
NtRp1922
(dp1923
g62
(dp1924
g70
I4
ssg71
g1918
sg64
(lp1925
g57
(g66
g59
NtRp1926
(dp1927
g62
(dp1928
g70
I3
ssg71
Nsg64
(lp1929
sbasbasbasbag57
(g73
g59
NtRp1930
(dp1931
g62
(dp1932
sg71
g1861
sg64
(lp1933
g57
(g78
g59
NtRp1934
(dp1935
g62
(dp1936
g82
g83
ssg71
g1930
sg64
(lp1937
g903
asbag57
(g78
g59
NtRp1938
(dp1939
g62
(dp1940
g89
g90
ssg71
g1930
sg64
(lp1941
S':'
asbag57
(g78
g59
NtRp1942
(dp1943
g62
(dp1944
sg71
g1930
sg64
(lp1945
g57
(g58
g59
NtRp1946
(dp1947
g62
(dp1948
g70
I4
ssg71
g1942
sg64
(lp1949
S"<Values at 0x20375a8: {'verbose': False, 'ip': '127.0.0.1', 'shutdown_timeout': 5, 'taskbar': False, 'nocron': False, 'pid_filename': 'httpserver.pid', 'maxthreads': None, 'softcron': False, 'server_name': 'Master-Fish', 'bpython': False, 'nogui': False, 'port': 8000, 'extcron': False, 'debuglevel': 30, 'test': None, 'folder': '/home/fish/Desktop/web2py', 'config': '', 'import_models': False, 'winservice': '', 'shell': None, 'run': '', 'log_filename': 'httpserver.log', 'args': [''], 'socket_timeout': 5, 'ssl_ca_certificate': None, 'scheduler': None, 'profiler_filename': None, 'ssl_private_key': '', 'password': '<ask>', 'request_queue_size': 5, 'ssl_certificate': '', 'cronjob': False, 'numthreads': None, 'quiet': False, 'interfaces': None, 'minthreads': None, 'timeout': 10, 'plain': False, 'nobanner': False}>"
p1950
asbasbasbag57
(g73
g59
NtRp1951
(dp1952
g62
(dp1953
sg71
g1861
sg64
(lp1954
g57
(g78
g59
NtRp1955
(dp1956
g62
(dp1957
g82
g83
ssg71
g1951
sg64
(lp1958
g925
asbag57
(g78
g59
NtRp1959
(dp1960
g62
(dp1961
g89
g90
ssg71
g1951
sg64
(lp1962
S':'
asbag57
(g78
g59
NtRp1963
(dp1964
g62
(dp1965
sg71
g1951
sg64
(lp1966
g57
(g58
g59
NtRp1967
(dp1968
g62
(dp1969
g70
I4
ssg71
g1963
sg64
(lp1970
S'set([])'
p1971
asbasbasbag57
(g73
g59
NtRp1972
(dp1973
g62
(dp1974
sg71
g1861
sg64
(lp1975
g57
(g78
g59
NtRp1976
(dp1977
g62
(dp1978
g82
g83
ssg71
g1972
sg64
(lp1979
g947
asbag57
(g78
g59
NtRp1980
(dp1981
g62
(dp1982
g89
g90
ssg71
g1972
sg64
(lp1983
S':'
asbag57
(g78
g59
NtRp1984
(dp1985
g62
(dp1986
sg71
g1972
sg64
(lp1987
g57
(g58
g59
NtRp1988
(dp1989
g62
(dp1990
g70
I4
ssg71
g1984
sg64
(lp1991
g100
asbasbasbag57
(g73
g59
NtRp1992
(dp1993
g62
(dp1994
sg71
g1861
sg64
(lp1995
g57
(g78
g59
NtRp1996
(dp1997
g62
(dp1998
g82
g83
ssg71
g1992
sg64
(lp1999
g968
asbag57
(g78
g59
NtRp2000
(dp2001
g62
(dp2002
g89
g90
ssg71
g1992
sg64
(lp2003
S':'
asbag57
(g78
g59
NtRp2004
(dp2005
g62
(dp2006
sg71
g1992
sg64
(lp2007
g57
(g58
g59
NtRp2008
(dp2009
g62
(dp2010
g70
I4
ssg71
g2004
sg64
(lp2011
g981
asbasbasbag57
(g73
g59
NtRp2012
(dp2013
g62
(dp2014
sg71
g1861
sg64
(lp2015
g57
(g78
g59
NtRp2016
(dp2017
g62
(dp2018
g82
g83
ssg71
g2012
sg64
(lp2019
g1166
asbag57
(g78
g59
NtRp2020
(dp2021
g62
(dp2022
g89
g90
ssg71
g2012
sg64
(lp2023
S':'
asbag57
(g78
g59
NtRp2024
(dp2025
g62
(dp2026
sg71
g2012
sg64
(lp2027
g57
(g58
g59
NtRp2028
(dp2029
g62
(dp2030
g70
I4
ssg71
g2024
sg64
(lp2031
g100
asbasbasbag57
(g73
g59
NtRp2032
(dp2033
g62
(dp2034
sg71
g1861
sg64
(lp2035
g57
(g78
g59
NtRp2036
(dp2037
g62
(dp2038
g82
g83
ssg71
g2032
sg64
(lp2039
g1187
asbag57
(g78
g59
NtRp2040
(dp2041
g62
(dp2042
g89
g90
ssg71
g2032
sg64
(lp2043
S':'
asbag57
(g78
g59
NtRp2044
(dp2045
g62
(dp2046
sg71
g2032
sg64
(lp2047
g57
(g58
g59
NtRp2048
(dp2049
g62
(dp2050
g70
I4
ssg71
g2044
sg64
(lp2051
g100
asbasbasbag57
(g73
g59
NtRp2052
(dp2053
g62
(dp2054
sg71
g1861
sg64
(lp2055
g57
(g78
g59
NtRp2056
(dp2057
g62
(dp2058
g82
g83
ssg71
g2052
sg64
(lp2059
g1425
asbag57
(g78
g59
NtRp2060
(dp2061
g62
(dp2062
g89
g90
ssg71
g2052
sg64
(lp2063
S':'
asbag57
(g78
g59
NtRp2064
(dp2065
g62
(dp2066
sg71
g2052
sg64
(lp2067
g57
(g58
g59
NtRp2068
(dp2069
g62
(dp2070
g70
I4
ssg71
g2064
sg64
(lp2071
g1438
asbasbasbag57
(g73
g59
NtRp2072
(dp2073
g62
(dp2074
sg71
g1861
sg64
(lp2075
g57
(g78
g59
NtRp2076
(dp2077
g62
(dp2078
g82
g83
ssg71
g2072
sg64
(lp2079
g1468
asbag57
(g78
g59
NtRp2080
(dp2081
g62
(dp2082
g89
g90
ssg71
g2072
sg64
(lp2083
S':'
asbag57
(g78
g59
NtRp2084
(dp2085
g62
(dp2086
sg71
g2072
sg64
(lp2087
g57
(g58
g59
NtRp2088
(dp2089
g62
(dp2090
g70
I4
ssg71
g2084
sg64
(lp2091
g57
(g66
g59
NtRp2092
(dp2093
g62
(dp2094
g70
I3
ssg71
Nsg64
(lp2095
g57
(g73
g59
NtRp2096
(dp2097
g62
(dp2098
sg71
g2092
sg64
(lp2099
g57
(g78
g59
NtRp2100
(dp2101
g62
(dp2102
sg71
g2096
sg64
(lp2103
g57
(g58
g59
NtRp2104
(dp2105
g62
(dp2106
g70
I3
ssg71
g2100
sg64
(lp2107
S'1'
asbasbasbag57
(g73
g59
NtRp2108
(dp2109
g62
(dp2110
sg71
g2092
sg64
(lp2111
g57
(g78
g59
NtRp2112
(dp2113
g62
(dp2114
sg71
g2108
sg64
(lp2115
g57
(g58
g59
NtRp2116
(dp2117
g62
(dp2118
g70
I3
ssg71
g2112
sg64
(lp2119
S'99'
p2120
asbasbasbag57
(g73
g59
NtRp2121
(dp2122
g62
(dp2123
sg71
g2092
sg64
(lp2124
g57
(g78
g59
NtRp2125
(dp2126
g62
(dp2127
sg71
g2121
sg64
(lp2128
g57
(g58
g59
NtRp2129
(dp2130
g62
(dp2131
g70
I3
ssg71
g2125
sg64
(lp2132
S'7'
asbasbasbag57
(g73
g59
NtRp2133
(dp2134
g62
(dp2135
sg71
g2092
sg64
(lp2136
g57
(g78
g59
NtRp2137
(dp2138
g62
(dp2139
sg71
g2133
sg64
(lp2140
g57
(g58
g59
NtRp2141
(dp2142
g62
(dp2143
g70
I3
ssg71
g2137
sg64
(lp2144
S'datetime.datetime(2012, 3, 4, 22, 12, 8)'
p2145
asbasbasbag57
(g73
g59
NtRp2146
(dp2147
g62
(dp2148
sg71
g2092
sg64
(lp2149
g57
(g78
g59
NtRp2150
(dp2151
g62
(dp2152
sg71
g2146
sg64
(lp2153
g57
(g58
g59
NtRp2154
(dp2155
g62
(dp2156
g70
I3
ssg71
g2150
sg64
(lp2157
g1547
asbasbasbasbasbasbasbasbasbasbasbag57
(g73
g59
NtRp2158
(dp2159
g62
(dp2160
sg71
g67
sg64
(lp2161
g57
(g78
g59
NtRp2162
(dp2163
g62
(dp2164
g82
g83
ssg71
g2158
sg64
(lp2165
S'is_https'
p2166
asbag57
(g78
g59
NtRp2167
(dp2168
g62
(dp2169
g89
g90
ssg71
g2158
sg64
(lp2170
S':'
asbag57
(g78
g59
NtRp2171
(dp2172
g62
(dp2173
sg71
g2158
sg64
(lp2174
g57
(g58
g59
NtRp2175
(dp2176
g62
(dp2177
g70
I5
ssg71
g2171
sg64
(lp2178
g100
asbasbasbag57
(g73
g59
NtRp2179
(dp2180
g62
(dp2181
sg71
g67
sg64
(lp2182
g57
(g78
g59
NtRp2183
(dp2184
g62
(dp2185
g82
g83
ssg71
g2179
sg64
(lp2186
S'is_local'
p2187
asbag57
(g78
g59
NtRp2188
(dp2189
g62
(dp2190
g89
g90
ssg71
g2179
sg64
(lp2191
S':'
asbag57
(g78
g59
NtRp2192
(dp2193
g62
(dp2194
sg71
g2179
sg64
(lp2195
g57
(g58
g59
NtRp2196
(dp2197
g62
(dp2198
g70
I5
ssg71
g2192
sg64
(lp2199
g1656
asbasbasbag57
(g73
g59
NtRp2200
(dp2201
g62
(dp2202
sg71
g67
sg64
(lp2203
g57
(g78
g59
NtRp2204
(dp2205
g62
(dp2206
g82
g83
ssg71
g2200
sg64
(lp2207
S'is_restful'
p2208
asbag57
(g78
g59
NtRp2209
(dp2210
g62
(dp2211
g89
g90
ssg71
g2200
sg64
(lp2212
S':'
asbag57
(g78
g59
NtRp2213
(dp2214
g62
(dp2215
sg71
g2200
sg64
(lp2216
g57
(g58
g59
NtRp2217
(dp2218
g62
(dp2219
g70
I5
ssg71
g2213
sg64
(lp2220
g100
asbasbasbag57
(g73
g59
NtRp2221
(dp2222
g62
(dp2223
sg71
g67
sg64
(lp2224
g57
(g78
g59
NtRp2225
(dp2226
g62
(dp2227
g82
g83
ssg71
g2221
sg64
(lp2228
S'now'
p2229
asbag57
(g78
g59
NtRp2230
(dp2231
g62
(dp2232
g89
g90
ssg71
g2221
sg64
(lp2233
S':'
asbag57
(g78
g59
NtRp2234
(dp2235
g62
(dp2236
sg71
g2221
sg64
(lp2237
g57
(g58
g59
NtRp2238
(dp2239
g62
(dp2240
g70
I5
ssg71
g2234
sg64
(lp2241
S'datetime.datetime(2012, 4, 9, 23, 12, 39, 653525)'
p2242
asbasbasbag57
(g73
g59
NtRp2243
(dp2244
g62
(dp2245
sg71
g67
sg64
(lp2246
g57
(g78
g59
NtRp2247
(dp2248
g62
(dp2249
g82
g83
ssg71
g2243
sg64
(lp2250
S'post_vars'
p2251
asbag57
(g78
g59
NtRp2252
(dp2253
g62
(dp2254
g89
g90
ssg71
g2243
sg64
(lp2255
S':'
asbag57
(g78
g59
NtRp2256
(dp2257
g62
(dp2258
sg71
g2243
sg64
(lp2259
g57
(g58
g59
NtRp2260
(dp2261
g62
(dp2262
g70
I5
ssg71
g2256
sg64
(lp2263
g57
(g66
g59
NtRp2264
(dp2265
g62
(dp2266
g70
I4
ssg71
Nsg64
(lp2267
sbasbasbasbag57
(g73
g59
NtRp2268
(dp2269
g62
(dp2270
sg71
g67
sg64
(lp2271
g57
(g78
g59
NtRp2272
(dp2273
g62
(dp2274
g82
g83
ssg71
g2268
sg64
(lp2275
S'raw_extension'
p2276
asbag57
(g78
g59
NtRp2277
(dp2278
g62
(dp2279
g89
g90
ssg71
g2268
sg64
(lp2280
S':'
asbag57
(g78
g59
NtRp2281
(dp2282
g62
(dp2283
sg71
g2268
sg64
(lp2284
g57
(g58
g59
NtRp2285
(dp2286
g62
(dp2287
g70
I5
ssg71
g2281
sg64
(lp2288
g1770
asbasbasbag57
(g73
g59
NtRp2289
(dp2290
g62
(dp2291
sg71
g67
sg64
(lp2292
g57
(g78
g59
NtRp2293
(dp2294
g62
(dp2295
g82
g83
ssg71
g2289
sg64
(lp2296
S'url'
p2297
asbag57
(g78
g59
NtRp2298
(dp2299
g62
(dp2300
g89
g90
ssg71
g2289
sg64
(lp2301
S':'
asbag57
(g78
g59
NtRp2302
(dp2303
g62
(dp2304
sg71
g2289
sg64
(lp2305
g57
(g58
g59
NtRp2306
(dp2307
g62
(dp2308
g70
I5
ssg71
g2302
sg64
(lp2309
S'/vsalad/action/comments.json'
p2310
asbasbasbag57
(g73
g59
NtRp2311
(dp2312
g62
(dp2313
sg71
g67
sg64
(lp2314
g57
(g78
g59
NtRp2315
(dp2316
g62
(dp2317
g82
g83
ssg71
g2311
sg64
(lp2318
S'utcnow'
p2319
asbag57
(g78
g59
NtRp2320
(dp2321
g62
(dp2322
g89
g90
ssg71
g2311
sg64
(lp2323
S':'
asbag57
(g78
g59
NtRp2324
(dp2325
g62
(dp2326
sg71
g2311
sg64
(lp2327
g57
(g58
g59
NtRp2328
(dp2329
g62
(dp2330
g70
I5
ssg71
g2324
sg64
(lp2331
S'datetime.datetime(2012, 4, 9, 19, 12, 39, 653551)'
p2332
asbasbasbag57
(g73
g59
NtRp2333
(dp2334
g62
(dp2335
sg71
g67
sg64
(lp2336
g57
(g78
g59
NtRp2337
(dp2338
g62
(dp2339
g82
g83
ssg71
g2333
sg64
(lp2340
S'uuid'
p2341
asbag57
(g78
g59
NtRp2342
(dp2343
g62
(dp2344
g89
g90
ssg71
g2333
sg64
(lp2345
S':'
asbag57
(g78
g59
NtRp2346
(dp2347
g62
(dp2348
sg71
g2333
sg64
(lp2349
g57
(g58
g59
NtRp2350
(dp2351
g62
(dp2352
g70
I5
ssg71
g2346
sg64
(lp2353
S'vsalad/127.0.0.1.2012-04-09.23-12-39.96408543-8916-461f-9539-27ee8953ded6'
p2354
asbasbasbag57
(g73
g59
NtRp2355
(dp2356
g62
(dp2357
sg71
g67
sg64
(lp2358
g57
(g78
g59
NtRp2359
(dp2360
g62
(dp2361
g82
g83
ssg71
g2355
sg64
(lp2362
S'vars'
p2363
asbag57
(g78
g59
NtRp2364
(dp2365
g62
(dp2366
g89
g90
ssg71
g2355
sg64
(lp2367
S':'
asbag57
(g78
g59
NtRp2368
(dp2369
g62
(dp2370
sg71
g2355
sg64
(lp2371
g57
(g58
g59
NtRp2372
(dp2373
g62
(dp2374
g70
I5
ssg71
g2368
sg64
(lp2375
g57
(g66
g59
NtRp2376
(dp2377
g62
(dp2378
g70
I4
ssg71
Nsg64
(lp2379
sbasbasbasbag57
(g73
g59
NtRp2380
(dp2381
g62
(dp2382
sg71
g67
sg64
(lp2383
g57
(g78
g59
NtRp2384
(dp2385
g62
(dp2386
g82
g83
ssg71
g2380
sg64
(lp2387
S'wsgi'
p2388
asbag57
(g78
g59
NtRp2389
(dp2390
g62
(dp2391
g89
g90
ssg71
g2380
sg64
(lp2392
S':'
asbag57
(g78
g59
NtRp2393
(dp2394
g62
(dp2395
sg71
g2380
sg64
(lp2396
g57
(g58
g59
NtRp2397
(dp2398
g62
(dp2399
g70
I5
ssg71
g2393
sg64
(lp2400
g57
(g66
g59
NtRp2401
(dp2402
g62
(dp2403
g70
I4
ssg71
Nsg64
(lp2404
g57
(g73
g59
NtRp2405
(dp2406
g62
(dp2407
sg71
g2401
sg64
(lp2408
g57
(g78
g59
NtRp2409
(dp2410
g62
(dp2411
g82
g83
ssg71
g2405
sg64
(lp2412
S'environ'
p2413
asbag57
(g78
g59
NtRp2414
(dp2415
g62
(dp2416
g89
g90
ssg71
g2405
sg64
(lp2417
S':'
asbag57
(g78
g59
NtRp2418
(dp2419
g62
(dp2420
sg71
g2405
sg64
(lp2421
g57
(g58
g59
NtRp2422
(dp2423
g62
(dp2424
g70
I4
ssg71
g2418
sg64
(lp2425
g57
(g66
g59
NtRp2426
(dp2427
g62
(dp2428
g70
I3
ssg71
Nsg64
(lp2429
g57
(g73
g59
NtRp2430
(dp2431
g62
(dp2432
sg71
g2426
sg64
(lp2433
g57
(g78
g59
NtRp2434
(dp2435
g62
(dp2436
g82
g83
ssg71
g2430
sg64
(lp2437
S'HTTP_ACCEPT'
p2438
asbag57
(g78
g59
NtRp2439
(dp2440
g62
(dp2441
g89
g90
ssg71
g2430
sg64
(lp2442
S':'
asbag57
(g78
g59
NtRp2443
(dp2444
g62
(dp2445
sg71
g2430
sg64
(lp2446
g57
(g58
g59
NtRp2447
(dp2448
g62
(dp2449
g70
I3
ssg71
g2443
sg64
(lp2450
g1003
asbasbasbag57
(g73
g59
NtRp2451
(dp2452
g62
(dp2453
sg71
g2426
sg64
(lp2454
g57
(g78
g59
NtRp2455
(dp2456
g62
(dp2457
g82
g83
ssg71
g2451
sg64
(lp2458
S'HTTP_ACCEPT_CHARSET'
p2459
asbag57
(g78
g59
NtRp2460
(dp2461
g62
(dp2462
g89
g90
ssg71
g2451
sg64
(lp2463
S':'
asbag57
(g78
g59
NtRp2464
(dp2465
g62
(dp2466
sg71
g2451
sg64
(lp2467
g57
(g58
g59
NtRp2468
(dp2469
g62
(dp2470
g70
I3
ssg71
g2464
sg64
(lp2471
g1025
asbasbasbag57
(g73
g59
NtRp2472
(dp2473
g62
(dp2474
sg71
g2426
sg64
(lp2475
g57
(g78
g59
NtRp2476
(dp2477
g62
(dp2478
g82
g83
ssg71
g2472
sg64
(lp2479
S'HTTP_ACCEPT_ENCODING'
p2480
asbag57
(g78
g59
NtRp2481
(dp2482
g62
(dp2483
g89
g90
ssg71
g2472
sg64
(lp2484
S':'
asbag57
(g78
g59
NtRp2485
(dp2486
g62
(dp2487
sg71
g2472
sg64
(lp2488
g57
(g58
g59
NtRp2489
(dp2490
g62
(dp2491
g70
I3
ssg71
g2485
sg64
(lp2492
g1047
asbasbasbag57
(g73
g59
NtRp2493
(dp2494
g62
(dp2495
sg71
g2426
sg64
(lp2496
g57
(g78
g59
NtRp2497
(dp2498
g62
(dp2499
g82
g83
ssg71
g2493
sg64
(lp2500
S'HTTP_ACCEPT_LANGUAGE'
p2501
asbag57
(g78
g59
NtRp2502
(dp2503
g62
(dp2504
g89
g90
ssg71
g2493
sg64
(lp2505
S':'
asbag57
(g78
g59
NtRp2506
(dp2507
g62
(dp2508
sg71
g2493
sg64
(lp2509
g57
(g58
g59
NtRp2510
(dp2511
g62
(dp2512
g70
I3
ssg71
g2506
sg64
(lp2513
g1069
asbasbasbag57
(g73
g59
NtRp2514
(dp2515
g62
(dp2516
sg71
g2426
sg64
(lp2517
g57
(g78
g59
NtRp2518
(dp2519
g62
(dp2520
g82
g83
ssg71
g2514
sg64
(lp2521
S'HTTP_CONNECTION'
p2522
asbag57
(g78
g59
NtRp2523
(dp2524
g62
(dp2525
g89
g90
ssg71
g2514
sg64
(lp2526
S':'
asbag57
(g78
g59
NtRp2527
(dp2528
g62
(dp2529
sg71
g2514
sg64
(lp2530
g57
(g58
g59
NtRp2531
(dp2532
g62
(dp2533
g70
I3
ssg71
g2527
sg64
(lp2534
g1091
asbasbasbag57
(g73
g59
NtRp2535
(dp2536
g62
(dp2537
sg71
g2426
sg64
(lp2538
g57
(g78
g59
NtRp2539
(dp2540
g62
(dp2541
g82
g83
ssg71
g2535
sg64
(lp2542
S'HTTP_COOKIE'
p2543
asbag57
(g78
g59
NtRp2544
(dp2545
g62
(dp2546
g89
g90
ssg71
g2535
sg64
(lp2547
S':'
asbag57
(g78
g59
NtRp2548
(dp2549
g62
(dp2550
sg71
g2535
sg64
(lp2551
g57
(g58
g59
NtRp2552
(dp2553
g62
(dp2554
g70
I3
ssg71
g2548
sg64
(lp2555
g1113
asbasbasbag57
(g73
g59
NtRp2556
(dp2557
g62
(dp2558
sg71
g2426
sg64
(lp2559
g57
(g78
g59
NtRp2560
(dp2561
g62
(dp2562
g82
g83
ssg71
g2556
sg64
(lp2563
S'HTTP_HOST'
p2564
asbag57
(g78
g59
NtRp2565
(dp2566
g62
(dp2567
g89
g90
ssg71
g2556
sg64
(lp2568
S':'
asbag57
(g78
g59
NtRp2569
(dp2570
g62
(dp2571
sg71
g2556
sg64
(lp2572
g57
(g58
g59
NtRp2573
(dp2574
g62
(dp2575
g70
I3
ssg71
g2569
sg64
(lp2576
g1135
asbasbasbag57
(g73
g59
NtRp2577
(dp2578
g62
(dp2579
sg71
g2426
sg64
(lp2580
g57
(g78
g59
NtRp2581
(dp2582
g62
(dp2583
g82
g83
ssg71
g2577
sg64
(lp2584
S'HTTP_USER_AGENT'
p2585
asbag57
(g78
g59
NtRp2586
(dp2587
g62
(dp2588
g89
g90
ssg71
g2577
sg64
(lp2589
S':'
asbag57
(g78
g59
NtRp2590
(dp2591
g62
(dp2592
sg71
g2577
sg64
(lp2593
g57
(g58
g59
NtRp2594
(dp2595
g62
(dp2596
g70
I3
ssg71
g2590
sg64
(lp2597
g1157
asbasbasbag57
(g73
g59
NtRp2598
(dp2599
g62
(dp2600
sg71
g2426
sg64
(lp2601
g57
(g78
g59
NtRp2602
(dp2603
g62
(dp2604
g82
g83
ssg71
g2598
sg64
(lp2605
S'PATH_INFO'
p2606
asbag57
(g78
g59
NtRp2607
(dp2608
g62
(dp2609
g89
g90
ssg71
g2598
sg64
(lp2610
S':'
asbag57
(g78
g59
NtRp2611
(dp2612
g62
(dp2613
sg71
g2598
sg64
(lp2614
g57
(g58
g59
NtRp2615
(dp2616
g62
(dp2617
g70
I3
ssg71
g2611
sg64
(lp2618
g1221
asbasbasbag57
(g73
g59
NtRp2619
(dp2620
g62
(dp2621
sg71
g2426
sg64
(lp2622
g57
(g78
g59
NtRp2623
(dp2624
g62
(dp2625
g82
g83
ssg71
g2619
sg64
(lp2626
S'QUERY_STRING'
p2627
asbag57
(g78
g59
NtRp2628
(dp2629
g62
(dp2630
g89
g90
ssg71
g2619
sg64
(lp2631
S':'
asbag57
(g78
g59
NtRp2632
(dp2633
g62
(dp2634
sg71
g2619
sg64
(lp2635
g57
(g58
g59
NtRp2636
(dp2637
g62
(dp2638
g70
I3
ssg71
g2632
sg64
(lp2639
S''
asbasbasbag57
(g73
g59
NtRp2640
(dp2641
g62
(dp2642
sg71
g2426
sg64
(lp2643
g57
(g78
g59
NtRp2644
(dp2645
g62
(dp2646
g82
g83
ssg71
g2640
sg64
(lp2647
S'REMOTE_ADDR'
p2648
asbag57
(g78
g59
NtRp2649
(dp2650
g62
(dp2651
g89
g90
ssg71
g2640
sg64
(lp2652
S':'
asbag57
(g78
g59
NtRp2653
(dp2654
g62
(dp2655
sg71
g2640
sg64
(lp2656
g57
(g58
g59
NtRp2657
(dp2658
g62
(dp2659
g70
I3
ssg71
g2653
sg64
(lp2660
g190
asbasbasbag57
(g73
g59
NtRp2661
(dp2662
g62
(dp2663
sg71
g2426
sg64
(lp2664
g57
(g78
g59
NtRp2665
(dp2666
g62
(dp2667
g82
g83
ssg71
g2661
sg64
(lp2668
S'REMOTE_PORT'
p2669
asbag57
(g78
g59
NtRp2670
(dp2671
g62
(dp2672
g89
g90
ssg71
g2661
sg64
(lp2673
S':'
asbag57
(g78
g59
NtRp2674
(dp2675
g62
(dp2676
sg71
g2661
sg64
(lp2677
g57
(g58
g59
NtRp2678
(dp2679
g62
(dp2680
g70
I3
ssg71
g2674
sg64
(lp2681
g1285
asbasbasbag57
(g73
g59
NtRp2682
(dp2683
g62
(dp2684
sg71
g2426
sg64
(lp2685
g57
(g78
g59
NtRp2686
(dp2687
g62
(dp2688
g82
g83
ssg71
g2682
sg64
(lp2689
S'REQUEST_METHOD'
p2690
asbag57
(g78
g59
NtRp2691
(dp2692
g62
(dp2693
g89
g90
ssg71
g2682
sg64
(lp2694
S':'
asbag57
(g78
g59
NtRp2695
(dp2696
g62
(dp2697
sg71
g2682
sg64
(lp2698
g57
(g58
g59
NtRp2699
(dp2700
g62
(dp2701
g70
I3
ssg71
g2695
sg64
(lp2702
g1307
asbasbasbag57
(g73
g59
NtRp2703
(dp2704
g62
(dp2705
sg71
g2426
sg64
(lp2706
g57
(g78
g59
NtRp2707
(dp2708
g62
(dp2709
g82
g83
ssg71
g2703
sg64
(lp2710
S'SCRIPT_NAME'
p2711
asbag57
(g78
g59
NtRp2712
(dp2713
g62
(dp2714
g89
g90
ssg71
g2703
sg64
(lp2715
S':'
asbag57
(g78
g59
NtRp2716
(dp2717
g62
(dp2718
sg71
g2703
sg64
(lp2719
g57
(g58
g59
NtRp2720
(dp2721
g62
(dp2722
g70
I3
ssg71
g2716
sg64
(lp2723
S''
asbasbasbag57
(g73
g59
NtRp2724
(dp2725
g62
(dp2726
sg71
g2426
sg64
(lp2727
g57
(g78
g59
NtRp2728
(dp2729
g62
(dp2730
g82
g83
ssg71
g2724
sg64
(lp2731
S'SERVER_NAME'
p2732
asbag57
(g78
g59
NtRp2733
(dp2734
g62
(dp2735
g89
g90
ssg71
g2724
sg64
(lp2736
S':'
asbag57
(g78
g59
NtRp2737
(dp2738
g62
(dp2739
sg71
g2724
sg64
(lp2740
g57
(g58
g59
NtRp2741
(dp2742
g62
(dp2743
g70
I3
ssg71
g2737
sg64
(lp2744
g1350
asbasbasbag57
(g73
g59
NtRp2745
(dp2746
g62
(dp2747
sg71
g2426
sg64
(lp2748
g57
(g78
g59
NtRp2749
(dp2750
g62
(dp2751
g82
g83
ssg71
g2745
sg64
(lp2752
S'SERVER_PORT'
p2753
asbag57
(g78
g59
NtRp2754
(dp2755
g62
(dp2756
g89
g90
ssg71
g2745
sg64
(lp2757
S':'
asbag57
(g78
g59
NtRp2758
(dp2759
g62
(dp2760
sg71
g2745
sg64
(lp2761
g57
(g58
g59
NtRp2762
(dp2763
g62
(dp2764
g70
I3
ssg71
g2758
sg64
(lp2765
g1372
asbasbasbag57
(g73
g59
NtRp2766
(dp2767
g62
(dp2768
sg71
g2426
sg64
(lp2769
g57
(g78
g59
NtRp2770
(dp2771
g62
(dp2772
g82
g83
ssg71
g2766
sg64
(lp2773
S'SERVER_PROTOCOL'
p2774
asbag57
(g78
g59
NtRp2775
(dp2776
g62
(dp2777
g89
g90
ssg71
g2766
sg64
(lp2778
S':'
asbag57
(g78
g59
NtRp2779
(dp2780
g62
(dp2781
sg71
g2766
sg64
(lp2782
g57
(g58
g59
NtRp2783
(dp2784
g62
(dp2785
g70
I3
ssg71
g2779
sg64
(lp2786
g1394
asbasbasbag57
(g73
g59
NtRp2787
(dp2788
g62
(dp2789
sg71
g2426
sg64
(lp2790
g57
(g78
g59
NtRp2791
(dp2792
g62
(dp2793
g82
g83
ssg71
g2787
sg64
(lp2794
S'SERVER_SOFTWARE'
p2795
asbag57
(g78
g59
NtRp2796
(dp2797
g62
(dp2798
g89
g90
ssg71
g2787
sg64
(lp2799
S':'
asbag57
(g78
g59
NtRp2800
(dp2801
g62
(dp2802
sg71
g2787
sg64
(lp2803
g57
(g58
g59
NtRp2804
(dp2805
g62
(dp2806
g70
I3
ssg71
g2800
sg64
(lp2807
g1416
asbasbasbag57
(g73
g59
NtRp2808
(dp2809
g62
(dp2810
sg71
g2426
sg64
(lp2811
g57
(g78
g59
NtRp2812
(dp2813
g62
(dp2814
g82
g83
ssg71
g2808
sg64
(lp2815
S'wsgi.errors'
p2816
asbag57
(g78
g59
NtRp2817
(dp2818
g62
(dp2819
g89
g90
ssg71
g2808
sg64
(lp2820
S':'
asbag57
(g78
g59
NtRp2821
(dp2822
g62
(dp2823
sg71
g2808
sg64
(lp2824
g57
(g58
g59
NtRp2825
(dp2826
g62
(dp2827
g70
I3
ssg71
g2821
sg64
(lp2828
S"<open file '<stderr>', mode 'w' at 0x7ff96880b270>"
p2829
asbasbasbag57
(g73
g59
NtRp2830
(dp2831
g62
(dp2832
sg71
g2426
sg64
(lp2833
g57
(g78
g59
NtRp2834
(dp2835
g62
(dp2836
g82
g83
ssg71
g2830
sg64
(lp2837
S'wsgi.file_wrapper'
p2838
asbag57
(g78
g59
NtRp2839
(dp2840
g62
(dp2841
g89
g90
ssg71
g2830
sg64
(lp2842
S':'
asbag57
(g78
g59
NtRp2843
(dp2844
g62
(dp2845
sg71
g2830
sg64
(lp2846
g57
(g58
g59
NtRp2847
(dp2848
g62
(dp2849
g70
I3
ssg71
g2843
sg64
(lp2850
S'<class wsgiref.util.FileWrapper at 0x1f13870>'
p2851
asbasbasbag57
(g73
g59
NtRp2852
(dp2853
g62
(dp2854
sg71
g2426
sg64
(lp2855
g57
(g78
g59
NtRp2856
(dp2857
g62
(dp2858
g82
g83
ssg71
g2852
sg64
(lp2859
S'wsgi.input'
p2860
asbag57
(g78
g59
NtRp2861
(dp2862
g62
(dp2863
g89
g90
ssg71
g2852
sg64
(lp2864
S':'
asbag57
(g78
g59
NtRp2865
(dp2866
g62
(dp2867
sg71
g2852
sg64
(lp2868
g57
(g58
g59
NtRp2869
(dp2870
g62
(dp2871
g70
I3
ssg71
g2865
sg64
(lp2872
S'<cStringIO.StringO object at 0x27bf8b8>'
p2873
asbasbasbag57
(g73
g59
NtRp2874
(dp2875
g62
(dp2876
sg71
g2426
sg64
(lp2877
g57
(g78
g59
NtRp2878
(dp2879
g62
(dp2880
g82
g83
ssg71
g2874
sg64
(lp2881
S'wsgi.multiprocess'
p2882
asbag57
(g78
g59
NtRp2883
(dp2884
g62
(dp2885
g89
g90
ssg71
g2874
sg64
(lp2886
S':'
asbag57
(g78
g59
NtRp2887
(dp2888
g62
(dp2889
sg71
g2874
sg64
(lp2890
g57
(g58
g59
NtRp2891
(dp2892
g62
(dp2893
g70
I3
ssg71
g2887
sg64
(lp2894
g100
asbasbasbag57
(g73
g59
NtRp2895
(dp2896
g62
(dp2897
sg71
g2426
sg64
(lp2898
g57
(g78
g59
NtRp2899
(dp2900
g62
(dp2901
g82
g83
ssg71
g2895
sg64
(lp2902
S'wsgi.multithread'
p2903
asbag57
(g78
g59
NtRp2904
(dp2905
g62
(dp2906
g89
g90
ssg71
g2895
sg64
(lp2907
S':'
asbag57
(g78
g59
NtRp2908
(dp2909
g62
(dp2910
sg71
g2895
sg64
(lp2911
g57
(g58
g59
NtRp2912
(dp2913
g62
(dp2914
g70
I3
ssg71
g2908
sg64
(lp2915
g1656
asbasbasbag57
(g73
g59
NtRp2916
(dp2917
g62
(dp2918
sg71
g2426
sg64
(lp2919
g57
(g78
g59
NtRp2920
(dp2921
g62
(dp2922
g82
g83
ssg71
g2916
sg64
(lp2923
S'wsgi.run_once'
p2924
asbag57
(g78
g59
NtRp2925
(dp2926
g62
(dp2927
g89
g90
ssg71
g2916
sg64
(lp2928
S':'
asbag57
(g78
g59
NtRp2929
(dp2930
g62
(dp2931
sg71
g2916
sg64
(lp2932
g57
(g58
g59
NtRp2933
(dp2934
g62
(dp2935
g70
I3
ssg71
g2929
sg64
(lp2936
g100
asbasbasbag57
(g73
g59
NtRp2937
(dp2938
g62
(dp2939
sg71
g2426
sg64
(lp2940
g57
(g78
g59
NtRp2941
(dp2942
g62
(dp2943
g82
g83
ssg71
g2937
sg64
(lp2944
S'wsgi.url_scheme'
p2945
asbag57
(g78
g59
NtRp2946
(dp2947
g62
(dp2948
g89
g90
ssg71
g2937
sg64
(lp2949
S':'
asbag57
(g78
g59
NtRp2950
(dp2951
g62
(dp2952
sg71
g2937
sg64
(lp2953
g57
(g58
g59
NtRp2954
(dp2955
g62
(dp2956
g70
I3
ssg71
g2950
sg64
(lp2957
g1699
asbasbasbag57
(g73
g59
NtRp2958
(dp2959
g62
(dp2960
sg71
g2426
sg64
(lp2961
g57
(g78
g59
NtRp2962
(dp2963
g62
(dp2964
g82
g83
ssg71
g2958
sg64
(lp2965
S'wsgi.version'
p2966
asbag57
(g78
g59
NtRp2967
(dp2968
g62
(dp2969
g89
g90
ssg71
g2958
sg64
(lp2970
S':'
asbag57
(g78
g59
NtRp2971
(dp2972
g62
(dp2973
sg71
g2958
sg64
(lp2974
g57
(g58
g59
NtRp2975
(dp2976
g62
(dp2977
g70
I3
ssg71
g2971
sg64
(lp2978
S'1'
asbasbasbasbasbasbasbasbasbasbasbasbasbsS'frames'
p2979
(lp2980
(dp2981
S'file'
p2982
S'/home/fish/Desktop/web2py/gluon/restricted.py'
p2983
sS'dump'
p2984
(dp2985
S'environment'
p2986
S"{'A': <class 'gluon.html.A'>, 'Auth': <class 'gluon.tools.Auth'>, 'B': <class 'gluon.html.B'>, 'BEAUTIFY': <class 'gluon.html.BEAUTIFY'>, 'BODY': <class 'gluon.html.BODY'>, 'BR': <class 'gluon.html.BR'>, 'BUTTON': <class 'gluon.html.BUTTON'>, 'CAT': <class 'gluon.html.CAT'>, 'CENTER': <class 'gluon.html.CENTER'>, 'CLEANUP': <class 'gluon.validators.CLEANUP'>, ...}"
p2987
sS'ccode'
p2988
S'<code object <module> at 0x2bf18b0, file "/home/...plications/vsalad/controllers/action.py", line 3>'
p2989
ssS'lnum'
p2990
I205
sS'lines'
p2991
(dp2992
I200
S'    try:'
p2993
sI201
S'        if type(code) == types.CodeType:'
p2994
sI202
S'            ccode = code'
p2995
sI203
S'        else:'
p2996
sI204
S'            ccode = compile2(code,layer)'
p2997
sI205
S'        exec ccode in environment'
p2998
sI206
S'    except HTTP:'
p2999
sI207
S'        raise'
p3000
sI208
S'    except RestrictedError:'
p3001
sI209
S'        # do not encapsulate (obfuscate) the original RestrictedError'
p3002
ssS'call'
p3003
S"(code='# coding: utf8\\n#TODO Sorting methods\\n@service.ru...evel)\\n\\nresponse._vars=response._caller(comments)\\n', environment={'A': <class 'gluon.html.A'>, 'Auth': <class 'gluon.tools.Auth'>, 'B': <class 'gluon.html.B'>, 'BEAUTIFY': <class 'gluon.html.BEAUTIFY'>, 'BODY': <class 'gluon.html.BODY'>, 'BR': <class 'gluon.html.BR'>, 'BUTTON': <class 'gluon.html.BUTTON'>, 'CAT': <class 'gluon.html.CAT'>, 'CENTER': <class 'gluon.html.CENTER'>, 'CLEANUP': <class 'gluon.validators.CLEANUP'>, ...}, layer='/home/fish/Desktop/web2py/applications/vsalad/controllers/action.py')"
p3004
sS'func'
p3005
S'restricted'
p3006
sa(dp3007
g2982
S'/home/fish/Desktop/web2py/applications/vsalad/controllers/action.py'
p3008
sg2984
(dp3009
sg2990
I27
sg2991
(dp3010
I16
S"        cid = c['id']"
p3011
sI17
S'        comment_mapping[cid] = c'
p3012
sI18
S'        if pid:'
p3013
sI19
S"            comment_mapping[pid]['children'].append(c)"
p3014
sI20
S'        else:'
p3015
sI21
S'            top_level.append(c)'
p3016
sI22
S''
sI23
S''
sI24
S''
sI25
S'    return dict(comments=top_level)'
p3017
ssg3003
S'()'
p3018
sg3005
S'<module>'
p3019
sa(dp3020
g2982
S'/home/fish/Desktop/web2py/gluon/globals.py'
p3021
sg2984
(dp3022
S'self'
p3023
S'undefined'
p3024
sS'f'
S'<function comments>'
p3025
ssg2990
I173
sg2991
(dp3026
I168
S'        self.menu = []             # used by the default view layout'
p3027
sI169
S'        self.files = []            # used by web2py_ajax.html'
p3028
sI170
S'        self.generic_patterns = [] # patterns to allow generic views'
p3029
sI171
S"        self.delimiters = ('{{','}}')"
p3030
sI172
S'        self._vars = None'
p3031
sI173
S'        self._caller = lambda f: f()'
p3032
sI174
S'        self._view_environment = None'
p3033
sI175
S'        self._custom_commit = None'
p3034
sI176
S'        self._custom_rollback = None'
p3035
sI177
S''
ssg3003
S'(f=<function comments>)'
p3036
sg3005
S'<lambda>'
p3037
sa(dp3038
g2982
S'/home/fish/Desktop/web2py/applications/vsalad/controllers/action.py'
p3039
sg2984
(dp3040
S'global request'
p3041
S"<Storage {'body': <cStringIO.StringO object at 0..._vars': <Storage {}>, 'post_vars': <Storage {}>}>"
p3042
sS'article'
p3043
g3024
sS'request.args'
p3044
S'[]'
p3045
ssg2990
I5
sg2991
(dp3046
I2
S'#TODO Sorting methods'
p3047
sI3
S'@service.run'
p3048
sI4
S'def comments():'
p3049
sI5
S'    article = request.args[1] or 1'
p3050
sI6
S'    cmtdb = db(db.comments.article == article).select()'
p3051
sI7
S'    cmts = []'
p3052
sI8
S'    comment_mapping = {}'
p3053
sI9
S'    top_level = []'
p3054
sI10
S''
sI11
S'    for r in cmtdb:'
p3055
ssg3003
S'()'
p3056
sg3005
S'comments'
p3057
sasS'pyver'
p3058
S'Python 2.7.2+: /usr/bin/python'
p3059
sS'session'
p3060
g57
(g58
g59
NtRp3061
(dp3062
g62
(dp3063
sg64
(lp3064
g57
(g66
g59
NtRp3065
(dp3066
g62
(dp3067
g70
I5
ssg71
Nsg64
(lp3068
sbasbsS'etype'
p3069
S"<type 'exceptions.IndexError'>"
p3070
sS'date'
p3071
S'Mon Apr  9 23:12:39 2012'
p3072
sS'response'
p3073
g57
(g58
g59
NtRp3074
(dp3075
g62
(dp3076
sg64
(lp3077
g57
(g66
g59
NtRp3078
(dp3079
g62
(dp3080
g70
I5
ssg71
Nsg64
(lp3081
g57
(g73
g59
NtRp3082
(dp3083
g62
(dp3084
sg71
g3078
sg64
(lp3085
g57
(g78
g59
NtRp3086
(dp3087
g62
(dp3088
g82
g83
ssg71
g3082
sg64
(lp3089
g155
asbag57
(g78
g59
NtRp3090
(dp3091
g62
(dp3092
g89
g90
ssg71
g3082
sg64
(lp3093
S':'
asbag57
(g78
g59
NtRp3094
(dp3095
g62
(dp3096
sg71
g3082
sg64
(lp3097
g57
(g58
g59
NtRp3098
(dp3099
g62
(dp3100
g70
I5
ssg71
g3094
sg64
(lp3101
S'<cStringIO.StringO object at 0x2dd3f48>'
p3102
asbasbasbag57
(g73
g59
NtRp3103
(dp3104
g62
(dp3105
sg71
g3078
sg64
(lp3106
g57
(g78
g59
NtRp3107
(dp3108
g62
(dp3109
g82
g83
ssg71
g3103
sg64
(lp3110
g221
asbag57
(g78
g59
NtRp3111
(dp3112
g62
(dp3113
g89
g90
ssg71
g3103
sg64
(lp3114
S':'
asbag57
(g78
g59
NtRp3115
(dp3116
g62
(dp3117
sg71
g3103
sg64
(lp3118
g57
(g58
g59
NtRp3119
(dp3120
g62
(dp3121
g70
I5
ssg71
g3115
sg64
(lp3122
g57
(g66
g59
NtRp3123
(dp3124
g62
(dp3125
g70
I4
ssg71
Nsg64
(lp3126
g57
(g73
g59
NtRp3127
(dp3128
g62
(dp3129
sg71
g3123
sg64
(lp3130
g57
(g78
g59
NtRp3131
(dp3132
g62
(dp3133
g82
g83
ssg71
g3127
sg64
(lp3134
S'session_id_vsalad'
p3135
asbag57
(g78
g59
NtRp3136
(dp3137
g62
(dp3138
g89
g90
ssg71
g3127
sg64
(lp3139
S':'
asbag57
(g78
g59
NtRp3140
(dp3141
g62
(dp3142
sg71
g3127
sg64
(lp3143
g57
(g58
g59
NtRp3144
(dp3145
g62
(dp3146
g70
I4
ssg71
g3140
sg64
(lp3147
g57
(g66
g59
NtRp3148
(dp3149
g62
(dp3150
g70
I3
ssg71
Nsg64
(lp3151
g57
(g73
g59
NtRp3152
(dp3153
g62
(dp3154
sg71
g3148
sg64
(lp3155
g57
(g78
g59
NtRp3156
(dp3157
g62
(dp3158
g82
g83
ssg71
g3152
sg64
(lp3159
g271
asbag57
(g78
g59
NtRp3160
(dp3161
g62
(dp3162
g89
g90
ssg71
g3152
sg64
(lp3163
S':'
asbag57
(g78
g59
NtRp3164
(dp3165
g62
(dp3166
sg71
g3152
sg64
(lp3167
g57
(g58
g59
NtRp3168
(dp3169
g62
(dp3170
g70
I3
ssg71
g3164
sg64
(lp3171
S''
asbasbasbag57
(g73
g59
NtRp3172
(dp3173
g62
(dp3174
sg71
g3148
sg64
(lp3175
g57
(g78
g59
NtRp3176
(dp3177
g62
(dp3178
g82
g83
ssg71
g3172
sg64
(lp3179
g292
asbag57
(g78
g59
NtRp3180
(dp3181
g62
(dp3182
g89
g90
ssg71
g3172
sg64
(lp3183
S':'
asbag57
(g78
g59
NtRp3184
(dp3185
g62
(dp3186
sg71
g3172
sg64
(lp3187
g57
(g58
g59
NtRp3188
(dp3189
g62
(dp3190
g70
I3
ssg71
g3184
sg64
(lp3191
S''
asbasbasbag57
(g73
g59
NtRp3192
(dp3193
g62
(dp3194
sg71
g3148
sg64
(lp3195
g57
(g78
g59
NtRp3196
(dp3197
g62
(dp3198
g82
g83
ssg71
g3192
sg64
(lp3199
g313
asbag57
(g78
g59
NtRp3200
(dp3201
g62
(dp3202
g89
g90
ssg71
g3192
sg64
(lp3203
S':'
asbag57
(g78
g59
NtRp3204
(dp3205
g62
(dp3206
sg71
g3192
sg64
(lp3207
g57
(g58
g59
NtRp3208
(dp3209
g62
(dp3210
g70
I3
ssg71
g3204
sg64
(lp3211
S''
asbasbasbag57
(g73
g59
NtRp3212
(dp3213
g62
(dp3214
sg71
g3148
sg64
(lp3215
g57
(g78
g59
NtRp3216
(dp3217
g62
(dp3218
g82
g83
ssg71
g3212
sg64
(lp3219
g334
asbag57
(g78
g59
NtRp3220
(dp3221
g62
(dp3222
g89
g90
ssg71
g3212
sg64
(lp3223
S':'
asbag57
(g78
g59
NtRp3224
(dp3225
g62
(dp3226
sg71
g3212
sg64
(lp3227
g57
(g58
g59
NtRp3228
(dp3229
g62
(dp3230
g70
I3
ssg71
g3224
sg64
(lp3231
S''
asbasbasbag57
(g73
g59
NtRp3232
(dp3233
g62
(dp3234
sg71
g3148
sg64
(lp3235
g57
(g78
g59
NtRp3236
(dp3237
g62
(dp3238
g82
g83
ssg71
g3232
sg64
(lp3239
g355
asbag57
(g78
g59
NtRp3240
(dp3241
g62
(dp3242
g89
g90
ssg71
g3232
sg64
(lp3243
S':'
asbag57
(g78
g59
NtRp3244
(dp3245
g62
(dp3246
sg71
g3232
sg64
(lp3247
g57
(g58
g59
NtRp3248
(dp3249
g62
(dp3250
g70
I3
ssg71
g3244
sg64
(lp3251
S''
asbasbasbag57
(g73
g59
NtRp3252
(dp3253
g62
(dp3254
sg71
g3148
sg64
(lp3255
g57
(g78
g59
NtRp3256
(dp3257
g62
(dp3258
g82
g83
ssg71
g3252
sg64
(lp3259
g376
asbag57
(g78
g59
NtRp3260
(dp3261
g62
(dp3262
g89
g90
ssg71
g3252
sg64
(lp3263
S':'
asbag57
(g78
g59
NtRp3264
(dp3265
g62
(dp3266
sg71
g3252
sg64
(lp3267
g57
(g58
g59
NtRp3268
(dp3269
g62
(dp3270
g70
I3
ssg71
g3264
sg64
(lp3271
S'/'
asbasbasbag57
(g73
g59
NtRp3272
(dp3273
g62
(dp3274
sg71
g3148
sg64
(lp3275
g57
(g78
g59
NtRp3276
(dp3277
g62
(dp3278
g82
g83
ssg71
g3272
sg64
(lp3279
g397
asbag57
(g78
g59
NtRp3280
(dp3281
g62
(dp3282
g89
g90
ssg71
g3272
sg64
(lp3283
S':'
asbag57
(g78
g59
NtRp3284
(dp3285
g62
(dp3286
sg71
g3272
sg64
(lp3287
g57
(g58
g59
NtRp3288
(dp3289
g62
(dp3290
g70
I3
ssg71
g3284
sg64
(lp3291
S''
asbasbasbag57
(g73
g59
NtRp3292
(dp3293
g62
(dp3294
sg71
g3148
sg64
(lp3295
g57
(g78
g59
NtRp3296
(dp3297
g62
(dp3298
g82
g83
ssg71
g3292
sg64
(lp3299
g418
asbag57
(g78
g59
NtRp3300
(dp3301
g62
(dp3302
g89
g90
ssg71
g3292
sg64
(lp3303
S':'
asbag57
(g78
g59
NtRp3304
(dp3305
g62
(dp3306
sg71
g3292
sg64
(lp3307
g57
(g58
g59
NtRp3308
(dp3309
g62
(dp3310
g70
I3
ssg71
g3304
sg64
(lp3311
S''
asbasbasbasbasbasbasbasbasbasbasbag57
(g73
g59
NtRp3312
(dp3313
g62
(dp3314
sg71
g3078
sg64
(lp3315
g57
(g78
g59
NtRp3316
(dp3317
g62
(dp3318
g82
g83
ssg71
g3312
sg64
(lp3319
S'delimiters'
p3320
asbag57
(g78
g59
NtRp3321
(dp3322
g62
(dp3323
g89
g90
ssg71
g3312
sg64
(lp3324
S':'
asbag57
(g78
g59
NtRp3325
(dp3326
g62
(dp3327
sg71
g3312
sg64
(lp3328
g57
(g58
g59
NtRp3329
(dp3330
g62
(dp3331
g70
I5
ssg71
g3325
sg64
(lp3332
g57
(g66
g59
NtRp3333
(dp3334
g62
(dp3335
g70
I4
ssg71
Nsg64
(lp3336
g57
(g73
g59
NtRp3337
(dp3338
g62
(dp3339
sg71
g3333
sg64
(lp3340
g57
(g78
g59
NtRp3341
(dp3342
g62
(dp3343
sg71
g3337
sg64
(lp3344
g57
(g58
g59
NtRp3345
(dp3346
g62
(dp3347
g70
I4
ssg71
g3341
sg64
(lp3348
S'{{'
p3349
asbasbasbag57
(g73
g59
NtRp3350
(dp3351
g62
(dp3352
sg71
g3333
sg64
(lp3353
g57
(g78
g59
NtRp3354
(dp3355
g62
(dp3356
sg71
g3350
sg64
(lp3357
g57
(g58
g59
NtRp3358
(dp3359
g62
(dp3360
g70
I4
ssg71
g3354
sg64
(lp3361
S'}}'
p3362
asbasbasbasbasbasbasbag57
(g73
g59
NtRp3363
(dp3364
g62
(dp3365
sg71
g3078
sg64
(lp3366
g57
(g78
g59
NtRp3367
(dp3368
g62
(dp3369
g82
g83
ssg71
g3363
sg64
(lp3370
S'files'
p3371
asbag57
(g78
g59
NtRp3372
(dp3373
g62
(dp3374
g89
g90
ssg71
g3363
sg64
(lp3375
S':'
asbag57
(g78
g59
NtRp3376
(dp3377
g62
(dp3378
sg71
g3363
sg64
(lp3379
g57
(g58
g59
NtRp3380
(dp3381
g62
(dp3382
g70
I5
ssg71
g3376
sg64
(lp3383
g57
(g66
g59
NtRp3384
(dp3385
g62
(dp3386
g70
I4
ssg71
Nsg64
(lp3387
sbasbasbasbag57
(g73
g59
NtRp3388
(dp3389
g62
(dp3390
sg71
g3078
sg64
(lp3391
g57
(g78
g59
NtRp3392
(dp3393
g62
(dp3394
g82
g83
ssg71
g3388
sg64
(lp3395
S'flash'
p3396
asbag57
(g78
g59
NtRp3397
(dp3398
g62
(dp3399
g89
g90
ssg71
g3388
sg64
(lp3400
S':'
asbag57
(g78
g59
NtRp3401
(dp3402
g62
(dp3403
sg71
g3388
sg64
(lp3404
g57
(g58
g59
NtRp3405
(dp3406
g62
(dp3407
g70
I5
ssg71
g3401
sg64
(lp3408
S''
asbasbasbag57
(g73
g59
NtRp3409
(dp3410
g62
(dp3411
sg71
g3078
sg64
(lp3412
g57
(g78
g59
NtRp3413
(dp3414
g62
(dp3415
g82
g83
ssg71
g3409
sg64
(lp3416
S'generic_patterns'
p3417
asbag57
(g78
g59
NtRp3418
(dp3419
g62
(dp3420
g89
g90
ssg71
g3409
sg64
(lp3421
S':'
asbag57
(g78
g59
NtRp3422
(dp3423
g62
(dp3424
sg71
g3409
sg64
(lp3425
g57
(g58
g59
NtRp3426
(dp3427
g62
(dp3428
g70
I5
ssg71
g3422
sg64
(lp3429
g57
(g66
g59
NtRp3430
(dp3431
g62
(dp3432
g70
I4
ssg71
Nsg64
(lp3433
g57
(g73
g59
NtRp3434
(dp3435
g62
(dp3436
sg71
g3430
sg64
(lp3437
g57
(g78
g59
NtRp3438
(dp3439
g62
(dp3440
sg71
g3434
sg64
(lp3441
g57
(g58
g59
NtRp3442
(dp3443
g62
(dp3444
g70
I4
ssg71
g3438
sg64
(lp3445
S'*'
asbasbasbasbasbasbasbag57
(g73
g59
NtRp3446
(dp3447
g62
(dp3448
sg71
g3078
sg64
(lp3449
g57
(g78
g59
NtRp3450
(dp3451
g62
(dp3452
g82
g83
ssg71
g3446
sg64
(lp3453
S'headers'
p3454
asbag57
(g78
g59
NtRp3455
(dp3456
g62
(dp3457
g89
g90
ssg71
g3446
sg64
(lp3458
S':'
asbag57
(g78
g59
NtRp3459
(dp3460
g62
(dp3461
sg71
g3446
sg64
(lp3462
g57
(g58
g59
NtRp3463
(dp3464
g62
(dp3465
g70
I5
ssg71
g3459
sg64
(lp3466
g57
(g66
g59
NtRp3467
(dp3468
g62
(dp3469
g70
I4
ssg71
Nsg64
(lp3470
g57
(g73
g59
NtRp3471
(dp3472
g62
(dp3473
sg71
g3467
sg64
(lp3474
g57
(g78
g59
NtRp3475
(dp3476
g62
(dp3477
g82
g83
ssg71
g3471
sg64
(lp3478
S'Cache-Control'
p3479
asbag57
(g78
g59
NtRp3480
(dp3481
g62
(dp3482
g89
g90
ssg71
g3471
sg64
(lp3483
S':'
asbag57
(g78
g59
NtRp3484
(dp3485
g62
(dp3486
sg71
g3471
sg64
(lp3487
g57
(g58
g59
NtRp3488
(dp3489
g62
(dp3490
g70
I4
ssg71
g3484
sg64
(lp3491
S'no-store, no-cache, must-revalidate, post-check=0, pre-check=0'
p3492
asbasbasbag57
(g73
g59
NtRp3493
(dp3494
g62
(dp3495
sg71
g3467
sg64
(lp3496
g57
(g78
g59
NtRp3497
(dp3498
g62
(dp3499
g82
g83
ssg71
g3493
sg64
(lp3500
S'Content-Type'
p3501
asbag57
(g78
g59
NtRp3502
(dp3503
g62
(dp3504
g89
g90
ssg71
g3493
sg64
(lp3505
S':'
asbag57
(g78
g59
NtRp3506
(dp3507
g62
(dp3508
sg71
g3493
sg64
(lp3509
g57
(g58
g59
NtRp3510
(dp3511
g62
(dp3512
g70
I4
ssg71
g3506
sg64
(lp3513
S'application/json'
p3514
asbasbasbag57
(g73
g59
NtRp3515
(dp3516
g62
(dp3517
sg71
g3467
sg64
(lp3518
g57
(g78
g59
NtRp3519
(dp3520
g62
(dp3521
g82
g83
ssg71
g3515
sg64
(lp3522
S'Expires'
p3523
asbag57
(g78
g59
NtRp3524
(dp3525
g62
(dp3526
g89
g90
ssg71
g3515
sg64
(lp3527
S':'
asbag57
(g78
g59
NtRp3528
(dp3529
g62
(dp3530
sg71
g3515
sg64
(lp3531
g57
(g58
g59
NtRp3532
(dp3533
g62
(dp3534
g70
I4
ssg71
g3528
sg64
(lp3535
S'Mon, 09 Apr 2012 19:12:39 GMT'
p3536
asbasbasbag57
(g73
g59
NtRp3537
(dp3538
g62
(dp3539
sg71
g3467
sg64
(lp3540
g57
(g78
g59
NtRp3541
(dp3542
g62
(dp3543
g82
g83
ssg71
g3537
sg64
(lp3544
S'Pragma'
p3545
asbag57
(g78
g59
NtRp3546
(dp3547
g62
(dp3548
g89
g90
ssg71
g3537
sg64
(lp3549
S':'
asbag57
(g78
g59
NtRp3550
(dp3551
g62
(dp3552
sg71
g3537
sg64
(lp3553
g57
(g58
g59
NtRp3554
(dp3555
g62
(dp3556
g70
I4
ssg71
g3550
sg64
(lp3557
S'no-cache'
p3558
asbasbasbag57
(g73
g59
NtRp3559
(dp3560
g62
(dp3561
sg71
g3467
sg64
(lp3562
g57
(g78
g59
NtRp3563
(dp3564
g62
(dp3565
g82
g83
ssg71
g3559
sg64
(lp3566
S'X-Powered-By'
p3567
asbag57
(g78
g59
NtRp3568
(dp3569
g62
(dp3570
g89
g90
ssg71
g3559
sg64
(lp3571
S':'
asbag57
(g78
g59
NtRp3572
(dp3573
g62
(dp3574
sg71
g3559
sg64
(lp3575
g57
(g58
g59
NtRp3576
(dp3577
g62
(dp3578
g70
I4
ssg71
g3572
sg64
(lp3579
S'web2py'
p3580
asbasbasbasbasbasbasbag57
(g73
g59
NtRp3581
(dp3582
g62
(dp3583
sg71
g3078
sg64
(lp3584
g57
(g78
g59
NtRp3585
(dp3586
g62
(dp3587
g82
g83
ssg71
g3581
sg64
(lp3588
S'menu'
p3589
asbag57
(g78
g59
NtRp3590
(dp3591
g62
(dp3592
g89
g90
ssg71
g3581
sg64
(lp3593
S':'
asbag57
(g78
g59
NtRp3594
(dp3595
g62
(dp3596
sg71
g3581
sg64
(lp3597
g57
(g58
g59
NtRp3598
(dp3599
g62
(dp3600
g70
I5
ssg71
g3594
sg64
(lp3601
g57
(g66
g59
NtRp3602
(dp3603
g62
(dp3604
g70
I4
ssg71
Nsg64
(lp3605
g57
(g73
g59
NtRp3606
(dp3607
g62
(dp3608
sg71
g3602
sg64
(lp3609
g57
(g78
g59
NtRp3610
(dp3611
g62
(dp3612
sg71
g3606
sg64
(lp3613
g57
(g58
g59
NtRp3614
(dp3615
g62
(dp3616
g70
I4
ssg71
g3610
sg64
(lp3617
g57
(g66
g59
NtRp3618
(dp3619
g62
(dp3620
g70
I3
ssg71
Nsg64
(lp3621
g57
(g73
g59
NtRp3622
(dp3623
g62
(dp3624
sg71
g3618
sg64
(lp3625
g57
(g78
g59
NtRp3626
(dp3627
g62
(dp3628
sg71
g3622
sg64
(lp3629
g57
(g58
g59
NtRp3630
(dp3631
g62
(dp3632
g70
I3
ssg71
g3626
sg64
(lp3633
cgluon.languages
lazyT_unpickle
p3634
(S't\x04\x00\x00\x00Home'
tRp3635
asbasbasbag57
(g73
g59
NtRp3636
(dp3637
g62
(dp3638
sg71
g3618
sg64
(lp3639
g57
(g78
g59
NtRp3640
(dp3641
g62
(dp3642
sg71
g3636
sg64
(lp3643
g57
(g58
g59
NtRp3644
(dp3645
g62
(dp3646
g70
I3
ssg71
g3640
sg64
(lp3647
g100
asbasbasbag57
(g73
g59
NtRp3648
(dp3649
g62
(dp3650
sg71
g3618
sg64
(lp3651
g57
(g78
g59
NtRp3652
(dp3653
g62
(dp3654
sg71
g3648
sg64
(lp3655
g57
(g58
g59
NtRp3656
(dp3657
g62
(dp3658
g70
I3
ssg71
g3652
sg64
(lp3659
S'/vsalad/default/index.json'
p3660
asbasbasbag57
(g73
g59
NtRp3661
(dp3662
g62
(dp3663
sg71
g3618
sg64
(lp3664
g57
(g78
g59
NtRp3665
(dp3666
g62
(dp3667
sg71
g3661
sg64
(lp3668
g57
(g58
g59
NtRp3669
(dp3670
g62
(dp3671
g70
I3
ssg71
g3665
sg64
(lp3672
g57
(g66
g59
NtRp3673
(dp3674
g62
(dp3675
g70
I2
ssg71
Nsg64
(lp3676
sbasbasbasbasbasbasbasbag57
(g73
g59
NtRp3677
(dp3678
g62
(dp3679
sg71
g3602
sg64
(lp3680
g57
(g78
g59
NtRp3681
(dp3682
g62
(dp3683
sg71
g3677
sg64
(lp3684
g57
(g58
g59
NtRp3685
(dp3686
g62
(dp3687
g70
I4
ssg71
g3681
sg64
(lp3688
g57
(g66
g59
NtRp3689
(dp3690
g62
(dp3691
g70
I3
ssg71
Nsg64
(lp3692
g57
(g73
g59
NtRp3693
(dp3694
g62
(dp3695
sg71
g3689
sg64
(lp3696
g57
(g78
g59
NtRp3697
(dp3698
g62
(dp3699
sg71
g3693
sg64
(lp3700
g57
(g58
g59
NtRp3701
(dp3702
g62
(dp3703
g70
I3
ssg71
g3697
sg64
(lp3704
g57
(cgluon.html
SPAN
p3705
g59
NtRp3706
(dp3707
g62
(dp3708
g82
S'color:yellow'
p3709
ssg71
Nsg64
(lp3710
g3580
asbasbasbasbag57
(g73
g59
NtRp3711
(dp3712
g62
(dp3713
sg71
g3689
sg64
(lp3714
g57
(g78
g59
NtRp3715
(dp3716
g62
(dp3717
sg71
g3711
sg64
(lp3718
g57
(g58
g59
NtRp3719
(dp3720
g62
(dp3721
g70
I3
ssg71
g3715
sg64
(lp3722
g100
asbasbasbag57
(g73
g59
NtRp3723
(dp3724
g62
(dp3725
sg71
g3689
sg64
(lp3726
g57
(g78
g59
NtRp3727
(dp3728
g62
(dp3729
sg71
g3723
sg64
(lp3730
g57
(g58
g59
NtRp3731
(dp3732
g62
(dp3733
g70
I3
ssg71
g3727
sg64
(lp3734
S'None'
p3735
asbasbasbag57
(g73
g59
NtRp3736
(dp3737
g62
(dp3738
sg71
g3689
sg64
(lp3739
g57
(g78
g59
NtRp3740
(dp3741
g62
(dp3742
sg71
g3736
sg64
(lp3743
g57
(g58
g59
NtRp3744
(dp3745
g62
(dp3746
g70
I3
ssg71
g3740
sg64
(lp3747
g57
(g66
g59
NtRp3748
(dp3749
g62
(dp3750
g70
I2
ssg71
Nsg64
(lp3751
g57
(g73
g59
NtRp3752
(dp3753
g62
(dp3754
sg71
g3748
sg64
(lp3755
g57
(g78
g59
NtRp3756
(dp3757
g62
(dp3758
sg71
g3752
sg64
(lp3759
g57
(g58
g59
NtRp3760
(dp3761
g62
(dp3762
g70
I2
ssg71
g3756
sg64
(lp3763
g57
(g66
g59
NtRp3764
(dp3765
g62
(dp3766
g70
I1
ssg71
Nsg64
(lp3767
g57
(g73
g59
NtRp3768
(dp3769
g62
(dp3770
sg71
g3764
sg64
(lp3771
g57
(g78
g59
NtRp3772
(dp3773
g62
(dp3774
sg71
g3768
sg64
(lp3775
g57
(g58
g59
NtRp3776
(dp3777
g62
(dp3778
g70
I1
ssg71
g3772
sg64
(lp3779
g3634
(S's\x08\x00\x00\x00My Sites'
tRp3780
asbasbasbag57
(g73
g59
NtRp3781
(dp3782
g62
(dp3783
sg71
g3764
sg64
(lp3784
g57
(g78
g59
NtRp3785
(dp3786
g62
(dp3787
sg71
g3781
sg64
(lp3788
g57
(g58
g59
NtRp3789
(dp3790
g62
(dp3791
g70
I1
ssg71
g3785
sg64
(lp3792
I00
asbasbasbag57
(g73
g59
NtRp3793
(dp3794
g62
(dp3795
sg71
g3764
sg64
(lp3796
g57
(g78
g59
NtRp3797
(dp3798
g62
(dp3799
sg71
g3793
sg64
(lp3800
g57
(g58
g59
NtRp3801
(dp3802
g62
(dp3803
g70
I1
ssg71
g3797
sg64
(lp3804
S'/admin/default/site.json'
p3805
asbasbasbasbasbasbasbag57
(g73
g59
NtRp3806
(dp3807
g62
(dp3808
sg71
g3748
sg64
(lp3809
g57
(g78
g59
NtRp3810
(dp3811
g62
(dp3812
sg71
g3806
sg64
(lp3813
g57
(g58
g59
NtRp3814
(dp3815
g62
(dp3816
g70
I2
ssg71
g3810
sg64
(lp3817
g57
(g66
g59
NtRp3818
(dp3819
g62
(dp3820
g70
I1
ssg71
Nsg64
(lp3821
g57
(g73
g59
NtRp3822
(dp3823
g62
(dp3824
sg71
g3818
sg64
(lp3825
g57
(g78
g59
NtRp3826
(dp3827
g62
(dp3828
sg71
g3822
sg64
(lp3829
g57
(g58
g59
NtRp3830
(dp3831
g62
(dp3832
g70
I1
ssg71
g3826
sg64
(lp3833
g3634
(S's\x08\x00\x00\x00This App'
tRp3834
asbasbasbag57
(g73
g59
NtRp3835
(dp3836
g62
(dp3837
sg71
g3818
sg64
(lp3838
g57
(g78
g59
NtRp3839
(dp3840
g62
(dp3841
sg71
g3835
sg64
(lp3842
g57
(g58
g59
NtRp3843
(dp3844
g62
(dp3845
g70
I1
ssg71
g3839
sg64
(lp3846
I00
asbasbasbag57
(g73
g59
NtRp3847
(dp3848
g62
(dp3849
sg71
g3818
sg64
(lp3850
g57
(g78
g59
NtRp3851
(dp3852
g62
(dp3853
sg71
g3847
sg64
(lp3854
g57
(g58
g59
NtRp3855
(dp3856
g62
(dp3857
g70
I1
ssg71
g3851
sg64
(lp3858
S'/admin/default/design.json/vsalad'
p3859
asbasbasbag57
(g73
g59
NtRp3860
(dp3861
g62
(dp3862
sg71
g3818
sg64
(lp3863
g57
(g78
g59
NtRp3864
(dp3865
g62
(dp3866
sg71
g3860
sg64
(lp3867
g57
(g58
g59
NtRp3868
(dp3869
g62
(dp3870
g70
I1
ssg71
g3864
sg64
(lp3871
(lp3872
(g3634
(S't\n\x00\x00\x00Controller'
tRp3873
I00
S'/admin/default/edit.json/vsalad/controllers/action.py'
tp3874
a(g3634
(S't\x04\x00\x00\x00View'
tRp3875
I00
S'/admin/default/edit.json/vsalad/views/action/comments.json'
tp3876
a(g3634
(S't\x06\x00\x00\x00Layout'
tRp3877
I00
S'/admin/default/edit.json/vsalad/views/layout.html'
tp3878
a(g3634
(S't\n\x00\x00\x00Stylesheet'
tRp3879
I00
S'/admin/default/edit.json/vsalad/static/css/web2py.css'
tp3880
a(g3634
(S's\x08\x00\x00\x00DB Model'
tRp3881
I00
S'/admin/default/edit.json/vsalad/models/db.py'
tp3882
a(g3634
(S's\n\x00\x00\x00Menu Model'
tRp3883
I00
S'/admin/default/edit.json/vsalad/models/menu.py'
tp3884
a(g3634
(S't\x08\x00\x00\x00Database'
tRp3885
I00
S'/vsalad/appadmin/index.json'
tp3886
a(g3634
(S't\x06\x00\x00\x00Errors'
tRp3887
I00
S'/admin/default/errors.json/vsalad'
tp3888
a(g3634
(S't\x05\x00\x00\x00About'
tRp3889
I00
S'/admin/default/about.json/vsalad'
tp3890
aasbasbasbasbasbasbasbag57
(g73
g59
NtRp3891
(dp3892
g62
(dp3893
sg71
g3748
sg64
(lp3894
g57
(g78
g59
NtRp3895
(dp3896
g62
(dp3897
sg71
g3891
sg64
(lp3898
g57
(g58
g59
NtRp3899
(dp3900
g62
(dp3901
g70
I2
ssg71
g3895
sg64
(lp3902
g57
(g66
g59
NtRp3903
(dp3904
g62
(dp3905
g70
I1
ssg71
Nsg64
(lp3906
g57
(g73
g59
NtRp3907
(dp3908
g62
(dp3909
sg71
g3903
sg64
(lp3910
g57
(g78
g59
NtRp3911
(dp3912
g62
(dp3913
sg71
g3907
sg64
(lp3914
g57
(g58
g59
NtRp3915
(dp3916
g62
(dp3917
g70
I1
ssg71
g3911
sg64
(lp3918
S'web2py.com'
p3919
asbasbasbag57
(g73
g59
NtRp3920
(dp3921
g62
(dp3922
sg71
g3903
sg64
(lp3923
g57
(g78
g59
NtRp3924
(dp3925
g62
(dp3926
sg71
g3920
sg64
(lp3927
g57
(g58
g59
NtRp3928
(dp3929
g62
(dp3930
g70
I1
ssg71
g3924
sg64
(lp3931
I00
asbasbasbag57
(g73
g59
NtRp3932
(dp3933
g62
(dp3934
sg71
g3903
sg64
(lp3935
g57
(g78
g59
NtRp3936
(dp3937
g62
(dp3938
sg71
g3932
sg64
(lp3939
g57
(g58
g59
NtRp3940
(dp3941
g62
(dp3942
g70
I1
ssg71
g3936
sg64
(lp3943
S'http://www.web2py.com'
p3944
asbasbasbag57
(g73
g59
NtRp3945
(dp3946
g62
(dp3947
sg71
g3903
sg64
(lp3948
g57
(g78
g59
NtRp3949
(dp3950
g62
(dp3951
sg71
g3945
sg64
(lp3952
g57
(g58
g59
NtRp3953
(dp3954
g62
(dp3955
g70
I1
ssg71
g3949
sg64
(lp3956
(lp3957
(g3634
(S't\x08\x00\x00\x00Download'
tRp3958
I00
S'http://www.web2py.com/examples/default/download'
p3959
tp3960
a(g3634
(S't\x07\x00\x00\x00Support'
tRp3961
I00
S'http://www.web2py.com/examples/default/support'
p3962
tp3963
a(g3634
(S't\x04\x00\x00\x00Demo'
tRp3964
I00
S'http://web2py.com/demo_admin'
p3965
tp3966
a(g3634
(S's\x0e\x00\x00\x00Quick Examples'
tRp3967
I00
S'http://web2py.com/examples/default/examples'
p3968
tp3969
a(g3634
(S't\x03\x00\x00\x00FAQ'
tRp3970
I00
S'http://web2py.com/AlterEgo'
p3971
tp3972
a(g3634
(S't\x06\x00\x00\x00Videos'
tRp3973
I00
S'http://www.web2py.com/examples/default/videos/'
p3974
tp3975
a(g3634
(S's\x11\x00\x00\x00Free Applications'
tRp3976
I00
S'http://web2py.com/appliances'
p3977
tp3978
a(g3634
(S't\x07\x00\x00\x00Plugins'
tRp3979
I00
S'http://web2py.com/plugins'
p3980
tp3981
a(g3634
(S't\x07\x00\x00\x00Layouts'
tRp3982
I00
S'http://web2py.com/layouts'
p3983
tp3984
a(g3634
(S't\x07\x00\x00\x00Recipes'
tRp3985
I00
S'http://web2pyslices.com/'
p3986
tp3987
a(g3634
(S't\x08\x00\x00\x00Semantic'
tRp3988
I00
S'http://web2py.com/semantic'
p3989
tp3990
aasbasbasbasbasbasbasbag57
(g73
g59
NtRp3991
(dp3992
g62
(dp3993
sg71
g3748
sg64
(lp3994
g57
(g78
g59
NtRp3995
(dp3996
g62
(dp3997
sg71
g3991
sg64
(lp3998
g57
(g58
g59
NtRp3999
(dp4000
g62
(dp4001
g70
I2
ssg71
g3995
sg64
(lp4002
g57
(g66
g59
NtRp4003
(dp4004
g62
(dp4005
g70
I1
ssg71
Nsg64
(lp4006
g57
(g73
g59
NtRp4007
(dp4008
g62
(dp4009
sg71
g4003
sg64
(lp4010
g57
(g78
g59
NtRp4011
(dp4012
g62
(dp4013
sg71
g4007
sg64
(lp4014
g57
(g58
g59
NtRp4015
(dp4016
g62
(dp4017
g70
I1
ssg71
g4011
sg64
(lp4018
g3634
(S't\r\x00\x00\x00Documentation'
tRp4019
asbasbasbag57
(g73
g59
NtRp4020
(dp4021
g62
(dp4022
sg71
g4003
sg64
(lp4023
g57
(g78
g59
NtRp4024
(dp4025
g62
(dp4026
sg71
g4020
sg64
(lp4027
g57
(g58
g59
NtRp4028
(dp4029
g62
(dp4030
g70
I1
ssg71
g4024
sg64
(lp4031
I00
asbasbasbag57
(g73
g59
NtRp4032
(dp4033
g62
(dp4034
sg71
g4003
sg64
(lp4035
g57
(g78
g59
NtRp4036
(dp4037
g62
(dp4038
sg71
g4032
sg64
(lp4039
g57
(g58
g59
NtRp4040
(dp4041
g62
(dp4042
g70
I1
ssg71
g4036
sg64
(lp4043
S'http://www.web2py.com/book'
p4044
asbasbasbag57
(g73
g59
NtRp4045
(dp4046
g62
(dp4047
sg71
g4003
sg64
(lp4048
g57
(g78
g59
NtRp4049
(dp4050
g62
(dp4051
sg71
g4045
sg64
(lp4052
g57
(g58
g59
NtRp4053
(dp4054
g62
(dp4055
g70
I1
ssg71
g4049
sg64
(lp4056
(lp4057
(g3634
(S't\x07\x00\x00\x00Preface'
tRp4058
I00
S'http://www.web2py.com/book/default/chapter/00'
p4059
tp4060
a(g3634
(S't\x0c\x00\x00\x00Introduction'
tRp4061
I00
S'http://www.web2py.com/book/default/chapter/01'
p4062
tp4063
a(g3634
(S't\x06\x00\x00\x00Python'
tRp4064
I00
S'http://www.web2py.com/book/default/chapter/02'
p4065
tp4066
a(g3634
(S't\x08\x00\x00\x00Overview'
tRp4067
I00
S'http://www.web2py.com/book/default/chapter/03'
p4068
tp4069
a(g3634
(S's\x08\x00\x00\x00The Core'
tRp4070
I00
S'http://www.web2py.com/book/default/chapter/04'
p4071
tp4072
a(g3634
(S's\t\x00\x00\x00The Views'
tRp4073
I00
S'http://www.web2py.com/book/default/chapter/05'
p4074
tp4075
a(g3634
(S't\x08\x00\x00\x00Database'
tRp4076
I00
S'http://www.web2py.com/book/default/chapter/06'
p4077
tp4078
a(g3634
(S's\x14\x00\x00\x00Forms and Validators'
tRp4079
I00
S'http://www.web2py.com/book/default/chapter/07'
p4080
tp4081
a(g3634
(S's\r\x00\x00\x00Email and SMS'
tRp4082
I00
S'http://www.web2py.com/book/default/chapter/08'
p4083
tp4084
a(g3634
(S's\x0e\x00\x00\x00Access Control'
tRp4085
I00
S'http://www.web2py.com/book/default/chapter/09'
p4086
tp4087
a(g3634
(S't\x08\x00\x00\x00Services'
tRp4088
I00
S'http://www.web2py.com/book/default/chapter/10'
p4089
tp4090
a(g3634
(S's\x0c\x00\x00\x00Ajax Recipes'
tRp4091
I00
S'http://www.web2py.com/book/default/chapter/11'
p4092
tp4093
a(g3634
(S's\x16\x00\x00\x00Components and Plugins'
tRp4094
I00
S'http://www.web2py.com/book/default/chapter/12'
p4095
tp4096
a(g3634
(S's\x12\x00\x00\x00Deployment Recipes'
tRp4097
I00
S'http://www.web2py.com/book/default/chapter/13'
p4098
tp4099
a(g3634
(S's\r\x00\x00\x00Other Recipes'
tRp4100
I00
S'http://www.web2py.com/book/default/chapter/14'
p4101
tp4102
a(g3634
(S's\r\x00\x00\x00Buy this book'
tRp4103
I00
S'http://stores.lulu.com/web2py'
p4104
tp4105
aasbasbasbasbasbasbasbag57
(g73
g59
NtRp4106
(dp4107
g62
(dp4108
sg71
g3748
sg64
(lp4109
g57
(g78
g59
NtRp4110
(dp4111
g62
(dp4112
sg71
g4106
sg64
(lp4113
g57
(g58
g59
NtRp4114
(dp4115
g62
(dp4116
g70
I2
ssg71
g4110
sg64
(lp4117
g57
(g66
g59
NtRp4118
(dp4119
g62
(dp4120
g70
I1
ssg71
Nsg64
(lp4121
g57
(g73
g59
NtRp4122
(dp4123
g62
(dp4124
sg71
g4118
sg64
(lp4125
g57
(g78
g59
NtRp4126
(dp4127
g62
(dp4128
sg71
g4122
sg64
(lp4129
g57
(g58
g59
NtRp4130
(dp4131
g62
(dp4132
g70
I1
ssg71
g4126
sg64
(lp4133
g3634
(S't\t\x00\x00\x00Community'
tRp4134
asbasbasbag57
(g73
g59
NtRp4135
(dp4136
g62
(dp4137
sg71
g4118
sg64
(lp4138
g57
(g78
g59
NtRp4139
(dp4140
g62
(dp4141
sg71
g4135
sg64
(lp4142
g57
(g58
g59
NtRp4143
(dp4144
g62
(dp4145
g70
I1
ssg71
g4139
sg64
(lp4146
I00
asbasbasbag57
(g73
g59
NtRp4147
(dp4148
g62
(dp4149
sg71
g4118
sg64
(lp4150
g57
(g78
g59
NtRp4151
(dp4152
g62
(dp4153
sg71
g4147
sg64
(lp4154
g57
(g58
g59
NtRp4155
(dp4156
g62
(dp4157
g70
I1
ssg71
g4151
sg64
(lp4158
Nasbasbasbag57
(g73
g59
NtRp4159
(dp4160
g62
(dp4161
sg71
g4118
sg64
(lp4162
g57
(g78
g59
NtRp4163
(dp4164
g62
(dp4165
sg71
g4159
sg64
(lp4166
g57
(g58
g59
NtRp4167
(dp4168
g62
(dp4169
g70
I1
ssg71
g4163
sg64
(lp4170
(lp4171
(g3634
(S't\x06\x00\x00\x00Groups'
tRp4172
I00
S'http://www.web2py.com/examples/default/usergroups'
p4173
tp4174
a(g3634
(S't\x07\x00\x00\x00Twitter'
tRp4175
I00
S'http://twitter.com/web2py'
p4176
tp4177
a(g3634
(S's\t\x00\x00\x00Live Chat'
tRp4178
I00
S'http://webchat.freenode.net/?channels=web2py'
p4179
tp4180
aasbasbasbasbasbasbasbag57
(g73
g59
NtRp4181
(dp4182
g62
(dp4183
sg71
g3748
sg64
(lp4184
g57
(g78
g59
NtRp4185
(dp4186
g62
(dp4187
sg71
g4181
sg64
(lp4188
g57
(g58
g59
NtRp4189
(dp4190
g62
(dp4191
g70
I2
ssg71
g4185
sg64
(lp4192
g57
(g66
g59
NtRp4193
(dp4194
g62
(dp4195
g70
I1
ssg71
Nsg64
(lp4196
g57
(g73
g59
NtRp4197
(dp4198
g62
(dp4199
sg71
g4193
sg64
(lp4200
g57
(g78
g59
NtRp4201
(dp4202
g62
(dp4203
sg71
g4197
sg64
(lp4204
g57
(g58
g59
NtRp4205
(dp4206
g62
(dp4207
g70
I1
ssg71
g4201
sg64
(lp4208
g3634
(S't\x07\x00\x00\x00Plugins'
tRp4209
asbasbasbag57
(g73
g59
NtRp4210
(dp4211
g62
(dp4212
sg71
g4193
sg64
(lp4213
g57
(g78
g59
NtRp4214
(dp4215
g62
(dp4216
sg71
g4210
sg64
(lp4217
g57
(g58
g59
NtRp4218
(dp4219
g62
(dp4220
g70
I1
ssg71
g4214
sg64
(lp4221
I00
asbasbasbag57
(g73
g59
NtRp4222
(dp4223
g62
(dp4224
sg71
g4193
sg64
(lp4225
g57
(g78
g59
NtRp4226
(dp4227
g62
(dp4228
sg71
g4222
sg64
(lp4229
g57
(g58
g59
NtRp4230
(dp4231
g62
(dp4232
g70
I1
ssg71
g4226
sg64
(lp4233
Nasbasbasbag57
(g73
g59
NtRp4234
(dp4235
g62
(dp4236
sg71
g4193
sg64
(lp4237
g57
(g78
g59
NtRp4238
(dp4239
g62
(dp4240
sg71
g4234
sg64
(lp4241
g57
(g58
g59
NtRp4242
(dp4243
g62
(dp4244
g70
I1
ssg71
g4238
sg64
(lp4245
(lp4246
(S'plugin_wiki'
p4247
I00
S'http://web2py.com/examples/default/download'
p4248
tp4249
a(g3634
(S's\r\x00\x00\x00Other Plugins'
tRp4250
I00
g3980
tp4251
a(g3634
(S's\x0e\x00\x00\x00Layout Plugins'
tRp4252
I00
g3983
tp4253
aasbasbasbasbasbasbasbasbasbasbasbasbasbasbasbasbasbasbasbag57
(g73
g59
NtRp4254
(dp4255
g62
(dp4256
sg71
g3078
sg64
(lp4257
g57
(g78
g59
NtRp4258
(dp4259
g62
(dp4260
g82
g83
ssg71
g4254
sg64
(lp4261
S'meta'
p4262
asbag57
(g78
g59
NtRp4263
(dp4264
g62
(dp4265
g89
g90
ssg71
g4254
sg64
(lp4266
S':'
asbag57
(g78
g59
NtRp4267
(dp4268
g62
(dp4269
sg71
g4254
sg64
(lp4270
g57
(g58
g59
NtRp4271
(dp4272
g62
(dp4273
g70
I5
ssg71
g4267
sg64
(lp4274
g57
(g66
g59
NtRp4275
(dp4276
g62
(dp4277
g70
I4
ssg71
Nsg64
(lp4278
g57
(g73
g59
NtRp4279
(dp4280
g62
(dp4281
sg71
g4275
sg64
(lp4282
g57
(g78
g59
NtRp4283
(dp4284
g62
(dp4285
g82
g83
ssg71
g4279
sg64
(lp4286
S'author'
p4287
asbag57
(g78
g59
NtRp4288
(dp4289
g62
(dp4290
g89
g90
ssg71
g4279
sg64
(lp4291
S':'
asbag57
(g78
g59
NtRp4292
(dp4293
g62
(dp4294
sg71
g4279
sg64
(lp4295
g57
(g58
g59
NtRp4296
(dp4297
g62
(dp4298
g70
I4
ssg71
g4292
sg64
(lp4299
S'Your Name <you@example.com>'
p4300
asbasbasbag57
(g73
g59
NtRp4301
(dp4302
g62
(dp4303
sg71
g4275
sg64
(lp4304
g57
(g78
g59
NtRp4305
(dp4306
g62
(dp4307
g82
g83
ssg71
g4301
sg64
(lp4308
S'copyright'
p4309
asbag57
(g78
g59
NtRp4310
(dp4311
g62
(dp4312
g89
g90
ssg71
g4301
sg64
(lp4313
S':'
asbag57
(g78
g59
NtRp4314
(dp4315
g62
(dp4316
sg71
g4301
sg64
(lp4317
g57
(g58
g59
NtRp4318
(dp4319
g62
(dp4320
g70
I4
ssg71
g4314
sg64
(lp4321
S'Copyright 2011'
p4322
asbasbasbag57
(g73
g59
NtRp4323
(dp4324
g62
(dp4325
sg71
g4275
sg64
(lp4326
g57
(g78
g59
NtRp4327
(dp4328
g62
(dp4329
g82
g83
ssg71
g4323
sg64
(lp4330
S'description'
p4331
asbag57
(g78
g59
NtRp4332
(dp4333
g62
(dp4334
g89
g90
ssg71
g4323
sg64
(lp4335
S':'
asbag57
(g78
g59
NtRp4336
(dp4337
g62
(dp4338
sg71
g4323
sg64
(lp4339
g57
(g58
g59
NtRp4340
(dp4341
g62
(dp4342
g70
I4
ssg71
g4336
sg64
(lp4343
S'a cool new app'
p4344
asbasbasbag57
(g73
g59
NtRp4345
(dp4346
g62
(dp4347
sg71
g4275
sg64
(lp4348
g57
(g78
g59
NtRp4349
(dp4350
g62
(dp4351
g82
g83
ssg71
g4345
sg64
(lp4352
S'generator'
p4353
asbag57
(g78
g59
NtRp4354
(dp4355
g62
(dp4356
g89
g90
ssg71
g4345
sg64
(lp4357
S':'
asbag57
(g78
g59
NtRp4358
(dp4359
g62
(dp4360
sg71
g4345
sg64
(lp4361
g57
(g58
g59
NtRp4362
(dp4363
g62
(dp4364
g70
I4
ssg71
g4358
sg64
(lp4365
S'Web2py Web Framework'
p4366
asbasbasbag57
(g73
g59
NtRp4367
(dp4368
g62
(dp4369
sg71
g4275
sg64
(lp4370
g57
(g78
g59
NtRp4371
(dp4372
g62
(dp4373
g82
g83
ssg71
g4367
sg64
(lp4374
S'keywords'
p4375
asbag57
(g78
g59
NtRp4376
(dp4377
g62
(dp4378
g89
g90
ssg71
g4367
sg64
(lp4379
S':'
asbag57
(g78
g59
NtRp4380
(dp4381
g62
(dp4382
sg71
g4367
sg64
(lp4383
g57
(g58
g59
NtRp4384
(dp4385
g62
(dp4386
g70
I4
ssg71
g4380
sg64
(lp4387
S'web2py, python, framework'
p4388
asbasbasbasbasbasbasbag57
(g73
g59
NtRp4389
(dp4390
g62
(dp4391
sg71
g3078
sg64
(lp4392
g57
(g78
g59
NtRp4393
(dp4394
g62
(dp4395
g82
g83
ssg71
g4389
sg64
(lp4396
S'postprocessing'
p4397
asbag57
(g78
g59
NtRp4398
(dp4399
g62
(dp4400
g89
g90
ssg71
g4389
sg64
(lp4401
S':'
asbag57
(g78
g59
NtRp4402
(dp4403
g62
(dp4404
sg71
g4389
sg64
(lp4405
g57
(g58
g59
NtRp4406
(dp4407
g62
(dp4408
g70
I5
ssg71
g4402
sg64
(lp4409
g57
(g66
g59
NtRp4410
(dp4411
g62
(dp4412
g70
I4
ssg71
Nsg64
(lp4413
sbasbasbasbag57
(g73
g59
NtRp4414
(dp4415
g62
(dp4416
sg71
g3078
sg64
(lp4417
g57
(g78
g59
NtRp4418
(dp4419
g62
(dp4420
g82
g83
ssg71
g4414
sg64
(lp4421
S'session_filename'
p4422
asbag57
(g78
g59
NtRp4423
(dp4424
g62
(dp4425
g89
g90
ssg71
g4414
sg64
(lp4426
S':'
asbag57
(g78
g59
NtRp4427
(dp4428
g62
(dp4429
sg71
g4414
sg64
(lp4430
g57
(g58
g59
NtRp4431
(dp4432
g62
(dp4433
g70
I5
ssg71
g4427
sg64
(lp4434
S'/home/fish/Desktop/web2py/applications/vsalad/sessions/127.0.0.1-a21d303e-4e73-4080-851e-40df45fcd229'
p4435
asbasbasbag57
(g73
g59
NtRp4436
(dp4437
g62
(dp4438
sg71
g3078
sg64
(lp4439
g57
(g78
g59
NtRp4440
(dp4441
g62
(dp4442
g82
g83
ssg71
g4436
sg64
(lp4443
S'session_id'
p4444
asbag57
(g78
g59
NtRp4445
(dp4446
g62
(dp4447
g89
g90
ssg71
g4436
sg64
(lp4448
S':'
asbag57
(g78
g59
NtRp4449
(dp4450
g62
(dp4451
sg71
g4436
sg64
(lp4452
g57
(g58
g59
NtRp4453
(dp4454
g62
(dp4455
g70
I5
ssg71
g4449
sg64
(lp4456
S'127.0.0.1-a21d303e-4e73-4080-851e-40df45fcd229'
p4457
asbasbasbag57
(g73
g59
NtRp4458
(dp4459
g62
(dp4460
sg71
g3078
sg64
(lp4461
g57
(g78
g59
NtRp4462
(dp4463
g62
(dp4464
g82
g83
ssg71
g4458
sg64
(lp4465
S'session_id_name'
p4466
asbag57
(g78
g59
NtRp4467
(dp4468
g62
(dp4469
g89
g90
ssg71
g4458
sg64
(lp4470
S':'
asbag57
(g78
g59
NtRp4471
(dp4472
g62
(dp4473
sg71
g4458
sg64
(lp4474
g57
(g58
g59
NtRp4475
(dp4476
g62
(dp4477
g70
I5
ssg71
g4471
sg64
(lp4478
g3135
asbasbasbag57
(g73
g59
NtRp4479
(dp4480
g62
(dp4481
sg71
g3078
sg64
(lp4482
g57
(g78
g59
NtRp4483
(dp4484
g62
(dp4485
g82
g83
ssg71
g4479
sg64
(lp4486
S'session_new'
p4487
asbag57
(g78
g59
NtRp4488
(dp4489
g62
(dp4490
g89
g90
ssg71
g4479
sg64
(lp4491
S':'
asbag57
(g78
g59
NtRp4492
(dp4493
g62
(dp4494
sg71
g4479
sg64
(lp4495
g57
(g58
g59
NtRp4496
(dp4497
g62
(dp4498
g70
I5
ssg71
g4492
sg64
(lp4499
g1656
asbasbasbag57
(g73
g59
NtRp4500
(dp4501
g62
(dp4502
sg71
g3078
sg64
(lp4503
g57
(g78
g59
NtRp4504
(dp4505
g62
(dp4506
g82
g83
ssg71
g4500
sg64
(lp4507
S'status'
p4508
asbag57
(g78
g59
NtRp4509
(dp4510
g62
(dp4511
g89
g90
ssg71
g4500
sg64
(lp4512
S':'
asbag57
(g78
g59
NtRp4513
(dp4514
g62
(dp4515
sg71
g4500
sg64
(lp4516
g57
(g58
g59
NtRp4517
(dp4518
g62
(dp4519
g70
I5
ssg71
g4513
sg64
(lp4520
S'200'
p4521
asbasbasbag57
(g73
g59
NtRp4522
(dp4523
g62
(dp4524
sg71
g3078
sg64
(lp4525
g57
(g78
g59
NtRp4526
(dp4527
g62
(dp4528
g82
g83
ssg71
g4522
sg64
(lp4529
S'subtitle'
p4530
asbag57
(g78
g59
NtRp4531
(dp4532
g62
(dp4533
g89
g90
ssg71
g4522
sg64
(lp4534
S':'
asbag57
(g78
g59
NtRp4535
(dp4536
g62
(dp4537
sg71
g4522
sg64
(lp4538
g57
(g58
g59
NtRp4539
(dp4540
g62
(dp4541
g70
I5
ssg71
g4535
sg64
(lp4542
g3634
(S's\r\x00\x00\x00customize me!'
tRp4543
asbasbasbag57
(g73
g59
NtRp4544
(dp4545
g62
(dp4546
sg71
g3078
sg64
(lp4547
g57
(g78
g59
NtRp4548
(dp4549
g62
(dp4550
g82
g83
ssg71
g4544
sg64
(lp4551
S'title'
p4552
asbag57
(g78
g59
NtRp4553
(dp4554
g62
(dp4555
g89
g90
ssg71
g4544
sg64
(lp4556
S':'
asbag57
(g78
g59
NtRp4557
(dp4558
g62
(dp4559
sg71
g4544
sg64
(lp4560
g57
(g58
g59
NtRp4561
(dp4562
g62
(dp4563
g70
I5
ssg71
g4557
sg64
(lp4564
S'Vsalad'
p4565
asbasbasbag57
(g73
g59
NtRp4566
(dp4567
g62
(dp4568
sg71
g3078
sg64
(lp4569
g57
(g78
g59
NtRp4570
(dp4571
g62
(dp4572
g82
g83
ssg71
g4566
sg64
(lp4573
g2341
asbag57
(g78
g59
NtRp4574
(dp4575
g62
(dp4576
g89
g90
ssg71
g4566
sg64
(lp4577
S':'
asbag57
(g78
g59
NtRp4578
(dp4579
g62
(dp4580
sg71
g4566
sg64
(lp4581
g57
(g58
g59
NtRp4582
(dp4583
g62
(dp4584
g70
I5
ssg71
g4578
sg64
(lp4585
g2354
asbasbasbag57
(g73
g59
NtRp4586
(dp4587
g62
(dp4588
sg71
g3078
sg64
(lp4589
g57
(g78
g59
NtRp4590
(dp4591
g62
(dp4592
g82
g83
ssg71
g4586
sg64
(lp4593
S'view'
p4594
asbag57
(g78
g59
NtRp4595
(dp4596
g62
(dp4597
g89
g90
ssg71
g4586
sg64
(lp4598
S':'
asbag57
(g78
g59
NtRp4599
(dp4600
g62
(dp4601
sg71
g4586
sg64
(lp4602
g57
(g58
g59
NtRp4603
(dp4604
g62
(dp4605
g70
I5
ssg71
g4599
sg64
(lp4606
S'action/comments.json'
p4607
asbasbasbasbasbsS'locals'
p4608
(dp4609
ssS'traceback'
p4610
S'Traceback (most recent call last):\n  File "/home/fish/Desktop/web2py/gluon/restricted.py", line 205, in restricted\n    exec ccode in environment\n  File "/home/fish/Desktop/web2py/applications/vsalad/controllers/action.py", line 27, in <module>\n  File "/home/fish/Desktop/web2py/gluon/globals.py", line 173, in <lambda>\n    self._caller = lambda f: f()\n  File "/home/fish/Desktop/web2py/applications/vsalad/controllers/action.py", line 5, in comments\n    article = request.args[1] or 1\nIndexError: list index out of range\n'
p4611
s.