(dp1
S'output'
p2
S"<type 'exceptions.SyntaxError'> invalid syntax (comments.html, line 3)"
p3
sS'layer'
p4
S'/home/fish/Desktop/web2py/applications/vsalad/views/action/comments.html'
p5
sS'code'
p6
S'response.write(\'<html>\\n<head>\\n<script src="\', escape=False)\nresponse.write(URL(\'static/js\', \'jquery.js\')\nresponse.write(\'"></script>\\n<script> \\n</script>\\n</head>\\n<body>\\n\', escape=False)\ndef show(t):\n    response.write(\'\\n    \', escape=False)\n    for x in t:\n        response.write(\'\\n        <div class="comments">\\n        <div class="body">\', escape=False)\n        response.write(x[\'body\'])\n        response.write(\'</div>\\n        <div class="children" style="padding-left:10px">\\n        \', escape=False)\n        if x[\'children\'] != None:\n            response.write(\'\\n            \', escape=False)\n            show(x[\'children\'])\n            response.write(\'\\n            </div>\\n        \', escape=False)\n            pass\n        response.write(\'\\n        </div>\\n    \', escape=False)\n        pass\n    response.write(\'\\n    \', escape=False)\n    return\nresponse.write(\'\\n    \\n\', escape=False)\nshow(children)\nresponse.write(\'\\n</body>\\n</html>\\n\', escape=False)'
p7
sS'snapshot'
p8
(dp9
S'exception'
p10
(dp11
S'__getslice__'
p12
S"<method-wrapper '__getslice__' of exceptions.SyntaxError object>"
p13
sS'text'
p14
S'\'response.write(\\\'"></script>\\\\n<script> \\\\n</script>\\\\n</head>\\\\n<body>\\\\n\\\', escape=False)\\n\''
p15
sS'__str__'
p16
S"<method-wrapper '__str__' of exceptions.SyntaxError object>"
p17
sS'__reduce__'
p18
S'<built-in method __reduce__ of exceptions.SyntaxError object>'
p19
sS'__dict__'
p20
S'{}'
p21
sS'__sizeof__'
p22
S'<built-in method __sizeof__ of exceptions.SyntaxError object>'
p23
sS'__init__'
p24
S"<method-wrapper '__init__' of exceptions.SyntaxError object>"
p25
sS'__setattr__'
p26
S"<method-wrapper '__setattr__' of exceptions.SyntaxError object>"
p27
sS'__reduce_ex__'
p28
S'<built-in method __reduce_ex__ of exceptions.SyntaxError object>'
p29
sS'__new__'
p30
S'<built-in method __new__ of type object>'
p31
sS'__format__'
p32
S'<built-in method __format__ of exceptions.SyntaxError object>'
p33
sS'__class__'
p34
S"<type 'exceptions.SyntaxError'>"
p35
sS'filename'
p36
S"'/home/fish/Desktop/web2py/applications/vsalad/views/action/comments.html'"
p37
sS'lineno'
p38
S'3'
sS'msg'
p39
S"'invalid syntax'"
p40
sS'__doc__'
p41
S"'Invalid syntax.'"
p42
sS'__getitem__'
p43
S"<method-wrapper '__getitem__' of exceptions.SyntaxError object>"
p44
sS'__setstate__'
p45
S'<built-in method __setstate__ of exceptions.SyntaxError object>'
p46
sS'__getattribute__'
p47
S"<method-wrapper '__getattribute__' of exceptions.SyntaxError object>"
p48
sS'print_file_and_line'
p49
S'None'
p50
sS'args'
p51
S'(\'invalid syntax\', (\'/home/fish/Desktop/web2py/applications/vsalad/views/action/comments.html\', 3, 8, \'response.write(\\\'"></script>\\\\n<script> \\\\n</script>\\\\n</head>\\\\n<body>\\\\n\\\', escape=False)\\n\'))'
p52
sS'__subclasshook__'
p53
S'<built-in method __subclasshook__ of type object>'
p54
sS'offset'
p55
S'8'
sS'__unicode__'
p56
S'<built-in method __unicode__ of exceptions.SyntaxError object>'
p57
sS'__delattr__'
p58
S"<method-wrapper '__delattr__' of exceptions.SyntaxError object>"
p59
sS'__repr__'
p60
S"<method-wrapper '__repr__' of exceptions.SyntaxError object>"
p61
sS'__hash__'
p62
S"<method-wrapper '__hash__' of exceptions.SyntaxError object>"
p63
ssS'evalue'
p64
S'invalid syntax (comments.html, line 3)'
p65
sS'request'
p66
ccopy_reg
_reconstructor
p67
(cgluon.html
BEAUTIFY
p68
c__builtin__
object
p69
NtRp70
(dp71
S'attributes'
p72
(dp73
sS'components'
p74
(lp75
g67
(cgluon.html
TABLE
p76
g69
NtRp77
(dp78
g72
(dp79
S'level'
p80
I5
ssS'parent'
p81
Nsg74
(lp82
g67
(cgluon.html
TR
p83
g69
NtRp84
(dp85
g72
(dp86
sg81
g77
sg74
(lp87
g67
(cgluon.html
TD
p88
g69
NtRp89
(dp90
g72
(dp91
S'_style'
p92
S'font-weight:bold;vertical-align:top'
p93
ssg81
g84
sg74
(lp94
S'ajax'
p95
asbag67
(g88
g69
NtRp96
(dp97
g72
(dp98
S'_valign'
p99
S'top'
p100
ssg81
g84
sg74
(lp101
S':'
asbag67
(g88
g69
NtRp102
(dp103
g72
(dp104
sg81
g84
sg74
(lp105
g67
(g68
g69
NtRp106
(dp107
g72
(dp108
g80
I5
ssg81
g102
sg74
(lp109
S'False'
p110
asbasbasbag67
(g83
g69
NtRp111
(dp112
g72
(dp113
sg81
g77
sg74
(lp114
g67
(g88
g69
NtRp115
(dp116
g72
(dp117
g92
g93
ssg81
g111
sg74
(lp118
S'application'
p119
asbag67
(g88
g69
NtRp120
(dp121
g72
(dp122
g99
g100
ssg81
g111
sg74
(lp123
S':'
asbag67
(g88
g69
NtRp124
(dp125
g72
(dp126
sg81
g111
sg74
(lp127
g67
(g68
g69
NtRp128
(dp129
g72
(dp130
g80
I5
ssg81
g124
sg74
(lp131
S'vsalad'
p132
asbasbasbag67
(g83
g69
NtRp133
(dp134
g72
(dp135
sg81
g77
sg74
(lp136
g67
(g88
g69
NtRp137
(dp138
g72
(dp139
g92
g93
ssg81
g133
sg74
(lp140
g51
asbag67
(g88
g69
NtRp141
(dp142
g72
(dp143
g99
g100
ssg81
g133
sg74
(lp144
S':'
asbag67
(g88
g69
NtRp145
(dp146
g72
(dp147
sg81
g133
sg74
(lp148
g67
(g68
g69
NtRp149
(dp150
g72
(dp151
g80
I5
ssg81
g145
sg74
(lp152
g67
(g76
g69
NtRp153
(dp154
g72
(dp155
g80
I4
ssg81
Nsg74
(lp156
sbasbasbasbag67
(g83
g69
NtRp157
(dp158
g72
(dp159
sg81
g77
sg74
(lp160
g67
(g88
g69
NtRp161
(dp162
g72
(dp163
g92
g93
ssg81
g157
sg74
(lp164
S'body'
p165
asbag67
(g88
g69
NtRp166
(dp167
g72
(dp168
g99
g100
ssg81
g157
sg74
(lp169
S':'
asbag67
(g88
g69
NtRp170
(dp171
g72
(dp172
sg81
g157
sg74
(lp173
g67
(g68
g69
NtRp174
(dp175
g72
(dp176
g80
I5
ssg81
g170
sg74
(lp177
S'<cStringIO.StringO object at 0x2bf0a78>'
p178
asbasbasbag67
(g83
g69
NtRp179
(dp180
g72
(dp181
sg81
g77
sg74
(lp182
g67
(g88
g69
NtRp183
(dp184
g72
(dp185
g92
g93
ssg81
g179
sg74
(lp186
S'client'
p187
asbag67
(g88
g69
NtRp188
(dp189
g72
(dp190
g99
g100
ssg81
g179
sg74
(lp191
S':'
asbag67
(g88
g69
NtRp192
(dp193
g72
(dp194
sg81
g179
sg74
(lp195
g67
(g68
g69
NtRp196
(dp197
g72
(dp198
g80
I5
ssg81
g192
sg74
(lp199
S'127.0.0.1'
p200
asbasbasbag67
(g83
g69
NtRp201
(dp202
g72
(dp203
sg81
g77
sg74
(lp204
g67
(g88
g69
NtRp205
(dp206
g72
(dp207
g92
g93
ssg81
g201
sg74
(lp208
S'controller'
p209
asbag67
(g88
g69
NtRp210
(dp211
g72
(dp212
g99
g100
ssg81
g201
sg74
(lp213
S':'
asbag67
(g88
g69
NtRp214
(dp215
g72
(dp216
sg81
g201
sg74
(lp217
g67
(g68
g69
NtRp218
(dp219
g72
(dp220
g80
I5
ssg81
g214
sg74
(lp221
S'action'
p222
asbasbasbag67
(g83
g69
NtRp223
(dp224
g72
(dp225
sg81
g77
sg74
(lp226
g67
(g88
g69
NtRp227
(dp228
g72
(dp229
g92
g93
ssg81
g223
sg74
(lp230
S'cookies'
p231
asbag67
(g88
g69
NtRp232
(dp233
g72
(dp234
g99
g100
ssg81
g223
sg74
(lp235
S':'
asbag67
(g88
g69
NtRp236
(dp237
g72
(dp238
sg81
g223
sg74
(lp239
g67
(g68
g69
NtRp240
(dp241
g72
(dp242
g80
I5
ssg81
g236
sg74
(lp243
g67
(g76
g69
NtRp244
(dp245
g72
(dp246
g80
I4
ssg81
Nsg74
(lp247
g67
(g83
g69
NtRp248
(dp249
g72
(dp250
sg81
g244
sg74
(lp251
g67
(g88
g69
NtRp252
(dp253
g72
(dp254
g92
g93
ssg81
g248
sg74
(lp255
S'session_id_admin'
p256
asbag67
(g88
g69
NtRp257
(dp258
g72
(dp259
g99
g100
ssg81
g248
sg74
(lp260
S':'
asbag67
(g88
g69
NtRp261
(dp262
g72
(dp263
sg81
g248
sg74
(lp264
g67
(g68
g69
NtRp265
(dp266
g72
(dp267
g80
I4
ssg81
g261
sg74
(lp268
g67
(g76
g69
NtRp269
(dp270
g72
(dp271
g80
I3
ssg81
Nsg74
(lp272
g67
(g83
g69
NtRp273
(dp274
g72
(dp275
sg81
g269
sg74
(lp276
g67
(g88
g69
NtRp277
(dp278
g72
(dp279
g92
g93
ssg81
g273
sg74
(lp280
S'comment'
p281
asbag67
(g88
g69
NtRp282
(dp283
g72
(dp284
g99
g100
ssg81
g273
sg74
(lp285
S':'
asbag67
(g88
g69
NtRp286
(dp287
g72
(dp288
sg81
g273
sg74
(lp289
g67
(g68
g69
NtRp290
(dp291
g72
(dp292
g80
I3
ssg81
g286
sg74
(lp293
S''
asbasbasbag67
(g83
g69
NtRp294
(dp295
g72
(dp296
sg81
g269
sg74
(lp297
g67
(g88
g69
NtRp298
(dp299
g72
(dp300
g92
g93
ssg81
g294
sg74
(lp301
S'domain'
p302
asbag67
(g88
g69
NtRp303
(dp304
g72
(dp305
g99
g100
ssg81
g294
sg74
(lp306
S':'
asbag67
(g88
g69
NtRp307
(dp308
g72
(dp309
sg81
g294
sg74
(lp310
g67
(g68
g69
NtRp311
(dp312
g72
(dp313
g80
I3
ssg81
g307
sg74
(lp314
S''
asbasbasbag67
(g83
g69
NtRp315
(dp316
g72
(dp317
sg81
g269
sg74
(lp318
g67
(g88
g69
NtRp319
(dp320
g72
(dp321
g92
g93
ssg81
g315
sg74
(lp322
S'expires'
p323
asbag67
(g88
g69
NtRp324
(dp325
g72
(dp326
g99
g100
ssg81
g315
sg74
(lp327
S':'
asbag67
(g88
g69
NtRp328
(dp329
g72
(dp330
sg81
g315
sg74
(lp331
g67
(g68
g69
NtRp332
(dp333
g72
(dp334
g80
I3
ssg81
g328
sg74
(lp335
S''
asbasbasbag67
(g83
g69
NtRp336
(dp337
g72
(dp338
sg81
g269
sg74
(lp339
g67
(g88
g69
NtRp340
(dp341
g72
(dp342
g92
g93
ssg81
g336
sg74
(lp343
S'httponly'
p344
asbag67
(g88
g69
NtRp345
(dp346
g72
(dp347
g99
g100
ssg81
g336
sg74
(lp348
S':'
asbag67
(g88
g69
NtRp349
(dp350
g72
(dp351
sg81
g336
sg74
(lp352
g67
(g68
g69
NtRp353
(dp354
g72
(dp355
g80
I3
ssg81
g349
sg74
(lp356
S''
asbasbasbag67
(g83
g69
NtRp357
(dp358
g72
(dp359
sg81
g269
sg74
(lp360
g67
(g88
g69
NtRp361
(dp362
g72
(dp363
g92
g93
ssg81
g357
sg74
(lp364
S'max-age'
p365
asbag67
(g88
g69
NtRp366
(dp367
g72
(dp368
g99
g100
ssg81
g357
sg74
(lp369
S':'
asbag67
(g88
g69
NtRp370
(dp371
g72
(dp372
sg81
g357
sg74
(lp373
g67
(g68
g69
NtRp374
(dp375
g72
(dp376
g80
I3
ssg81
g370
sg74
(lp377
S''
asbasbasbag67
(g83
g69
NtRp378
(dp379
g72
(dp380
sg81
g269
sg74
(lp381
g67
(g88
g69
NtRp382
(dp383
g72
(dp384
g92
g93
ssg81
g378
sg74
(lp385
S'path'
p386
asbag67
(g88
g69
NtRp387
(dp388
g72
(dp389
g99
g100
ssg81
g378
sg74
(lp390
S':'
asbag67
(g88
g69
NtRp391
(dp392
g72
(dp393
sg81
g378
sg74
(lp394
g67
(g68
g69
NtRp395
(dp396
g72
(dp397
g80
I3
ssg81
g391
sg74
(lp398
S''
asbasbasbag67
(g83
g69
NtRp399
(dp400
g72
(dp401
sg81
g269
sg74
(lp402
g67
(g88
g69
NtRp403
(dp404
g72
(dp405
g92
g93
ssg81
g399
sg74
(lp406
S'secure'
p407
asbag67
(g88
g69
NtRp408
(dp409
g72
(dp410
g99
g100
ssg81
g399
sg74
(lp411
S':'
asbag67
(g88
g69
NtRp412
(dp413
g72
(dp414
sg81
g399
sg74
(lp415
g67
(g68
g69
NtRp416
(dp417
g72
(dp418
g80
I3
ssg81
g412
sg74
(lp419
S''
asbasbasbag67
(g83
g69
NtRp420
(dp421
g72
(dp422
sg81
g269
sg74
(lp423
g67
(g88
g69
NtRp424
(dp425
g72
(dp426
g92
g93
ssg81
g420
sg74
(lp427
S'version'
p428
asbag67
(g88
g69
NtRp429
(dp430
g72
(dp431
g99
g100
ssg81
g420
sg74
(lp432
S':'
asbag67
(g88
g69
NtRp433
(dp434
g72
(dp435
sg81
g420
sg74
(lp436
g67
(g68
g69
NtRp437
(dp438
g72
(dp439
g80
I3
ssg81
g433
sg74
(lp440
S''
asbasbasbasbasbasbasbag67
(g83
g69
NtRp441
(dp442
g72
(dp443
sg81
g244
sg74
(lp444
g67
(g88
g69
NtRp445
(dp446
g72
(dp447
g92
g93
ssg81
g441
sg74
(lp448
S'session_id_vsalad'
p449
asbag67
(g88
g69
NtRp450
(dp451
g72
(dp452
g99
g100
ssg81
g441
sg74
(lp453
S':'
asbag67
(g88
g69
NtRp454
(dp455
g72
(dp456
sg81
g441
sg74
(lp457
g67
(g68
g69
NtRp458
(dp459
g72
(dp460
g80
I4
ssg81
g454
sg74
(lp461
g67
(g76
g69
NtRp462
(dp463
g72
(dp464
g80
I3
ssg81
Nsg74
(lp465
g67
(g83
g69
NtRp466
(dp467
g72
(dp468
sg81
g462
sg74
(lp469
g67
(g88
g69
NtRp470
(dp471
g72
(dp472
g92
g93
ssg81
g466
sg74
(lp473
g281
asbag67
(g88
g69
NtRp474
(dp475
g72
(dp476
g99
g100
ssg81
g466
sg74
(lp477
S':'
asbag67
(g88
g69
NtRp478
(dp479
g72
(dp480
sg81
g466
sg74
(lp481
g67
(g68
g69
NtRp482
(dp483
g72
(dp484
g80
I3
ssg81
g478
sg74
(lp485
S''
asbasbasbag67
(g83
g69
NtRp486
(dp487
g72
(dp488
sg81
g462
sg74
(lp489
g67
(g88
g69
NtRp490
(dp491
g72
(dp492
g92
g93
ssg81
g486
sg74
(lp493
g302
asbag67
(g88
g69
NtRp494
(dp495
g72
(dp496
g99
g100
ssg81
g486
sg74
(lp497
S':'
asbag67
(g88
g69
NtRp498
(dp499
g72
(dp500
sg81
g486
sg74
(lp501
g67
(g68
g69
NtRp502
(dp503
g72
(dp504
g80
I3
ssg81
g498
sg74
(lp505
S''
asbasbasbag67
(g83
g69
NtRp506
(dp507
g72
(dp508
sg81
g462
sg74
(lp509
g67
(g88
g69
NtRp510
(dp511
g72
(dp512
g92
g93
ssg81
g506
sg74
(lp513
g323
asbag67
(g88
g69
NtRp514
(dp515
g72
(dp516
g99
g100
ssg81
g506
sg74
(lp517
S':'
asbag67
(g88
g69
NtRp518
(dp519
g72
(dp520
sg81
g506
sg74
(lp521
g67
(g68
g69
NtRp522
(dp523
g72
(dp524
g80
I3
ssg81
g518
sg74
(lp525
S''
asbasbasbag67
(g83
g69
NtRp526
(dp527
g72
(dp528
sg81
g462
sg74
(lp529
g67
(g88
g69
NtRp530
(dp531
g72
(dp532
g92
g93
ssg81
g526
sg74
(lp533
g344
asbag67
(g88
g69
NtRp534
(dp535
g72
(dp536
g99
g100
ssg81
g526
sg74
(lp537
S':'
asbag67
(g88
g69
NtRp538
(dp539
g72
(dp540
sg81
g526
sg74
(lp541
g67
(g68
g69
NtRp542
(dp543
g72
(dp544
g80
I3
ssg81
g538
sg74
(lp545
S''
asbasbasbag67
(g83
g69
NtRp546
(dp547
g72
(dp548
sg81
g462
sg74
(lp549
g67
(g88
g69
NtRp550
(dp551
g72
(dp552
g92
g93
ssg81
g546
sg74
(lp553
g365
asbag67
(g88
g69
NtRp554
(dp555
g72
(dp556
g99
g100
ssg81
g546
sg74
(lp557
S':'
asbag67
(g88
g69
NtRp558
(dp559
g72
(dp560
sg81
g546
sg74
(lp561
g67
(g68
g69
NtRp562
(dp563
g72
(dp564
g80
I3
ssg81
g558
sg74
(lp565
S''
asbasbasbag67
(g83
g69
NtRp566
(dp567
g72
(dp568
sg81
g462
sg74
(lp569
g67
(g88
g69
NtRp570
(dp571
g72
(dp572
g92
g93
ssg81
g566
sg74
(lp573
g386
asbag67
(g88
g69
NtRp574
(dp575
g72
(dp576
g99
g100
ssg81
g566
sg74
(lp577
S':'
asbag67
(g88
g69
NtRp578
(dp579
g72
(dp580
sg81
g566
sg74
(lp581
g67
(g68
g69
NtRp582
(dp583
g72
(dp584
g80
I3
ssg81
g578
sg74
(lp585
S''
asbasbasbag67
(g83
g69
NtRp586
(dp587
g72
(dp588
sg81
g462
sg74
(lp589
g67
(g88
g69
NtRp590
(dp591
g72
(dp592
g92
g93
ssg81
g586
sg74
(lp593
g407
asbag67
(g88
g69
NtRp594
(dp595
g72
(dp596
g99
g100
ssg81
g586
sg74
(lp597
S':'
asbag67
(g88
g69
NtRp598
(dp599
g72
(dp600
sg81
g586
sg74
(lp601
g67
(g68
g69
NtRp602
(dp603
g72
(dp604
g80
I3
ssg81
g598
sg74
(lp605
S''
asbasbasbag67
(g83
g69
NtRp606
(dp607
g72
(dp608
sg81
g462
sg74
(lp609
g67
(g88
g69
NtRp610
(dp611
g72
(dp612
g92
g93
ssg81
g606
sg74
(lp613
g428
asbag67
(g88
g69
NtRp614
(dp615
g72
(dp616
g99
g100
ssg81
g606
sg74
(lp617
S':'
asbag67
(g88
g69
NtRp618
(dp619
g72
(dp620
sg81
g606
sg74
(lp621
g67
(g68
g69
NtRp622
(dp623
g72
(dp624
g80
I3
ssg81
g618
sg74
(lp625
S''
asbasbasbasbasbasbasbag67
(g83
g69
NtRp626
(dp627
g72
(dp628
sg81
g244
sg74
(lp629
g67
(g88
g69
NtRp630
(dp631
g72
(dp632
g92
g93
ssg81
g626
sg74
(lp633
S'session_id_welcome'
p634
asbag67
(g88
g69
NtRp635
(dp636
g72
(dp637
g99
g100
ssg81
g626
sg74
(lp638
S':'
asbag67
(g88
g69
NtRp639
(dp640
g72
(dp641
sg81
g626
sg74
(lp642
g67
(g68
g69
NtRp643
(dp644
g72
(dp645
g80
I4
ssg81
g639
sg74
(lp646
g67
(g76
g69
NtRp647
(dp648
g72
(dp649
g80
I3
ssg81
Nsg74
(lp650
g67
(g83
g69
NtRp651
(dp652
g72
(dp653
sg81
g647
sg74
(lp654
g67
(g88
g69
NtRp655
(dp656
g72
(dp657
g92
g93
ssg81
g651
sg74
(lp658
g281
asbag67
(g88
g69
NtRp659
(dp660
g72
(dp661
g99
g100
ssg81
g651
sg74
(lp662
S':'
asbag67
(g88
g69
NtRp663
(dp664
g72
(dp665
sg81
g651
sg74
(lp666
g67
(g68
g69
NtRp667
(dp668
g72
(dp669
g80
I3
ssg81
g663
sg74
(lp670
S''
asbasbasbag67
(g83
g69
NtRp671
(dp672
g72
(dp673
sg81
g647
sg74
(lp674
g67
(g88
g69
NtRp675
(dp676
g72
(dp677
g92
g93
ssg81
g671
sg74
(lp678
g302
asbag67
(g88
g69
NtRp679
(dp680
g72
(dp681
g99
g100
ssg81
g671
sg74
(lp682
S':'
asbag67
(g88
g69
NtRp683
(dp684
g72
(dp685
sg81
g671
sg74
(lp686
g67
(g68
g69
NtRp687
(dp688
g72
(dp689
g80
I3
ssg81
g683
sg74
(lp690
S''
asbasbasbag67
(g83
g69
NtRp691
(dp692
g72
(dp693
sg81
g647
sg74
(lp694
g67
(g88
g69
NtRp695
(dp696
g72
(dp697
g92
g93
ssg81
g691
sg74
(lp698
g323
asbag67
(g88
g69
NtRp699
(dp700
g72
(dp701
g99
g100
ssg81
g691
sg74
(lp702
S':'
asbag67
(g88
g69
NtRp703
(dp704
g72
(dp705
sg81
g691
sg74
(lp706
g67
(g68
g69
NtRp707
(dp708
g72
(dp709
g80
I3
ssg81
g703
sg74
(lp710
S''
asbasbasbag67
(g83
g69
NtRp711
(dp712
g72
(dp713
sg81
g647
sg74
(lp714
g67
(g88
g69
NtRp715
(dp716
g72
(dp717
g92
g93
ssg81
g711
sg74
(lp718
g344
asbag67
(g88
g69
NtRp719
(dp720
g72
(dp721
g99
g100
ssg81
g711
sg74
(lp722
S':'
asbag67
(g88
g69
NtRp723
(dp724
g72
(dp725
sg81
g711
sg74
(lp726
g67
(g68
g69
NtRp727
(dp728
g72
(dp729
g80
I3
ssg81
g723
sg74
(lp730
S''
asbasbasbag67
(g83
g69
NtRp731
(dp732
g72
(dp733
sg81
g647
sg74
(lp734
g67
(g88
g69
NtRp735
(dp736
g72
(dp737
g92
g93
ssg81
g731
sg74
(lp738
g365
asbag67
(g88
g69
NtRp739
(dp740
g72
(dp741
g99
g100
ssg81
g731
sg74
(lp742
S':'
asbag67
(g88
g69
NtRp743
(dp744
g72
(dp745
sg81
g731
sg74
(lp746
g67
(g68
g69
NtRp747
(dp748
g72
(dp749
g80
I3
ssg81
g743
sg74
(lp750
S''
asbasbasbag67
(g83
g69
NtRp751
(dp752
g72
(dp753
sg81
g647
sg74
(lp754
g67
(g88
g69
NtRp755
(dp756
g72
(dp757
g92
g93
ssg81
g751
sg74
(lp758
g386
asbag67
(g88
g69
NtRp759
(dp760
g72
(dp761
g99
g100
ssg81
g751
sg74
(lp762
S':'
asbag67
(g88
g69
NtRp763
(dp764
g72
(dp765
sg81
g751
sg74
(lp766
g67
(g68
g69
NtRp767
(dp768
g72
(dp769
g80
I3
ssg81
g763
sg74
(lp770
S''
asbasbasbag67
(g83
g69
NtRp771
(dp772
g72
(dp773
sg81
g647
sg74
(lp774
g67
(g88
g69
NtRp775
(dp776
g72
(dp777
g92
g93
ssg81
g771
sg74
(lp778
g407
asbag67
(g88
g69
NtRp779
(dp780
g72
(dp781
g99
g100
ssg81
g771
sg74
(lp782
S':'
asbag67
(g88
g69
NtRp783
(dp784
g72
(dp785
sg81
g771
sg74
(lp786
g67
(g68
g69
NtRp787
(dp788
g72
(dp789
g80
I3
ssg81
g783
sg74
(lp790
S''
asbasbasbag67
(g83
g69
NtRp791
(dp792
g72
(dp793
sg81
g647
sg74
(lp794
g67
(g88
g69
NtRp795
(dp796
g72
(dp797
g92
g93
ssg81
g791
sg74
(lp798
g428
asbag67
(g88
g69
NtRp799
(dp800
g72
(dp801
g99
g100
ssg81
g791
sg74
(lp802
S':'
asbag67
(g88
g69
NtRp803
(dp804
g72
(dp805
sg81
g791
sg74
(lp806
g67
(g68
g69
NtRp807
(dp808
g72
(dp809
g80
I3
ssg81
g803
sg74
(lp810
S''
asbasbasbasbasbasbasbasbasbasbasbag67
(g83
g69
NtRp811
(dp812
g72
(dp813
sg81
g77
sg74
(lp814
g67
(g88
g69
NtRp815
(dp816
g72
(dp817
g92
g93
ssg81
g811
sg74
(lp818
S'env'
p819
asbag67
(g88
g69
NtRp820
(dp821
g72
(dp822
g99
g100
ssg81
g811
sg74
(lp823
S':'
asbag67
(g88
g69
NtRp824
(dp825
g72
(dp826
sg81
g811
sg74
(lp827
g67
(g68
g69
NtRp828
(dp829
g72
(dp830
g80
I5
ssg81
g824
sg74
(lp831
g67
(g76
g69
NtRp832
(dp833
g72
(dp834
g80
I4
ssg81
Nsg74
(lp835
g67
(g83
g69
NtRp836
(dp837
g72
(dp838
sg81
g832
sg74
(lp839
g67
(g88
g69
NtRp840
(dp841
g72
(dp842
g92
g93
ssg81
g836
sg74
(lp843
S'app_folders'
p844
asbag67
(g88
g69
NtRp845
(dp846
g72
(dp847
g99
g100
ssg81
g836
sg74
(lp848
S':'
asbag67
(g88
g69
NtRp849
(dp850
g72
(dp851
sg81
g836
sg74
(lp852
g67
(g68
g69
NtRp853
(dp854
g72
(dp855
g80
I4
ssg81
g849
sg74
(lp856
S"set(['/home/fish/Desktop/web2py/applications/admin/', '/home/fish/Desktop/web2py/applications/welcome/', '/home/fish/Desktop/web2py/applications/vsalad/'])"
p857
asbasbasbag67
(g83
g69
NtRp858
(dp859
g72
(dp860
sg81
g832
sg74
(lp861
g67
(g88
g69
NtRp862
(dp863
g72
(dp864
g92
g93
ssg81
g858
sg74
(lp865
S'applications_parent'
p866
asbag67
(g88
g69
NtRp867
(dp868
g72
(dp869
g99
g100
ssg81
g858
sg74
(lp870
S':'
asbag67
(g88
g69
NtRp871
(dp872
g72
(dp873
sg81
g858
sg74
(lp874
g67
(g68
g69
NtRp875
(dp876
g72
(dp877
g80
I4
ssg81
g871
sg74
(lp878
S'/home/fish/Desktop/web2py'
p879
asbasbasbag67
(g83
g69
NtRp880
(dp881
g72
(dp882
sg81
g832
sg74
(lp883
g67
(g88
g69
NtRp884
(dp885
g72
(dp886
g92
g93
ssg81
g880
sg74
(lp887
S'cmd_args'
p888
asbag67
(g88
g69
NtRp889
(dp890
g72
(dp891
g99
g100
ssg81
g880
sg74
(lp892
S':'
asbag67
(g88
g69
NtRp893
(dp894
g72
(dp895
sg81
g880
sg74
(lp896
g67
(g68
g69
NtRp897
(dp898
g72
(dp899
g80
I4
ssg81
g893
sg74
(lp900
g67
(g76
g69
NtRp901
(dp902
g72
(dp903
g80
I3
ssg81
Nsg74
(lp904
sbasbasbasbag67
(g83
g69
NtRp905
(dp906
g72
(dp907
sg81
g832
sg74
(lp908
g67
(g88
g69
NtRp909
(dp910
g72
(dp911
g92
g93
ssg81
g905
sg74
(lp912
S'cmd_options'
p913
asbag67
(g88
g69
NtRp914
(dp915
g72
(dp916
g99
g100
ssg81
g905
sg74
(lp917
S':'
asbag67
(g88
g69
NtRp918
(dp919
g72
(dp920
sg81
g905
sg74
(lp921
g67
(g68
g69
NtRp922
(dp923
g72
(dp924
g80
I4
ssg81
g918
sg74
(lp925
S"<Values at 0x20375a8: {'verbose': False, 'ip': '127.0.0.1', 'shutdown_timeout': 5, 'taskbar': False, 'nocron': False, 'pid_filename': 'httpserver.pid', 'maxthreads': None, 'softcron': False, 'server_name': 'Master-Fish', 'bpython': False, 'nogui': False, 'port': 8000, 'extcron': False, 'debuglevel': 30, 'test': None, 'folder': '/home/fish/Desktop/web2py', 'config': '', 'import_models': False, 'winservice': '', 'shell': None, 'run': '', 'log_filename': 'httpserver.log', 'args': [''], 'socket_timeout': 5, 'ssl_ca_certificate': None, 'scheduler': None, 'profiler_filename': None, 'ssl_private_key': '', 'password': '<ask>', 'request_queue_size': 5, 'ssl_certificate': '', 'cronjob': False, 'numthreads': None, 'quiet': False, 'interfaces': None, 'minthreads': None, 'timeout': 10, 'plain': False, 'nobanner': False}>"
p926
asbasbasbag67
(g83
g69
NtRp927
(dp928
g72
(dp929
sg81
g832
sg74
(lp930
g67
(g88
g69
NtRp931
(dp932
g72
(dp933
g92
g93
ssg81
g927
sg74
(lp934
S'db_sessions'
p935
asbag67
(g88
g69
NtRp936
(dp937
g72
(dp938
g99
g100
ssg81
g927
sg74
(lp939
S':'
asbag67
(g88
g69
NtRp940
(dp941
g72
(dp942
sg81
g927
sg74
(lp943
g67
(g68
g69
NtRp944
(dp945
g72
(dp946
g80
I4
ssg81
g940
sg74
(lp947
S'set([])'
p948
asbasbasbag67
(g83
g69
NtRp949
(dp950
g72
(dp951
sg81
g832
sg74
(lp952
g67
(g88
g69
NtRp953
(dp954
g72
(dp955
g92
g93
ssg81
g949
sg74
(lp956
S'debugging'
p957
asbag67
(g88
g69
NtRp958
(dp959
g72
(dp960
g99
g100
ssg81
g949
sg74
(lp961
S':'
asbag67
(g88
g69
NtRp962
(dp963
g72
(dp964
sg81
g949
sg74
(lp965
g67
(g68
g69
NtRp966
(dp967
g72
(dp968
g80
I4
ssg81
g962
sg74
(lp969
S'True'
p970
asbasbasbag67
(g83
g69
NtRp971
(dp972
g72
(dp973
sg81
g832
sg74
(lp974
g67
(g88
g69
NtRp975
(dp976
g72
(dp977
g92
g93
ssg81
g971
sg74
(lp978
S'gluon_parent'
p979
asbag67
(g88
g69
NtRp980
(dp981
g72
(dp982
g99
g100
ssg81
g971
sg74
(lp983
S':'
asbag67
(g88
g69
NtRp984
(dp985
g72
(dp986
sg81
g971
sg74
(lp987
g67
(g68
g69
NtRp988
(dp989
g72
(dp990
g80
I4
ssg81
g984
sg74
(lp991
S'/home/fish/Desktop/web2py'
p992
asbasbasbag67
(g83
g69
NtRp993
(dp994
g72
(dp995
sg81
g832
sg74
(lp996
g67
(g88
g69
NtRp997
(dp998
g72
(dp999
g92
g93
ssg81
g993
sg74
(lp1000
S'http_accept'
p1001
asbag67
(g88
g69
NtRp1002
(dp1003
g72
(dp1004
g99
g100
ssg81
g993
sg74
(lp1005
S':'
asbag67
(g88
g69
NtRp1006
(dp1007
g72
(dp1008
sg81
g993
sg74
(lp1009
g67
(g68
g69
NtRp1010
(dp1011
g72
(dp1012
g80
I4
ssg81
g1006
sg74
(lp1013
S'text/html,application/xhtml+xml,application/xml;q=0.9,*/*;q=0.8'
p1014
asbasbasbag67
(g83
g69
NtRp1015
(dp1016
g72
(dp1017
sg81
g832
sg74
(lp1018
g67
(g88
g69
NtRp1019
(dp1020
g72
(dp1021
g92
g93
ssg81
g1015
sg74
(lp1022
S'http_accept_charset'
p1023
asbag67
(g88
g69
NtRp1024
(dp1025
g72
(dp1026
g99
g100
ssg81
g1015
sg74
(lp1027
S':'
asbag67
(g88
g69
NtRp1028
(dp1029
g72
(dp1030
sg81
g1015
sg74
(lp1031
g67
(g68
g69
NtRp1032
(dp1033
g72
(dp1034
g80
I4
ssg81
g1028
sg74
(lp1035
S'ISO-8859-1,utf-8;q=0.7,*;q=0.3'
p1036
asbasbasbag67
(g83
g69
NtRp1037
(dp1038
g72
(dp1039
sg81
g832
sg74
(lp1040
g67
(g88
g69
NtRp1041
(dp1042
g72
(dp1043
g92
g93
ssg81
g1037
sg74
(lp1044
S'http_accept_encoding'
p1045
asbag67
(g88
g69
NtRp1046
(dp1047
g72
(dp1048
g99
g100
ssg81
g1037
sg74
(lp1049
S':'
asbag67
(g88
g69
NtRp1050
(dp1051
g72
(dp1052
sg81
g1037
sg74
(lp1053
g67
(g68
g69
NtRp1054
(dp1055
g72
(dp1056
g80
I4
ssg81
g1050
sg74
(lp1057
S'gzip,deflate,sdch'
p1058
asbasbasbag67
(g83
g69
NtRp1059
(dp1060
g72
(dp1061
sg81
g832
sg74
(lp1062
g67
(g88
g69
NtRp1063
(dp1064
g72
(dp1065
g92
g93
ssg81
g1059
sg74
(lp1066
S'http_accept_language'
p1067
asbag67
(g88
g69
NtRp1068
(dp1069
g72
(dp1070
g99
g100
ssg81
g1059
sg74
(lp1071
S':'
asbag67
(g88
g69
NtRp1072
(dp1073
g72
(dp1074
sg81
g1059
sg74
(lp1075
g67
(g68
g69
NtRp1076
(dp1077
g72
(dp1078
g80
I4
ssg81
g1072
sg74
(lp1079
S'en-US,en;q=0.8,fr;q=0.6'
p1080
asbasbasbag67
(g83
g69
NtRp1081
(dp1082
g72
(dp1083
sg81
g832
sg74
(lp1084
g67
(g88
g69
NtRp1085
(dp1086
g72
(dp1087
g92
g93
ssg81
g1081
sg74
(lp1088
S'http_cache_control'
p1089
asbag67
(g88
g69
NtRp1090
(dp1091
g72
(dp1092
g99
g100
ssg81
g1081
sg74
(lp1093
S':'
asbag67
(g88
g69
NtRp1094
(dp1095
g72
(dp1096
sg81
g1081
sg74
(lp1097
g67
(g68
g69
NtRp1098
(dp1099
g72
(dp1100
g80
I4
ssg81
g1094
sg74
(lp1101
S'max-age=0'
p1102
asbasbasbag67
(g83
g69
NtRp1103
(dp1104
g72
(dp1105
sg81
g832
sg74
(lp1106
g67
(g88
g69
NtRp1107
(dp1108
g72
(dp1109
g92
g93
ssg81
g1103
sg74
(lp1110
S'http_connection'
p1111
asbag67
(g88
g69
NtRp1112
(dp1113
g72
(dp1114
g99
g100
ssg81
g1103
sg74
(lp1115
S':'
asbag67
(g88
g69
NtRp1116
(dp1117
g72
(dp1118
sg81
g1103
sg74
(lp1119
g67
(g68
g69
NtRp1120
(dp1121
g72
(dp1122
g80
I4
ssg81
g1116
sg74
(lp1123
S'keep-alive'
p1124
asbasbasbag67
(g83
g69
NtRp1125
(dp1126
g72
(dp1127
sg81
g832
sg74
(lp1128
g67
(g88
g69
NtRp1129
(dp1130
g72
(dp1131
g92
g93
ssg81
g1125
sg74
(lp1132
S'http_cookie'
p1133
asbag67
(g88
g69
NtRp1134
(dp1135
g72
(dp1136
g99
g100
ssg81
g1125
sg74
(lp1137
S':'
asbag67
(g88
g69
NtRp1138
(dp1139
g72
(dp1140
sg81
g1125
sg74
(lp1141
g67
(g68
g69
NtRp1142
(dp1143
g72
(dp1144
g80
I4
ssg81
g1138
sg74
(lp1145
S'session_id_welcome=127.0.0.1-58a1de35-06e9-4f78-871a-bb07c5d631a0; session_id_vsalad=127.0.0.1-9461b668-4692-465d-9b82-e1bbad80691c; session_id_admin=127.0.0.1-5e1e78e7-16be-44ef-bb9c-a2506e199775'
p1146
asbasbasbag67
(g83
g69
NtRp1147
(dp1148
g72
(dp1149
sg81
g832
sg74
(lp1150
g67
(g88
g69
NtRp1151
(dp1152
g72
(dp1153
g92
g93
ssg81
g1147
sg74
(lp1154
S'http_host'
p1155
asbag67
(g88
g69
NtRp1156
(dp1157
g72
(dp1158
g99
g100
ssg81
g1147
sg74
(lp1159
S':'
asbag67
(g88
g69
NtRp1160
(dp1161
g72
(dp1162
sg81
g1147
sg74
(lp1163
g67
(g68
g69
NtRp1164
(dp1165
g72
(dp1166
g80
I4
ssg81
g1160
sg74
(lp1167
S'127.0.0.1:8000'
p1168
asbasbasbag67
(g83
g69
NtRp1169
(dp1170
g72
(dp1171
sg81
g832
sg74
(lp1172
g67
(g88
g69
NtRp1173
(dp1174
g72
(dp1175
g92
g93
ssg81
g1169
sg74
(lp1176
S'http_user_agent'
p1177
asbag67
(g88
g69
NtRp1178
(dp1179
g72
(dp1180
g99
g100
ssg81
g1169
sg74
(lp1181
S':'
asbag67
(g88
g69
NtRp1182
(dp1183
g72
(dp1184
sg81
g1169
sg74
(lp1185
g67
(g68
g69
NtRp1186
(dp1187
g72
(dp1188
g80
I4
ssg81
g1182
sg74
(lp1189
S'Mozilla/5.0 (X11; Linux x86_64) AppleWebKit/535.19 (KHTML, like Gecko) Chrome/18.0.1025.151 Safari/535.19'
p1190
asbasbasbag67
(g83
g69
NtRp1191
(dp1192
g72
(dp1193
sg81
g832
sg74
(lp1194
g67
(g88
g69
NtRp1195
(dp1196
g72
(dp1197
g92
g93
ssg81
g1191
sg74
(lp1198
S'is_jython'
p1199
asbag67
(g88
g69
NtRp1200
(dp1201
g72
(dp1202
g99
g100
ssg81
g1191
sg74
(lp1203
S':'
asbag67
(g88
g69
NtRp1204
(dp1205
g72
(dp1206
sg81
g1191
sg74
(lp1207
g67
(g68
g69
NtRp1208
(dp1209
g72
(dp1210
g80
I4
ssg81
g1204
sg74
(lp1211
g110
asbasbasbag67
(g83
g69
NtRp1212
(dp1213
g72
(dp1214
sg81
g832
sg74
(lp1215
g67
(g88
g69
NtRp1216
(dp1217
g72
(dp1218
g92
g93
ssg81
g1212
sg74
(lp1219
S'is_pypy'
p1220
asbag67
(g88
g69
NtRp1221
(dp1222
g72
(dp1223
g99
g100
ssg81
g1212
sg74
(lp1224
S':'
asbag67
(g88
g69
NtRp1225
(dp1226
g72
(dp1227
sg81
g1212
sg74
(lp1228
g67
(g68
g69
NtRp1229
(dp1230
g72
(dp1231
g80
I4
ssg81
g1225
sg74
(lp1232
g110
asbasbasbag67
(g83
g69
NtRp1233
(dp1234
g72
(dp1235
sg81
g832
sg74
(lp1236
g67
(g88
g69
NtRp1237
(dp1238
g72
(dp1239
g92
g93
ssg81
g1233
sg74
(lp1240
S'path_info'
p1241
asbag67
(g88
g69
NtRp1242
(dp1243
g72
(dp1244
g99
g100
ssg81
g1233
sg74
(lp1245
S':'
asbag67
(g88
g69
NtRp1246
(dp1247
g72
(dp1248
sg81
g1233
sg74
(lp1249
g67
(g68
g69
NtRp1250
(dp1251
g72
(dp1252
g80
I4
ssg81
g1246
sg74
(lp1253
S'/vsalad/action/comments'
p1254
asbasbasbag67
(g83
g69
NtRp1255
(dp1256
g72
(dp1257
sg81
g832
sg74
(lp1258
g67
(g88
g69
NtRp1259
(dp1260
g72
(dp1261
g92
g93
ssg81
g1255
sg74
(lp1262
S'query_string'
p1263
asbag67
(g88
g69
NtRp1264
(dp1265
g72
(dp1266
g99
g100
ssg81
g1255
sg74
(lp1267
S':'
asbag67
(g88
g69
NtRp1268
(dp1269
g72
(dp1270
sg81
g1255
sg74
(lp1271
g67
(g68
g69
NtRp1272
(dp1273
g72
(dp1274
g80
I4
ssg81
g1268
sg74
(lp1275
S''
asbasbasbag67
(g83
g69
NtRp1276
(dp1277
g72
(dp1278
sg81
g832
sg74
(lp1279
g67
(g88
g69
NtRp1280
(dp1281
g72
(dp1282
g92
g93
ssg81
g1276
sg74
(lp1283
S'remote_addr'
p1284
asbag67
(g88
g69
NtRp1285
(dp1286
g72
(dp1287
g99
g100
ssg81
g1276
sg74
(lp1288
S':'
asbag67
(g88
g69
NtRp1289
(dp1290
g72
(dp1291
sg81
g1276
sg74
(lp1292
g67
(g68
g69
NtRp1293
(dp1294
g72
(dp1295
g80
I4
ssg81
g1289
sg74
(lp1296
g200
asbasbasbag67
(g83
g69
NtRp1297
(dp1298
g72
(dp1299
sg81
g832
sg74
(lp1300
g67
(g88
g69
NtRp1301
(dp1302
g72
(dp1303
g92
g93
ssg81
g1297
sg74
(lp1304
S'remote_port'
p1305
asbag67
(g88
g69
NtRp1306
(dp1307
g72
(dp1308
g99
g100
ssg81
g1297
sg74
(lp1309
S':'
asbag67
(g88
g69
NtRp1310
(dp1311
g72
(dp1312
sg81
g1297
sg74
(lp1313
g67
(g68
g69
NtRp1314
(dp1315
g72
(dp1316
g80
I4
ssg81
g1310
sg74
(lp1317
S'45083'
p1318
asbasbasbag67
(g83
g69
NtRp1319
(dp1320
g72
(dp1321
sg81
g832
sg74
(lp1322
g67
(g88
g69
NtRp1323
(dp1324
g72
(dp1325
g92
g93
ssg81
g1319
sg74
(lp1326
S'request_method'
p1327
asbag67
(g88
g69
NtRp1328
(dp1329
g72
(dp1330
g99
g100
ssg81
g1319
sg74
(lp1331
S':'
asbag67
(g88
g69
NtRp1332
(dp1333
g72
(dp1334
sg81
g1319
sg74
(lp1335
g67
(g68
g69
NtRp1336
(dp1337
g72
(dp1338
g80
I4
ssg81
g1332
sg74
(lp1339
S'GET'
p1340
asbasbasbag67
(g83
g69
NtRp1341
(dp1342
g72
(dp1343
sg81
g832
sg74
(lp1344
g67
(g88
g69
NtRp1345
(dp1346
g72
(dp1347
g92
g93
ssg81
g1341
sg74
(lp1348
S'script_name'
p1349
asbag67
(g88
g69
NtRp1350
(dp1351
g72
(dp1352
g99
g100
ssg81
g1341
sg74
(lp1353
S':'
asbag67
(g88
g69
NtRp1354
(dp1355
g72
(dp1356
sg81
g1341
sg74
(lp1357
g67
(g68
g69
NtRp1358
(dp1359
g72
(dp1360
g80
I4
ssg81
g1354
sg74
(lp1361
S''
asbasbasbag67
(g83
g69
NtRp1362
(dp1363
g72
(dp1364
sg81
g832
sg74
(lp1365
g67
(g88
g69
NtRp1366
(dp1367
g72
(dp1368
g92
g93
ssg81
g1362
sg74
(lp1369
S'server_name'
p1370
asbag67
(g88
g69
NtRp1371
(dp1372
g72
(dp1373
g99
g100
ssg81
g1362
sg74
(lp1374
S':'
asbag67
(g88
g69
NtRp1375
(dp1376
g72
(dp1377
sg81
g1362
sg74
(lp1378
g67
(g68
g69
NtRp1379
(dp1380
g72
(dp1381
g80
I4
ssg81
g1375
sg74
(lp1382
S'Master-Fish'
p1383
asbasbasbag67
(g83
g69
NtRp1384
(dp1385
g72
(dp1386
sg81
g832
sg74
(lp1387
g67
(g88
g69
NtRp1388
(dp1389
g72
(dp1390
g92
g93
ssg81
g1384
sg74
(lp1391
S'server_port'
p1392
asbag67
(g88
g69
NtRp1393
(dp1394
g72
(dp1395
g99
g100
ssg81
g1384
sg74
(lp1396
S':'
asbag67
(g88
g69
NtRp1397
(dp1398
g72
(dp1399
sg81
g1384
sg74
(lp1400
g67
(g68
g69
NtRp1401
(dp1402
g72
(dp1403
g80
I4
ssg81
g1397
sg74
(lp1404
S'8000'
p1405
asbasbasbag67
(g83
g69
NtRp1406
(dp1407
g72
(dp1408
sg81
g832
sg74
(lp1409
g67
(g88
g69
NtRp1410
(dp1411
g72
(dp1412
g92
g93
ssg81
g1406
sg74
(lp1413
S'server_protocol'
p1414
asbag67
(g88
g69
NtRp1415
(dp1416
g72
(dp1417
g99
g100
ssg81
g1406
sg74
(lp1418
S':'
asbag67
(g88
g69
NtRp1419
(dp1420
g72
(dp1421
sg81
g1406
sg74
(lp1422
g67
(g68
g69
NtRp1423
(dp1424
g72
(dp1425
g80
I4
ssg81
g1419
sg74
(lp1426
S'HTTP/1.1'
p1427
asbasbasbag67
(g83
g69
NtRp1428
(dp1429
g72
(dp1430
sg81
g832
sg74
(lp1431
g67
(g88
g69
NtRp1432
(dp1433
g72
(dp1434
g92
g93
ssg81
g1428
sg74
(lp1435
S'server_software'
p1436
asbag67
(g88
g69
NtRp1437
(dp1438
g72
(dp1439
g99
g100
ssg81
g1428
sg74
(lp1440
S':'
asbag67
(g88
g69
NtRp1441
(dp1442
g72
(dp1443
sg81
g1428
sg74
(lp1444
g67
(g68
g69
NtRp1445
(dp1446
g72
(dp1447
g80
I4
ssg81
g1441
sg74
(lp1448
S'Rocket 1.2.4'
p1449
asbasbasbag67
(g83
g69
NtRp1450
(dp1451
g72
(dp1452
sg81
g832
sg74
(lp1453
g67
(g88
g69
NtRp1454
(dp1455
g72
(dp1456
g92
g93
ssg81
g1450
sg74
(lp1457
S'web2py_crontype'
p1458
asbag67
(g88
g69
NtRp1459
(dp1460
g72
(dp1461
g99
g100
ssg81
g1450
sg74
(lp1462
S':'
asbag67
(g88
g69
NtRp1463
(dp1464
g72
(dp1465
sg81
g1450
sg74
(lp1466
g67
(g68
g69
NtRp1467
(dp1468
g72
(dp1469
g80
I4
ssg81
g1463
sg74
(lp1470
S'hard'
p1471
asbasbasbag67
(g83
g69
NtRp1472
(dp1473
g72
(dp1474
sg81
g832
sg74
(lp1475
g67
(g88
g69
NtRp1476
(dp1477
g72
(dp1478
g92
g93
ssg81
g1472
sg74
(lp1479
S'web2py_path'
p1480
asbag67
(g88
g69
NtRp1481
(dp1482
g72
(dp1483
g99
g100
ssg81
g1472
sg74
(lp1484
S':'
asbag67
(g88
g69
NtRp1485
(dp1486
g72
(dp1487
sg81
g1472
sg74
(lp1488
g67
(g68
g69
NtRp1489
(dp1490
g72
(dp1491
g80
I4
ssg81
g1485
sg74
(lp1492
g879
asbasbasbag67
(g83
g69
NtRp1493
(dp1494
g72
(dp1495
sg81
g832
sg74
(lp1496
g67
(g88
g69
NtRp1497
(dp1498
g72
(dp1499
g92
g93
ssg81
g1493
sg74
(lp1500
S'web2py_version'
p1501
asbag67
(g88
g69
NtRp1502
(dp1503
g72
(dp1504
g99
g100
ssg81
g1493
sg74
(lp1505
S':'
asbag67
(g88
g69
NtRp1506
(dp1507
g72
(dp1508
sg81
g1493
sg74
(lp1509
g67
(g68
g69
NtRp1510
(dp1511
g72
(dp1512
g80
I4
ssg81
g1506
sg74
(lp1513
g67
(g76
g69
NtRp1514
(dp1515
g72
(dp1516
g80
I3
ssg81
Nsg74
(lp1517
g67
(g83
g69
NtRp1518
(dp1519
g72
(dp1520
sg81
g1514
sg74
(lp1521
g67
(g88
g69
NtRp1522
(dp1523
g72
(dp1524
sg81
g1518
sg74
(lp1525
g67
(g68
g69
NtRp1526
(dp1527
g72
(dp1528
g80
I3
ssg81
g1522
sg74
(lp1529
S'1'
asbasbasbag67
(g83
g69
NtRp1530
(dp1531
g72
(dp1532
sg81
g1514
sg74
(lp1533
g67
(g88
g69
NtRp1534
(dp1535
g72
(dp1536
sg81
g1530
sg74
(lp1537
g67
(g68
g69
NtRp1538
(dp1539
g72
(dp1540
g80
I3
ssg81
g1534
sg74
(lp1541
S'99'
p1542
asbasbasbag67
(g83
g69
NtRp1543
(dp1544
g72
(dp1545
sg81
g1514
sg74
(lp1546
g67
(g88
g69
NtRp1547
(dp1548
g72
(dp1549
sg81
g1543
sg74
(lp1550
g67
(g68
g69
NtRp1551
(dp1552
g72
(dp1553
g80
I3
ssg81
g1547
sg74
(lp1554
S'7'
asbasbasbag67
(g83
g69
NtRp1555
(dp1556
g72
(dp1557
sg81
g1514
sg74
(lp1558
g67
(g88
g69
NtRp1559
(dp1560
g72
(dp1561
sg81
g1555
sg74
(lp1562
g67
(g68
g69
NtRp1563
(dp1564
g72
(dp1565
g80
I3
ssg81
g1559
sg74
(lp1566
S'datetime.datetime(2012, 3, 4, 22, 12, 8)'
p1567
asbasbasbag67
(g83
g69
NtRp1568
(dp1569
g72
(dp1570
sg81
g1514
sg74
(lp1571
g67
(g88
g69
NtRp1572
(dp1573
g72
(dp1574
sg81
g1568
sg74
(lp1575
g67
(g68
g69
NtRp1576
(dp1577
g72
(dp1578
g80
I3
ssg81
g1572
sg74
(lp1579
S'stable'
p1580
asbasbasbasbasbasbasbag67
(g83
g69
NtRp1581
(dp1582
g72
(dp1583
sg81
g832
sg74
(lp1584
g67
(g88
g69
NtRp1585
(dp1586
g72
(dp1587
g92
g93
ssg81
g1581
sg74
(lp1588
S'wsgi_errors'
p1589
asbag67
(g88
g69
NtRp1590
(dp1591
g72
(dp1592
g99
g100
ssg81
g1581
sg74
(lp1593
S':'
asbag67
(g88
g69
NtRp1594
(dp1595
g72
(dp1596
sg81
g1581
sg74
(lp1597
g67
(g68
g69
NtRp1598
(dp1599
g72
(dp1600
g80
I4
ssg81
g1594
sg74
(lp1601
S"<open file '<stderr>', mode 'w' at 0x7ff96880b270>"
p1602
asbasbasbag67
(g83
g69
NtRp1603
(dp1604
g72
(dp1605
sg81
g832
sg74
(lp1606
g67
(g88
g69
NtRp1607
(dp1608
g72
(dp1609
g92
g93
ssg81
g1603
sg74
(lp1610
S'wsgi_file_wrapper'
p1611
asbag67
(g88
g69
NtRp1612
(dp1613
g72
(dp1614
g99
g100
ssg81
g1603
sg74
(lp1615
S':'
asbag67
(g88
g69
NtRp1616
(dp1617
g72
(dp1618
sg81
g1603
sg74
(lp1619
g67
(g68
g69
NtRp1620
(dp1621
g72
(dp1622
g80
I4
ssg81
g1616
sg74
(lp1623
S'<class wsgiref.util.FileWrapper at 0x1f13870>'
p1624
asbasbasbag67
(g83
g69
NtRp1625
(dp1626
g72
(dp1627
sg81
g832
sg74
(lp1628
g67
(g88
g69
NtRp1629
(dp1630
g72
(dp1631
g92
g93
ssg81
g1625
sg74
(lp1632
S'wsgi_input'
p1633
asbag67
(g88
g69
NtRp1634
(dp1635
g72
(dp1636
g99
g100
ssg81
g1625
sg74
(lp1637
S':'
asbag67
(g88
g69
NtRp1638
(dp1639
g72
(dp1640
sg81
g1625
sg74
(lp1641
g67
(g68
g69
NtRp1642
(dp1643
g72
(dp1644
g80
I4
ssg81
g1638
sg74
(lp1645
S'<socket._fileobject object at 0x27ad350>'
p1646
asbasbasbag67
(g83
g69
NtRp1647
(dp1648
g72
(dp1649
sg81
g832
sg74
(lp1650
g67
(g88
g69
NtRp1651
(dp1652
g72
(dp1653
g92
g93
ssg81
g1647
sg74
(lp1654
S'wsgi_multiprocess'
p1655
asbag67
(g88
g69
NtRp1656
(dp1657
g72
(dp1658
g99
g100
ssg81
g1647
sg74
(lp1659
S':'
asbag67
(g88
g69
NtRp1660
(dp1661
g72
(dp1662
sg81
g1647
sg74
(lp1663
g67
(g68
g69
NtRp1664
(dp1665
g72
(dp1666
g80
I4
ssg81
g1660
sg74
(lp1667
g110
asbasbasbag67
(g83
g69
NtRp1668
(dp1669
g72
(dp1670
sg81
g832
sg74
(lp1671
g67
(g88
g69
NtRp1672
(dp1673
g72
(dp1674
g92
g93
ssg81
g1668
sg74
(lp1675
S'wsgi_multithread'
p1676
asbag67
(g88
g69
NtRp1677
(dp1678
g72
(dp1679
g99
g100
ssg81
g1668
sg74
(lp1680
S':'
asbag67
(g88
g69
NtRp1681
(dp1682
g72
(dp1683
sg81
g1668
sg74
(lp1684
g67
(g68
g69
NtRp1685
(dp1686
g72
(dp1687
g80
I4
ssg81
g1681
sg74
(lp1688
g970
asbasbasbag67
(g83
g69
NtRp1689
(dp1690
g72
(dp1691
sg81
g832
sg74
(lp1692
g67
(g88
g69
NtRp1693
(dp1694
g72
(dp1695
g92
g93
ssg81
g1689
sg74
(lp1696
S'wsgi_run_once'
p1697
asbag67
(g88
g69
NtRp1698
(dp1699
g72
(dp1700
g99
g100
ssg81
g1689
sg74
(lp1701
S':'
asbag67
(g88
g69
NtRp1702
(dp1703
g72
(dp1704
sg81
g1689
sg74
(lp1705
g67
(g68
g69
NtRp1706
(dp1707
g72
(dp1708
g80
I4
ssg81
g1702
sg74
(lp1709
g110
asbasbasbag67
(g83
g69
NtRp1710
(dp1711
g72
(dp1712
sg81
g832
sg74
(lp1713
g67
(g88
g69
NtRp1714
(dp1715
g72
(dp1716
g92
g93
ssg81
g1710
sg74
(lp1717
S'wsgi_url_scheme'
p1718
asbag67
(g88
g69
NtRp1719
(dp1720
g72
(dp1721
g99
g100
ssg81
g1710
sg74
(lp1722
S':'
asbag67
(g88
g69
NtRp1723
(dp1724
g72
(dp1725
sg81
g1710
sg74
(lp1726
g67
(g68
g69
NtRp1727
(dp1728
g72
(dp1729
g80
I4
ssg81
g1723
sg74
(lp1730
S'http'
p1731
asbasbasbag67
(g83
g69
NtRp1732
(dp1733
g72
(dp1734
sg81
g832
sg74
(lp1735
g67
(g88
g69
NtRp1736
(dp1737
g72
(dp1738
g92
g93
ssg81
g1732
sg74
(lp1739
S'wsgi_version'
p1740
asbag67
(g88
g69
NtRp1741
(dp1742
g72
(dp1743
g99
g100
ssg81
g1732
sg74
(lp1744
S':'
asbag67
(g88
g69
NtRp1745
(dp1746
g72
(dp1747
sg81
g1732
sg74
(lp1748
g67
(g68
g69
NtRp1749
(dp1750
g72
(dp1751
g80
I4
ssg81
g1745
sg74
(lp1752
g67
(g76
g69
NtRp1753
(dp1754
g72
(dp1755
g80
I3
ssg81
Nsg74
(lp1756
g67
(g83
g69
NtRp1757
(dp1758
g72
(dp1759
sg81
g1753
sg74
(lp1760
g67
(g88
g69
NtRp1761
(dp1762
g72
(dp1763
sg81
g1757
sg74
(lp1764
g67
(g68
g69
NtRp1765
(dp1766
g72
(dp1767
g80
I3
ssg81
g1761
sg74
(lp1768
S'1'
asbasbasbag67
(g83
g69
NtRp1769
(dp1770
g72
(dp1771
sg81
g1753
sg74
(lp1772
g67
(g88
g69
NtRp1773
(dp1774
g72
(dp1775
sg81
g1769
sg74
(lp1776
g67
(g68
g69
NtRp1777
(dp1778
g72
(dp1779
g80
I3
ssg81
g1773
sg74
(lp1780
S'0'
asbasbasbasbasbasbasbasbasbasbasbag67
(g83
g69
NtRp1781
(dp1782
g72
(dp1783
sg81
g77
sg74
(lp1784
g67
(g88
g69
NtRp1785
(dp1786
g72
(dp1787
g92
g93
ssg81
g1781
sg74
(lp1788
S'extension'
p1789
asbag67
(g88
g69
NtRp1790
(dp1791
g72
(dp1792
g99
g100
ssg81
g1781
sg74
(lp1793
S':'
asbag67
(g88
g69
NtRp1794
(dp1795
g72
(dp1796
sg81
g1781
sg74
(lp1797
g67
(g68
g69
NtRp1798
(dp1799
g72
(dp1800
g80
I5
ssg81
g1794
sg74
(lp1801
S'html'
p1802
asbasbasbag67
(g83
g69
NtRp1803
(dp1804
g72
(dp1805
sg81
g77
sg74
(lp1806
g67
(g88
g69
NtRp1807
(dp1808
g72
(dp1809
g92
g93
ssg81
g1803
sg74
(lp1810
S'folder'
p1811
asbag67
(g88
g69
NtRp1812
(dp1813
g72
(dp1814
g99
g100
ssg81
g1803
sg74
(lp1815
S':'
asbag67
(g88
g69
NtRp1816
(dp1817
g72
(dp1818
sg81
g1803
sg74
(lp1819
g67
(g68
g69
NtRp1820
(dp1821
g72
(dp1822
g80
I5
ssg81
g1816
sg74
(lp1823
S'/home/fish/Desktop/web2py/applications/vsalad/'
p1824
asbasbasbag67
(g83
g69
NtRp1825
(dp1826
g72
(dp1827
sg81
g77
sg74
(lp1828
g67
(g88
g69
NtRp1829
(dp1830
g72
(dp1831
g92
g93
ssg81
g1825
sg74
(lp1832
S'function'
p1833
asbag67
(g88
g69
NtRp1834
(dp1835
g72
(dp1836
g99
g100
ssg81
g1825
sg74
(lp1837
S':'
asbag67
(g88
g69
NtRp1838
(dp1839
g72
(dp1840
sg81
g1825
sg74
(lp1841
g67
(g68
g69
NtRp1842
(dp1843
g72
(dp1844
g80
I5
ssg81
g1838
sg74
(lp1845
S'comments'
p1846
asbasbasbag67
(g83
g69
NtRp1847
(dp1848
g72
(dp1849
sg81
g77
sg74
(lp1850
g67
(g88
g69
NtRp1851
(dp1852
g72
(dp1853
g92
g93
ssg81
g1847
sg74
(lp1854
S'get_vars'
p1855
asbag67
(g88
g69
NtRp1856
(dp1857
g72
(dp1858
g99
g100
ssg81
g1847
sg74
(lp1859
S':'
asbag67
(g88
g69
NtRp1860
(dp1861
g72
(dp1862
sg81
g1847
sg74
(lp1863
g67
(g68
g69
NtRp1864
(dp1865
g72
(dp1866
g80
I5
ssg81
g1860
sg74
(lp1867
g67
(g76
g69
NtRp1868
(dp1869
g72
(dp1870
g80
I4
ssg81
Nsg74
(lp1871
sbasbasbasbag67
(g83
g69
NtRp1872
(dp1873
g72
(dp1874
sg81
g77
sg74
(lp1875
g67
(g88
g69
NtRp1876
(dp1877
g72
(dp1878
g92
g93
ssg81
g1872
sg74
(lp1879
S'global_settings'
p1880
asbag67
(g88
g69
NtRp1881
(dp1882
g72
(dp1883
g99
g100
ssg81
g1872
sg74
(lp1884
S':'
asbag67
(g88
g69
NtRp1885
(dp1886
g72
(dp1887
sg81
g1872
sg74
(lp1888
g67
(g68
g69
NtRp1889
(dp1890
g72
(dp1891
g80
I5
ssg81
g1885
sg74
(lp1892
g67
(g76
g69
NtRp1893
(dp1894
g72
(dp1895
g80
I4
ssg81
Nsg74
(lp1896
g67
(g83
g69
NtRp1897
(dp1898
g72
(dp1899
sg81
g1893
sg74
(lp1900
g67
(g88
g69
NtRp1901
(dp1902
g72
(dp1903
g92
g93
ssg81
g1897
sg74
(lp1904
g844
asbag67
(g88
g69
NtRp1905
(dp1906
g72
(dp1907
g99
g100
ssg81
g1897
sg74
(lp1908
S':'
asbag67
(g88
g69
NtRp1909
(dp1910
g72
(dp1911
sg81
g1897
sg74
(lp1912
g67
(g68
g69
NtRp1913
(dp1914
g72
(dp1915
g80
I4
ssg81
g1909
sg74
(lp1916
S"set(['/home/fish/Desktop/web2py/applications/admin/', '/home/fish/Desktop/web2py/applications/welcome/', '/home/fish/Desktop/web2py/applications/vsalad/'])"
p1917
asbasbasbag67
(g83
g69
NtRp1918
(dp1919
g72
(dp1920
sg81
g1893
sg74
(lp1921
g67
(g88
g69
NtRp1922
(dp1923
g72
(dp1924
g92
g93
ssg81
g1918
sg74
(lp1925
g866
asbag67
(g88
g69
NtRp1926
(dp1927
g72
(dp1928
g99
g100
ssg81
g1918
sg74
(lp1929
S':'
asbag67
(g88
g69
NtRp1930
(dp1931
g72
(dp1932
sg81
g1918
sg74
(lp1933
g67
(g68
g69
NtRp1934
(dp1935
g72
(dp1936
g80
I4
ssg81
g1930
sg74
(lp1937
g879
asbasbasbag67
(g83
g69
NtRp1938
(dp1939
g72
(dp1940
sg81
g1893
sg74
(lp1941
g67
(g88
g69
NtRp1942
(dp1943
g72
(dp1944
g92
g93
ssg81
g1938
sg74
(lp1945
g888
asbag67
(g88
g69
NtRp1946
(dp1947
g72
(dp1948
g99
g100
ssg81
g1938
sg74
(lp1949
S':'
asbag67
(g88
g69
NtRp1950
(dp1951
g72
(dp1952
sg81
g1938
sg74
(lp1953
g67
(g68
g69
NtRp1954
(dp1955
g72
(dp1956
g80
I4
ssg81
g1950
sg74
(lp1957
g67
(g76
g69
NtRp1958
(dp1959
g72
(dp1960
g80
I3
ssg81
Nsg74
(lp1961
sbasbasbasbag67
(g83
g69
NtRp1962
(dp1963
g72
(dp1964
sg81
g1893
sg74
(lp1965
g67
(g88
g69
NtRp1966
(dp1967
g72
(dp1968
g92
g93
ssg81
g1962
sg74
(lp1969
g913
asbag67
(g88
g69
NtRp1970
(dp1971
g72
(dp1972
g99
g100
ssg81
g1962
sg74
(lp1973
S':'
asbag67
(g88
g69
NtRp1974
(dp1975
g72
(dp1976
sg81
g1962
sg74
(lp1977
g67
(g68
g69
NtRp1978
(dp1979
g72
(dp1980
g80
I4
ssg81
g1974
sg74
(lp1981
S"<Values at 0x20375a8: {'verbose': False, 'ip': '127.0.0.1', 'shutdown_timeout': 5, 'taskbar': False, 'nocron': False, 'pid_filename': 'httpserver.pid', 'maxthreads': None, 'softcron': False, 'server_name': 'Master-Fish', 'bpython': False, 'nogui': False, 'port': 8000, 'extcron': False, 'debuglevel': 30, 'test': None, 'folder': '/home/fish/Desktop/web2py', 'config': '', 'import_models': False, 'winservice': '', 'shell': None, 'run': '', 'log_filename': 'httpserver.log', 'args': [''], 'socket_timeout': 5, 'ssl_ca_certificate': None, 'scheduler': None, 'profiler_filename': None, 'ssl_private_key': '', 'password': '<ask>', 'request_queue_size': 5, 'ssl_certificate': '', 'cronjob': False, 'numthreads': None, 'quiet': False, 'interfaces': None, 'minthreads': None, 'timeout': 10, 'plain': False, 'nobanner': False}>"
p1982
asbasbasbag67
(g83
g69
NtRp1983
(dp1984
g72
(dp1985
sg81
g1893
sg74
(lp1986
g67
(g88
g69
NtRp1987
(dp1988
g72
(dp1989
g92
g93
ssg81
g1983
sg74
(lp1990
g935
asbag67
(g88
g69
NtRp1991
(dp1992
g72
(dp1993
g99
g100
ssg81
g1983
sg74
(lp1994
S':'
asbag67
(g88
g69
NtRp1995
(dp1996
g72
(dp1997
sg81
g1983
sg74
(lp1998
g67
(g68
g69
NtRp1999
(dp2000
g72
(dp2001
g80
I4
ssg81
g1995
sg74
(lp2002
S'set([])'
p2003
asbasbasbag67
(g83
g69
NtRp2004
(dp2005
g72
(dp2006
sg81
g1893
sg74
(lp2007
g67
(g88
g69
NtRp2008
(dp2009
g72
(dp2010
g92
g93
ssg81
g2004
sg74
(lp2011
g957
asbag67
(g88
g69
NtRp2012
(dp2013
g72
(dp2014
g99
g100
ssg81
g2004
sg74
(lp2015
S':'
asbag67
(g88
g69
NtRp2016
(dp2017
g72
(dp2018
sg81
g2004
sg74
(lp2019
g67
(g68
g69
NtRp2020
(dp2021
g72
(dp2022
g80
I4
ssg81
g2016
sg74
(lp2023
g970
asbasbasbag67
(g83
g69
NtRp2024
(dp2025
g72
(dp2026
sg81
g1893
sg74
(lp2027
g67
(g88
g69
NtRp2028
(dp2029
g72
(dp2030
g92
g93
ssg81
g2024
sg74
(lp2031
g979
asbag67
(g88
g69
NtRp2032
(dp2033
g72
(dp2034
g99
g100
ssg81
g2024
sg74
(lp2035
S':'
asbag67
(g88
g69
NtRp2036
(dp2037
g72
(dp2038
sg81
g2024
sg74
(lp2039
g67
(g68
g69
NtRp2040
(dp2041
g72
(dp2042
g80
I4
ssg81
g2036
sg74
(lp2043
g992
asbasbasbag67
(g83
g69
NtRp2044
(dp2045
g72
(dp2046
sg81
g1893
sg74
(lp2047
g67
(g88
g69
NtRp2048
(dp2049
g72
(dp2050
g92
g93
ssg81
g2044
sg74
(lp2051
g1199
asbag67
(g88
g69
NtRp2052
(dp2053
g72
(dp2054
g99
g100
ssg81
g2044
sg74
(lp2055
S':'
asbag67
(g88
g69
NtRp2056
(dp2057
g72
(dp2058
sg81
g2044
sg74
(lp2059
g67
(g68
g69
NtRp2060
(dp2061
g72
(dp2062
g80
I4
ssg81
g2056
sg74
(lp2063
g110
asbasbasbag67
(g83
g69
NtRp2064
(dp2065
g72
(dp2066
sg81
g1893
sg74
(lp2067
g67
(g88
g69
NtRp2068
(dp2069
g72
(dp2070
g92
g93
ssg81
g2064
sg74
(lp2071
g1220
asbag67
(g88
g69
NtRp2072
(dp2073
g72
(dp2074
g99
g100
ssg81
g2064
sg74
(lp2075
S':'
asbag67
(g88
g69
NtRp2076
(dp2077
g72
(dp2078
sg81
g2064
sg74
(lp2079
g67
(g68
g69
NtRp2080
(dp2081
g72
(dp2082
g80
I4
ssg81
g2076
sg74
(lp2083
g110
asbasbasbag67
(g83
g69
NtRp2084
(dp2085
g72
(dp2086
sg81
g1893
sg74
(lp2087
g67
(g88
g69
NtRp2088
(dp2089
g72
(dp2090
g92
g93
ssg81
g2084
sg74
(lp2091
g1458
asbag67
(g88
g69
NtRp2092
(dp2093
g72
(dp2094
g99
g100
ssg81
g2084
sg74
(lp2095
S':'
asbag67
(g88
g69
NtRp2096
(dp2097
g72
(dp2098
sg81
g2084
sg74
(lp2099
g67
(g68
g69
NtRp2100
(dp2101
g72
(dp2102
g80
I4
ssg81
g2096
sg74
(lp2103
g1471
asbasbasbag67
(g83
g69
NtRp2104
(dp2105
g72
(dp2106
sg81
g1893
sg74
(lp2107
g67
(g88
g69
NtRp2108
(dp2109
g72
(dp2110
g92
g93
ssg81
g2104
sg74
(lp2111
g1501
asbag67
(g88
g69
NtRp2112
(dp2113
g72
(dp2114
g99
g100
ssg81
g2104
sg74
(lp2115
S':'
asbag67
(g88
g69
NtRp2116
(dp2117
g72
(dp2118
sg81
g2104
sg74
(lp2119
g67
(g68
g69
NtRp2120
(dp2121
g72
(dp2122
g80
I4
ssg81
g2116
sg74
(lp2123
g67
(g76
g69
NtRp2124
(dp2125
g72
(dp2126
g80
I3
ssg81
Nsg74
(lp2127
g67
(g83
g69
NtRp2128
(dp2129
g72
(dp2130
sg81
g2124
sg74
(lp2131
g67
(g88
g69
NtRp2132
(dp2133
g72
(dp2134
sg81
g2128
sg74
(lp2135
g67
(g68
g69
NtRp2136
(dp2137
g72
(dp2138
g80
I3
ssg81
g2132
sg74
(lp2139
S'1'
asbasbasbag67
(g83
g69
NtRp2140
(dp2141
g72
(dp2142
sg81
g2124
sg74
(lp2143
g67
(g88
g69
NtRp2144
(dp2145
g72
(dp2146
sg81
g2140
sg74
(lp2147
g67
(g68
g69
NtRp2148
(dp2149
g72
(dp2150
g80
I3
ssg81
g2144
sg74
(lp2151
S'99'
p2152
asbasbasbag67
(g83
g69
NtRp2153
(dp2154
g72
(dp2155
sg81
g2124
sg74
(lp2156
g67
(g88
g69
NtRp2157
(dp2158
g72
(dp2159
sg81
g2153
sg74
(lp2160
g67
(g68
g69
NtRp2161
(dp2162
g72
(dp2163
g80
I3
ssg81
g2157
sg74
(lp2164
S'7'
asbasbasbag67
(g83
g69
NtRp2165
(dp2166
g72
(dp2167
sg81
g2124
sg74
(lp2168
g67
(g88
g69
NtRp2169
(dp2170
g72
(dp2171
sg81
g2165
sg74
(lp2172
g67
(g68
g69
NtRp2173
(dp2174
g72
(dp2175
g80
I3
ssg81
g2169
sg74
(lp2176
S'datetime.datetime(2012, 3, 4, 22, 12, 8)'
p2177
asbasbasbag67
(g83
g69
NtRp2178
(dp2179
g72
(dp2180
sg81
g2124
sg74
(lp2181
g67
(g88
g69
NtRp2182
(dp2183
g72
(dp2184
sg81
g2178
sg74
(lp2185
g67
(g68
g69
NtRp2186
(dp2187
g72
(dp2188
g80
I3
ssg81
g2182
sg74
(lp2189
g1580
asbasbasbasbasbasbasbasbasbasbasbag67
(g83
g69
NtRp2190
(dp2191
g72
(dp2192
sg81
g77
sg74
(lp2193
g67
(g88
g69
NtRp2194
(dp2195
g72
(dp2196
g92
g93
ssg81
g2190
sg74
(lp2197
S'is_https'
p2198
asbag67
(g88
g69
NtRp2199
(dp2200
g72
(dp2201
g99
g100
ssg81
g2190
sg74
(lp2202
S':'
asbag67
(g88
g69
NtRp2203
(dp2204
g72
(dp2205
sg81
g2190
sg74
(lp2206
g67
(g68
g69
NtRp2207
(dp2208
g72
(dp2209
g80
I5
ssg81
g2203
sg74
(lp2210
g110
asbasbasbag67
(g83
g69
NtRp2211
(dp2212
g72
(dp2213
sg81
g77
sg74
(lp2214
g67
(g88
g69
NtRp2215
(dp2216
g72
(dp2217
g92
g93
ssg81
g2211
sg74
(lp2218
S'is_local'
p2219
asbag67
(g88
g69
NtRp2220
(dp2221
g72
(dp2222
g99
g100
ssg81
g2211
sg74
(lp2223
S':'
asbag67
(g88
g69
NtRp2224
(dp2225
g72
(dp2226
sg81
g2211
sg74
(lp2227
g67
(g68
g69
NtRp2228
(dp2229
g72
(dp2230
g80
I5
ssg81
g2224
sg74
(lp2231
g970
asbasbasbag67
(g83
g69
NtRp2232
(dp2233
g72
(dp2234
sg81
g77
sg74
(lp2235
g67
(g88
g69
NtRp2236
(dp2237
g72
(dp2238
g92
g93
ssg81
g2232
sg74
(lp2239
S'is_restful'
p2240
asbag67
(g88
g69
NtRp2241
(dp2242
g72
(dp2243
g99
g100
ssg81
g2232
sg74
(lp2244
S':'
asbag67
(g88
g69
NtRp2245
(dp2246
g72
(dp2247
sg81
g2232
sg74
(lp2248
g67
(g68
g69
NtRp2249
(dp2250
g72
(dp2251
g80
I5
ssg81
g2245
sg74
(lp2252
g110
asbasbasbag67
(g83
g69
NtRp2253
(dp2254
g72
(dp2255
sg81
g77
sg74
(lp2256
g67
(g88
g69
NtRp2257
(dp2258
g72
(dp2259
g92
g93
ssg81
g2253
sg74
(lp2260
S'now'
p2261
asbag67
(g88
g69
NtRp2262
(dp2263
g72
(dp2264
g99
g100
ssg81
g2253
sg74
(lp2265
S':'
asbag67
(g88
g69
NtRp2266
(dp2267
g72
(dp2268
sg81
g2253
sg74
(lp2269
g67
(g68
g69
NtRp2270
(dp2271
g72
(dp2272
g80
I5
ssg81
g2266
sg74
(lp2273
S'datetime.datetime(2012, 4, 10, 0, 34, 25, 802461)'
p2274
asbasbasbag67
(g83
g69
NtRp2275
(dp2276
g72
(dp2277
sg81
g77
sg74
(lp2278
g67
(g88
g69
NtRp2279
(dp2280
g72
(dp2281
g92
g93
ssg81
g2275
sg74
(lp2282
S'post_vars'
p2283
asbag67
(g88
g69
NtRp2284
(dp2285
g72
(dp2286
g99
g100
ssg81
g2275
sg74
(lp2287
S':'
asbag67
(g88
g69
NtRp2288
(dp2289
g72
(dp2290
sg81
g2275
sg74
(lp2291
g67
(g68
g69
NtRp2292
(dp2293
g72
(dp2294
g80
I5
ssg81
g2288
sg74
(lp2295
g67
(g76
g69
NtRp2296
(dp2297
g72
(dp2298
g80
I4
ssg81
Nsg74
(lp2299
sbasbasbasbag67
(g83
g69
NtRp2300
(dp2301
g72
(dp2302
sg81
g77
sg74
(lp2303
g67
(g88
g69
NtRp2304
(dp2305
g72
(dp2306
g92
g93
ssg81
g2300
sg74
(lp2307
S'url'
p2308
asbag67
(g88
g69
NtRp2309
(dp2310
g72
(dp2311
g99
g100
ssg81
g2300
sg74
(lp2312
S':'
asbag67
(g88
g69
NtRp2313
(dp2314
g72
(dp2315
sg81
g2300
sg74
(lp2316
g67
(g68
g69
NtRp2317
(dp2318
g72
(dp2319
g80
I5
ssg81
g2313
sg74
(lp2320
S'/vsalad/action/comments'
p2321
asbasbasbag67
(g83
g69
NtRp2322
(dp2323
g72
(dp2324
sg81
g77
sg74
(lp2325
g67
(g88
g69
NtRp2326
(dp2327
g72
(dp2328
g92
g93
ssg81
g2322
sg74
(lp2329
S'utcnow'
p2330
asbag67
(g88
g69
NtRp2331
(dp2332
g72
(dp2333
g99
g100
ssg81
g2322
sg74
(lp2334
S':'
asbag67
(g88
g69
NtRp2335
(dp2336
g72
(dp2337
sg81
g2322
sg74
(lp2338
g67
(g68
g69
NtRp2339
(dp2340
g72
(dp2341
g80
I5
ssg81
g2335
sg74
(lp2342
S'datetime.datetime(2012, 4, 9, 20, 34, 25, 802500)'
p2343
asbasbasbag67
(g83
g69
NtRp2344
(dp2345
g72
(dp2346
sg81
g77
sg74
(lp2347
g67
(g88
g69
NtRp2348
(dp2349
g72
(dp2350
g92
g93
ssg81
g2344
sg74
(lp2351
S'uuid'
p2352
asbag67
(g88
g69
NtRp2353
(dp2354
g72
(dp2355
g99
g100
ssg81
g2344
sg74
(lp2356
S':'
asbag67
(g88
g69
NtRp2357
(dp2358
g72
(dp2359
sg81
g2344
sg74
(lp2360
g67
(g68
g69
NtRp2361
(dp2362
g72
(dp2363
g80
I5
ssg81
g2357
sg74
(lp2364
S'vsalad/127.0.0.1.2012-04-10.00-34-25.04d9ec41-c269-43b0-818c-fede08d11f30'
p2365
asbasbasbag67
(g83
g69
NtRp2366
(dp2367
g72
(dp2368
sg81
g77
sg74
(lp2369
g67
(g88
g69
NtRp2370
(dp2371
g72
(dp2372
g92
g93
ssg81
g2366
sg74
(lp2373
S'vars'
p2374
asbag67
(g88
g69
NtRp2375
(dp2376
g72
(dp2377
g99
g100
ssg81
g2366
sg74
(lp2378
S':'
asbag67
(g88
g69
NtRp2379
(dp2380
g72
(dp2381
sg81
g2366
sg74
(lp2382
g67
(g68
g69
NtRp2383
(dp2384
g72
(dp2385
g80
I5
ssg81
g2379
sg74
(lp2386
g67
(g76
g69
NtRp2387
(dp2388
g72
(dp2389
g80
I4
ssg81
Nsg74
(lp2390
sbasbasbasbag67
(g83
g69
NtRp2391
(dp2392
g72
(dp2393
sg81
g77
sg74
(lp2394
g67
(g88
g69
NtRp2395
(dp2396
g72
(dp2397
g92
g93
ssg81
g2391
sg74
(lp2398
S'wsgi'
p2399
asbag67
(g88
g69
NtRp2400
(dp2401
g72
(dp2402
g99
g100
ssg81
g2391
sg74
(lp2403
S':'
asbag67
(g88
g69
NtRp2404
(dp2405
g72
(dp2406
sg81
g2391
sg74
(lp2407
g67
(g68
g69
NtRp2408
(dp2409
g72
(dp2410
g80
I5
ssg81
g2404
sg74
(lp2411
g67
(g76
g69
NtRp2412
(dp2413
g72
(dp2414
g80
I4
ssg81
Nsg74
(lp2415
g67
(g83
g69
NtRp2416
(dp2417
g72
(dp2418
sg81
g2412
sg74
(lp2419
g67
(g88
g69
NtRp2420
(dp2421
g72
(dp2422
g92
g93
ssg81
g2416
sg74
(lp2423
S'environ'
p2424
asbag67
(g88
g69
NtRp2425
(dp2426
g72
(dp2427
g99
g100
ssg81
g2416
sg74
(lp2428
S':'
asbag67
(g88
g69
NtRp2429
(dp2430
g72
(dp2431
sg81
g2416
sg74
(lp2432
g67
(g68
g69
NtRp2433
(dp2434
g72
(dp2435
g80
I4
ssg81
g2429
sg74
(lp2436
g67
(g76
g69
NtRp2437
(dp2438
g72
(dp2439
g80
I3
ssg81
Nsg74
(lp2440
g67
(g83
g69
NtRp2441
(dp2442
g72
(dp2443
sg81
g2437
sg74
(lp2444
g67
(g88
g69
NtRp2445
(dp2446
g72
(dp2447
g92
g93
ssg81
g2441
sg74
(lp2448
S'HTTP_ACCEPT'
p2449
asbag67
(g88
g69
NtRp2450
(dp2451
g72
(dp2452
g99
g100
ssg81
g2441
sg74
(lp2453
S':'
asbag67
(g88
g69
NtRp2454
(dp2455
g72
(dp2456
sg81
g2441
sg74
(lp2457
g67
(g68
g69
NtRp2458
(dp2459
g72
(dp2460
g80
I3
ssg81
g2454
sg74
(lp2461
g1014
asbasbasbag67
(g83
g69
NtRp2462
(dp2463
g72
(dp2464
sg81
g2437
sg74
(lp2465
g67
(g88
g69
NtRp2466
(dp2467
g72
(dp2468
g92
g93
ssg81
g2462
sg74
(lp2469
S'HTTP_ACCEPT_CHARSET'
p2470
asbag67
(g88
g69
NtRp2471
(dp2472
g72
(dp2473
g99
g100
ssg81
g2462
sg74
(lp2474
S':'
asbag67
(g88
g69
NtRp2475
(dp2476
g72
(dp2477
sg81
g2462
sg74
(lp2478
g67
(g68
g69
NtRp2479
(dp2480
g72
(dp2481
g80
I3
ssg81
g2475
sg74
(lp2482
g1036
asbasbasbag67
(g83
g69
NtRp2483
(dp2484
g72
(dp2485
sg81
g2437
sg74
(lp2486
g67
(g88
g69
NtRp2487
(dp2488
g72
(dp2489
g92
g93
ssg81
g2483
sg74
(lp2490
S'HTTP_ACCEPT_ENCODING'
p2491
asbag67
(g88
g69
NtRp2492
(dp2493
g72
(dp2494
g99
g100
ssg81
g2483
sg74
(lp2495
S':'
asbag67
(g88
g69
NtRp2496
(dp2497
g72
(dp2498
sg81
g2483
sg74
(lp2499
g67
(g68
g69
NtRp2500
(dp2501
g72
(dp2502
g80
I3
ssg81
g2496
sg74
(lp2503
g1058
asbasbasbag67
(g83
g69
NtRp2504
(dp2505
g72
(dp2506
sg81
g2437
sg74
(lp2507
g67
(g88
g69
NtRp2508
(dp2509
g72
(dp2510
g92
g93
ssg81
g2504
sg74
(lp2511
S'HTTP_ACCEPT_LANGUAGE'
p2512
asbag67
(g88
g69
NtRp2513
(dp2514
g72
(dp2515
g99
g100
ssg81
g2504
sg74
(lp2516
S':'
asbag67
(g88
g69
NtRp2517
(dp2518
g72
(dp2519
sg81
g2504
sg74
(lp2520
g67
(g68
g69
NtRp2521
(dp2522
g72
(dp2523
g80
I3
ssg81
g2517
sg74
(lp2524
g1080
asbasbasbag67
(g83
g69
NtRp2525
(dp2526
g72
(dp2527
sg81
g2437
sg74
(lp2528
g67
(g88
g69
NtRp2529
(dp2530
g72
(dp2531
g92
g93
ssg81
g2525
sg74
(lp2532
S'HTTP_CACHE_CONTROL'
p2533
asbag67
(g88
g69
NtRp2534
(dp2535
g72
(dp2536
g99
g100
ssg81
g2525
sg74
(lp2537
S':'
asbag67
(g88
g69
NtRp2538
(dp2539
g72
(dp2540
sg81
g2525
sg74
(lp2541
g67
(g68
g69
NtRp2542
(dp2543
g72
(dp2544
g80
I3
ssg81
g2538
sg74
(lp2545
g1102
asbasbasbag67
(g83
g69
NtRp2546
(dp2547
g72
(dp2548
sg81
g2437
sg74
(lp2549
g67
(g88
g69
NtRp2550
(dp2551
g72
(dp2552
g92
g93
ssg81
g2546
sg74
(lp2553
S'HTTP_CONNECTION'
p2554
asbag67
(g88
g69
NtRp2555
(dp2556
g72
(dp2557
g99
g100
ssg81
g2546
sg74
(lp2558
S':'
asbag67
(g88
g69
NtRp2559
(dp2560
g72
(dp2561
sg81
g2546
sg74
(lp2562
g67
(g68
g69
NtRp2563
(dp2564
g72
(dp2565
g80
I3
ssg81
g2559
sg74
(lp2566
g1124
asbasbasbag67
(g83
g69
NtRp2567
(dp2568
g72
(dp2569
sg81
g2437
sg74
(lp2570
g67
(g88
g69
NtRp2571
(dp2572
g72
(dp2573
g92
g93
ssg81
g2567
sg74
(lp2574
S'HTTP_COOKIE'
p2575
asbag67
(g88
g69
NtRp2576
(dp2577
g72
(dp2578
g99
g100
ssg81
g2567
sg74
(lp2579
S':'
asbag67
(g88
g69
NtRp2580
(dp2581
g72
(dp2582
sg81
g2567
sg74
(lp2583
g67
(g68
g69
NtRp2584
(dp2585
g72
(dp2586
g80
I3
ssg81
g2580
sg74
(lp2587
g1146
asbasbasbag67
(g83
g69
NtRp2588
(dp2589
g72
(dp2590
sg81
g2437
sg74
(lp2591
g67
(g88
g69
NtRp2592
(dp2593
g72
(dp2594
g92
g93
ssg81
g2588
sg74
(lp2595
S'HTTP_HOST'
p2596
asbag67
(g88
g69
NtRp2597
(dp2598
g72
(dp2599
g99
g100
ssg81
g2588
sg74
(lp2600
S':'
asbag67
(g88
g69
NtRp2601
(dp2602
g72
(dp2603
sg81
g2588
sg74
(lp2604
g67
(g68
g69
NtRp2605
(dp2606
g72
(dp2607
g80
I3
ssg81
g2601
sg74
(lp2608
g1168
asbasbasbag67
(g83
g69
NtRp2609
(dp2610
g72
(dp2611
sg81
g2437
sg74
(lp2612
g67
(g88
g69
NtRp2613
(dp2614
g72
(dp2615
g92
g93
ssg81
g2609
sg74
(lp2616
S'HTTP_USER_AGENT'
p2617
asbag67
(g88
g69
NtRp2618
(dp2619
g72
(dp2620
g99
g100
ssg81
g2609
sg74
(lp2621
S':'
asbag67
(g88
g69
NtRp2622
(dp2623
g72
(dp2624
sg81
g2609
sg74
(lp2625
g67
(g68
g69
NtRp2626
(dp2627
g72
(dp2628
g80
I3
ssg81
g2622
sg74
(lp2629
g1190
asbasbasbag67
(g83
g69
NtRp2630
(dp2631
g72
(dp2632
sg81
g2437
sg74
(lp2633
g67
(g88
g69
NtRp2634
(dp2635
g72
(dp2636
g92
g93
ssg81
g2630
sg74
(lp2637
S'PATH_INFO'
p2638
asbag67
(g88
g69
NtRp2639
(dp2640
g72
(dp2641
g99
g100
ssg81
g2630
sg74
(lp2642
S':'
asbag67
(g88
g69
NtRp2643
(dp2644
g72
(dp2645
sg81
g2630
sg74
(lp2646
g67
(g68
g69
NtRp2647
(dp2648
g72
(dp2649
g80
I3
ssg81
g2643
sg74
(lp2650
g1254
asbasbasbag67
(g83
g69
NtRp2651
(dp2652
g72
(dp2653
sg81
g2437
sg74
(lp2654
g67
(g88
g69
NtRp2655
(dp2656
g72
(dp2657
g92
g93
ssg81
g2651
sg74
(lp2658
S'QUERY_STRING'
p2659
asbag67
(g88
g69
NtRp2660
(dp2661
g72
(dp2662
g99
g100
ssg81
g2651
sg74
(lp2663
S':'
asbag67
(g88
g69
NtRp2664
(dp2665
g72
(dp2666
sg81
g2651
sg74
(lp2667
g67
(g68
g69
NtRp2668
(dp2669
g72
(dp2670
g80
I3
ssg81
g2664
sg74
(lp2671
S''
asbasbasbag67
(g83
g69
NtRp2672
(dp2673
g72
(dp2674
sg81
g2437
sg74
(lp2675
g67
(g88
g69
NtRp2676
(dp2677
g72
(dp2678
g92
g93
ssg81
g2672
sg74
(lp2679
S'REMOTE_ADDR'
p2680
asbag67
(g88
g69
NtRp2681
(dp2682
g72
(dp2683
g99
g100
ssg81
g2672
sg74
(lp2684
S':'
asbag67
(g88
g69
NtRp2685
(dp2686
g72
(dp2687
sg81
g2672
sg74
(lp2688
g67
(g68
g69
NtRp2689
(dp2690
g72
(dp2691
g80
I3
ssg81
g2685
sg74
(lp2692
g200
asbasbasbag67
(g83
g69
NtRp2693
(dp2694
g72
(dp2695
sg81
g2437
sg74
(lp2696
g67
(g88
g69
NtRp2697
(dp2698
g72
(dp2699
g92
g93
ssg81
g2693
sg74
(lp2700
S'REMOTE_PORT'
p2701
asbag67
(g88
g69
NtRp2702
(dp2703
g72
(dp2704
g99
g100
ssg81
g2693
sg74
(lp2705
S':'
asbag67
(g88
g69
NtRp2706
(dp2707
g72
(dp2708
sg81
g2693
sg74
(lp2709
g67
(g68
g69
NtRp2710
(dp2711
g72
(dp2712
g80
I3
ssg81
g2706
sg74
(lp2713
g1318
asbasbasbag67
(g83
g69
NtRp2714
(dp2715
g72
(dp2716
sg81
g2437
sg74
(lp2717
g67
(g88
g69
NtRp2718
(dp2719
g72
(dp2720
g92
g93
ssg81
g2714
sg74
(lp2721
S'REQUEST_METHOD'
p2722
asbag67
(g88
g69
NtRp2723
(dp2724
g72
(dp2725
g99
g100
ssg81
g2714
sg74
(lp2726
S':'
asbag67
(g88
g69
NtRp2727
(dp2728
g72
(dp2729
sg81
g2714
sg74
(lp2730
g67
(g68
g69
NtRp2731
(dp2732
g72
(dp2733
g80
I3
ssg81
g2727
sg74
(lp2734
g1340
asbasbasbag67
(g83
g69
NtRp2735
(dp2736
g72
(dp2737
sg81
g2437
sg74
(lp2738
g67
(g88
g69
NtRp2739
(dp2740
g72
(dp2741
g92
g93
ssg81
g2735
sg74
(lp2742
S'SCRIPT_NAME'
p2743
asbag67
(g88
g69
NtRp2744
(dp2745
g72
(dp2746
g99
g100
ssg81
g2735
sg74
(lp2747
S':'
asbag67
(g88
g69
NtRp2748
(dp2749
g72
(dp2750
sg81
g2735
sg74
(lp2751
g67
(g68
g69
NtRp2752
(dp2753
g72
(dp2754
g80
I3
ssg81
g2748
sg74
(lp2755
S''
asbasbasbag67
(g83
g69
NtRp2756
(dp2757
g72
(dp2758
sg81
g2437
sg74
(lp2759
g67
(g88
g69
NtRp2760
(dp2761
g72
(dp2762
g92
g93
ssg81
g2756
sg74
(lp2763
S'SERVER_NAME'
p2764
asbag67
(g88
g69
NtRp2765
(dp2766
g72
(dp2767
g99
g100
ssg81
g2756
sg74
(lp2768
S':'
asbag67
(g88
g69
NtRp2769
(dp2770
g72
(dp2771
sg81
g2756
sg74
(lp2772
g67
(g68
g69
NtRp2773
(dp2774
g72
(dp2775
g80
I3
ssg81
g2769
sg74
(lp2776
g1383
asbasbasbag67
(g83
g69
NtRp2777
(dp2778
g72
(dp2779
sg81
g2437
sg74
(lp2780
g67
(g88
g69
NtRp2781
(dp2782
g72
(dp2783
g92
g93
ssg81
g2777
sg74
(lp2784
S'SERVER_PORT'
p2785
asbag67
(g88
g69
NtRp2786
(dp2787
g72
(dp2788
g99
g100
ssg81
g2777
sg74
(lp2789
S':'
asbag67
(g88
g69
NtRp2790
(dp2791
g72
(dp2792
sg81
g2777
sg74
(lp2793
g67
(g68
g69
NtRp2794
(dp2795
g72
(dp2796
g80
I3
ssg81
g2790
sg74
(lp2797
g1405
asbasbasbag67
(g83
g69
NtRp2798
(dp2799
g72
(dp2800
sg81
g2437
sg74
(lp2801
g67
(g88
g69
NtRp2802
(dp2803
g72
(dp2804
g92
g93
ssg81
g2798
sg74
(lp2805
S'SERVER_PROTOCOL'
p2806
asbag67
(g88
g69
NtRp2807
(dp2808
g72
(dp2809
g99
g100
ssg81
g2798
sg74
(lp2810
S':'
asbag67
(g88
g69
NtRp2811
(dp2812
g72
(dp2813
sg81
g2798
sg74
(lp2814
g67
(g68
g69
NtRp2815
(dp2816
g72
(dp2817
g80
I3
ssg81
g2811
sg74
(lp2818
g1427
asbasbasbag67
(g83
g69
NtRp2819
(dp2820
g72
(dp2821
sg81
g2437
sg74
(lp2822
g67
(g88
g69
NtRp2823
(dp2824
g72
(dp2825
g92
g93
ssg81
g2819
sg74
(lp2826
S'SERVER_SOFTWARE'
p2827
asbag67
(g88
g69
NtRp2828
(dp2829
g72
(dp2830
g99
g100
ssg81
g2819
sg74
(lp2831
S':'
asbag67
(g88
g69
NtRp2832
(dp2833
g72
(dp2834
sg81
g2819
sg74
(lp2835
g67
(g68
g69
NtRp2836
(dp2837
g72
(dp2838
g80
I3
ssg81
g2832
sg74
(lp2839
g1449
asbasbasbag67
(g83
g69
NtRp2840
(dp2841
g72
(dp2842
sg81
g2437
sg74
(lp2843
g67
(g88
g69
NtRp2844
(dp2845
g72
(dp2846
g92
g93
ssg81
g2840
sg74
(lp2847
S'wsgi.errors'
p2848
asbag67
(g88
g69
NtRp2849
(dp2850
g72
(dp2851
g99
g100
ssg81
g2840
sg74
(lp2852
S':'
asbag67
(g88
g69
NtRp2853
(dp2854
g72
(dp2855
sg81
g2840
sg74
(lp2856
g67
(g68
g69
NtRp2857
(dp2858
g72
(dp2859
g80
I3
ssg81
g2853
sg74
(lp2860
S"<open file '<stderr>', mode 'w' at 0x7ff96880b270>"
p2861
asbasbasbag67
(g83
g69
NtRp2862
(dp2863
g72
(dp2864
sg81
g2437
sg74
(lp2865
g67
(g88
g69
NtRp2866
(dp2867
g72
(dp2868
g92
g93
ssg81
g2862
sg74
(lp2869
S'wsgi.file_wrapper'
p2870
asbag67
(g88
g69
NtRp2871
(dp2872
g72
(dp2873
g99
g100
ssg81
g2862
sg74
(lp2874
S':'
asbag67
(g88
g69
NtRp2875
(dp2876
g72
(dp2877
sg81
g2862
sg74
(lp2878
g67
(g68
g69
NtRp2879
(dp2880
g72
(dp2881
g80
I3
ssg81
g2875
sg74
(lp2882
S'<class wsgiref.util.FileWrapper at 0x1f13870>'
p2883
asbasbasbag67
(g83
g69
NtRp2884
(dp2885
g72
(dp2886
sg81
g2437
sg74
(lp2887
g67
(g88
g69
NtRp2888
(dp2889
g72
(dp2890
g92
g93
ssg81
g2884
sg74
(lp2891
S'wsgi.input'
p2892
asbag67
(g88
g69
NtRp2893
(dp2894
g72
(dp2895
g99
g100
ssg81
g2884
sg74
(lp2896
S':'
asbag67
(g88
g69
NtRp2897
(dp2898
g72
(dp2899
sg81
g2884
sg74
(lp2900
g67
(g68
g69
NtRp2901
(dp2902
g72
(dp2903
g80
I3
ssg81
g2897
sg74
(lp2904
S'<cStringIO.StringO object at 0x2bf0a78>'
p2905
asbasbasbag67
(g83
g69
NtRp2906
(dp2907
g72
(dp2908
sg81
g2437
sg74
(lp2909
g67
(g88
g69
NtRp2910
(dp2911
g72
(dp2912
g92
g93
ssg81
g2906
sg74
(lp2913
S'wsgi.multiprocess'
p2914
asbag67
(g88
g69
NtRp2915
(dp2916
g72
(dp2917
g99
g100
ssg81
g2906
sg74
(lp2918
S':'
asbag67
(g88
g69
NtRp2919
(dp2920
g72
(dp2921
sg81
g2906
sg74
(lp2922
g67
(g68
g69
NtRp2923
(dp2924
g72
(dp2925
g80
I3
ssg81
g2919
sg74
(lp2926
g110
asbasbasbag67
(g83
g69
NtRp2927
(dp2928
g72
(dp2929
sg81
g2437
sg74
(lp2930
g67
(g88
g69
NtRp2931
(dp2932
g72
(dp2933
g92
g93
ssg81
g2927
sg74
(lp2934
S'wsgi.multithread'
p2935
asbag67
(g88
g69
NtRp2936
(dp2937
g72
(dp2938
g99
g100
ssg81
g2927
sg74
(lp2939
S':'
asbag67
(g88
g69
NtRp2940
(dp2941
g72
(dp2942
sg81
g2927
sg74
(lp2943
g67
(g68
g69
NtRp2944
(dp2945
g72
(dp2946
g80
I3
ssg81
g2940
sg74
(lp2947
g970
asbasbasbag67
(g83
g69
NtRp2948
(dp2949
g72
(dp2950
sg81
g2437
sg74
(lp2951
g67
(g88
g69
NtRp2952
(dp2953
g72
(dp2954
g92
g93
ssg81
g2948
sg74
(lp2955
S'wsgi.run_once'
p2956
asbag67
(g88
g69
NtRp2957
(dp2958
g72
(dp2959
g99
g100
ssg81
g2948
sg74
(lp2960
S':'
asbag67
(g88
g69
NtRp2961
(dp2962
g72
(dp2963
sg81
g2948
sg74
(lp2964
g67
(g68
g69
NtRp2965
(dp2966
g72
(dp2967
g80
I3
ssg81
g2961
sg74
(lp2968
g110
asbasbasbag67
(g83
g69
NtRp2969
(dp2970
g72
(dp2971
sg81
g2437
sg74
(lp2972
g67
(g88
g69
NtRp2973
(dp2974
g72
(dp2975
g92
g93
ssg81
g2969
sg74
(lp2976
S'wsgi.url_scheme'
p2977
asbag67
(g88
g69
NtRp2978
(dp2979
g72
(dp2980
g99
g100
ssg81
g2969
sg74
(lp2981
S':'
asbag67
(g88
g69
NtRp2982
(dp2983
g72
(dp2984
sg81
g2969
sg74
(lp2985
g67
(g68
g69
NtRp2986
(dp2987
g72
(dp2988
g80
I3
ssg81
g2982
sg74
(lp2989
g1731
asbasbasbag67
(g83
g69
NtRp2990
(dp2991
g72
(dp2992
sg81
g2437
sg74
(lp2993
g67
(g88
g69
NtRp2994
(dp2995
g72
(dp2996
g92
g93
ssg81
g2990
sg74
(lp2997
S'wsgi.version'
p2998
asbag67
(g88
g69
NtRp2999
(dp3000
g72
(dp3001
g99
g100
ssg81
g2990
sg74
(lp3002
S':'
asbag67
(g88
g69
NtRp3003
(dp3004
g72
(dp3005
sg81
g2990
sg74
(lp3006
g67
(g68
g69
NtRp3007
(dp3008
g72
(dp3009
g80
I3
ssg81
g3003
sg74
(lp3010
S'1'
asbasbasbasbasbasbasbasbasbasbasbasbasbsS'frames'
p3011
(lp3012
(dp3013
S'file'
p3014
S'/home/fish/Desktop/web2py/gluon/restricted.py'
p3015
sS'dump'
p3016
(dp3017
S'code'
p3018
S'\'response.write(\\\'<html>\\\\n<head>\\\\n<script src="\\\', ...ponse.write(\\\'\\\\n</body>\\\\n</html>\\\\n\\\', escape=False)\''
p3019
sS'layer'
p3020
S"'/home/fish/Desktop/web2py/applications/vsalad/views/action/comments.html'"
p3021
sS'global compile2'
p3022
S'<function compile2>'
p3023
sS'ccode'
p3024
S'undefined'
p3025
ssS'lnum'
p3026
I204
sS'lines'
p3027
(dp3028
I199
S"    environment['__name__'] = '__restricted__'"
p3029
sI200
S'    try:'
p3030
sI201
S'        if type(code) == types.CodeType:'
p3031
sI202
S'            ccode = code'
p3032
sI203
S'        else:'
p3033
sI204
S'            ccode = compile2(code,layer)'
p3034
sI205
S'        exec ccode in environment'
p3035
sI206
S'    except HTTP:'
p3036
sI207
S'        raise'
p3037
sI208
S'    except RestrictedError:'
p3038
ssS'call'
p3039
S'(code=\'response.write(\\\'<html>\\\\n<head>\\\\n<script src="\\\', ...ponse.write(\\\'\\\\n</body>\\\\n</html>\\\\n\\\', escape=False)\', environment={\'A\': <class \'gluon.html.A\'>, \'Auth\': <class \'gluon.tools.Auth\'>, \'B\': <class \'gluon.html.B\'>, \'BEAUTIFY\': <class \'gluon.html.BEAUTIFY\'>, \'BODY\': <class \'gluon.html.BODY\'>, \'BR\': <class \'gluon.html.BR\'>, \'BUTTON\': <class \'gluon.html.BUTTON\'>, \'CAT\': <class \'gluon.html.CAT\'>, \'CENTER\': <class \'gluon.html.CENTER\'>, \'CLEANUP\': <class \'gluon.validators.CLEANUP\'>, ...}, layer=\'/home/fish/Desktop/web2py/applications/vsalad/views/action/comments.html\')'
p3040
sS'func'
p3041
S'restricted'
p3042
sa(dp3043
g3014
S'/home/fish/Desktop/web2py/gluon/restricted.py'
p3044
sg3016
(dp3045
S'builtincompile'
p3046
S'<built-in function compile>'
p3047
sS'code'
p3048
S'\'response.write(\\\'<html>\\\\n<head>\\\\n<script src="\\\', ...ponse.write(\\\'\\\\n</body>\\\\n</html>\\\\n\\\', escape=False)\''
p3049
sS'code.rstrip'
p3050
S'<built-in method rstrip of str object>'
p3051
sS').replace'
p3052
g3025
sS'layer'
p3053
S"'/home/fish/Desktop/web2py/applications/vsalad/views/action/comments.html'"
p3054
ssg3026
I189
sg3027
(dp3055
I192
S'    """'
p3056
sI193
S'    runs code in environment and returns the output. if an exception occurs'
p3057
sI184
S''
sI185
S'def compile2(code,layer):'
p3058
sI186
S'    """'
p3059
sI187
S"    The +'\\n' is necessary else compile fails when code ends in a comment."
p3060
sI188
S'    """'
p3061
sI189
S"    return compile(code.rstrip().replace('\\r\\n','\\n')+'\\n', layer, 'exec')"
p3062
sI190
S''
sI191
S"def restricted(code, environment=None, layer='Unknown'):"
p3063
ssg3039
S'(code=\'response.write(\\\'<html>\\\\n<head>\\\\n<script src="\\\', ...ponse.write(\\\'\\\\n</body>\\\\n</html>\\\\n\\\', escape=False)\', layer=\'/home/fish/Desktop/web2py/applications/vsalad/views/action/comments.html\')'
p3064
sg3041
S'compile2'
p3065
sasS'pyver'
p3066
S'Python 2.7.2+: /usr/bin/python'
p3067
sS'session'
p3068
g67
(g68
g69
NtRp3069
(dp3070
g72
(dp3071
sg74
(lp3072
g67
(g76
g69
NtRp3073
(dp3074
g72
(dp3075
g80
I5
ssg81
Nsg74
(lp3076
sbasbsS'etype'
p3077
S"<type 'exceptions.SyntaxError'>"
p3078
sS'date'
p3079
S'Tue Apr 10 00:34:25 2012'
p3080
sS'response'
p3081
g67
(g68
g69
NtRp3082
(dp3083
g72
(dp3084
sg74
(lp3085
g67
(g76
g69
NtRp3086
(dp3087
g72
(dp3088
g80
I5
ssg81
Nsg74
(lp3089
g67
(g83
g69
NtRp3090
(dp3091
g72
(dp3092
sg81
g3086
sg74
(lp3093
g67
(g88
g69
NtRp3094
(dp3095
g72
(dp3096
g92
g93
ssg81
g3090
sg74
(lp3097
g165
asbag67
(g88
g69
NtRp3098
(dp3099
g72
(dp3100
g99
g100
ssg81
g3090
sg74
(lp3101
S':'
asbag67
(g88
g69
NtRp3102
(dp3103
g72
(dp3104
sg81
g3090
sg74
(lp3105
g67
(g68
g69
NtRp3106
(dp3107
g72
(dp3108
g80
I5
ssg81
g3102
sg74
(lp3109
S'<cStringIO.StringO object at 0x7ff958250998>'
p3110
asbasbasbag67
(g83
g69
NtRp3111
(dp3112
g72
(dp3113
sg81
g3086
sg74
(lp3114
g67
(g88
g69
NtRp3115
(dp3116
g72
(dp3117
g92
g93
ssg81
g3111
sg74
(lp3118
g231
asbag67
(g88
g69
NtRp3119
(dp3120
g72
(dp3121
g99
g100
ssg81
g3111
sg74
(lp3122
S':'
asbag67
(g88
g69
NtRp3123
(dp3124
g72
(dp3125
sg81
g3111
sg74
(lp3126
g67
(g68
g69
NtRp3127
(dp3128
g72
(dp3129
g80
I5
ssg81
g3123
sg74
(lp3130
g67
(g76
g69
NtRp3131
(dp3132
g72
(dp3133
g80
I4
ssg81
Nsg74
(lp3134
g67
(g83
g69
NtRp3135
(dp3136
g72
(dp3137
sg81
g3131
sg74
(lp3138
g67
(g88
g69
NtRp3139
(dp3140
g72
(dp3141
g92
g93
ssg81
g3135
sg74
(lp3142
S'session_id_vsalad'
p3143
asbag67
(g88
g69
NtRp3144
(dp3145
g72
(dp3146
g99
g100
ssg81
g3135
sg74
(lp3147
S':'
asbag67
(g88
g69
NtRp3148
(dp3149
g72
(dp3150
sg81
g3135
sg74
(lp3151
g67
(g68
g69
NtRp3152
(dp3153
g72
(dp3154
g80
I4
ssg81
g3148
sg74
(lp3155
g67
(g76
g69
NtRp3156
(dp3157
g72
(dp3158
g80
I3
ssg81
Nsg74
(lp3159
g67
(g83
g69
NtRp3160
(dp3161
g72
(dp3162
sg81
g3156
sg74
(lp3163
g67
(g88
g69
NtRp3164
(dp3165
g72
(dp3166
g92
g93
ssg81
g3160
sg74
(lp3167
g281
asbag67
(g88
g69
NtRp3168
(dp3169
g72
(dp3170
g99
g100
ssg81
g3160
sg74
(lp3171
S':'
asbag67
(g88
g69
NtRp3172
(dp3173
g72
(dp3174
sg81
g3160
sg74
(lp3175
g67
(g68
g69
NtRp3176
(dp3177
g72
(dp3178
g80
I3
ssg81
g3172
sg74
(lp3179
S''
asbasbasbag67
(g83
g69
NtRp3180
(dp3181
g72
(dp3182
sg81
g3156
sg74
(lp3183
g67
(g88
g69
NtRp3184
(dp3185
g72
(dp3186
g92
g93
ssg81
g3180
sg74
(lp3187
g302
asbag67
(g88
g69
NtRp3188
(dp3189
g72
(dp3190
g99
g100
ssg81
g3180
sg74
(lp3191
S':'
asbag67
(g88
g69
NtRp3192
(dp3193
g72
(dp3194
sg81
g3180
sg74
(lp3195
g67
(g68
g69
NtRp3196
(dp3197
g72
(dp3198
g80
I3
ssg81
g3192
sg74
(lp3199
S''
asbasbasbag67
(g83
g69
NtRp3200
(dp3201
g72
(dp3202
sg81
g3156
sg74
(lp3203
g67
(g88
g69
NtRp3204
(dp3205
g72
(dp3206
g92
g93
ssg81
g3200
sg74
(lp3207
g323
asbag67
(g88
g69
NtRp3208
(dp3209
g72
(dp3210
g99
g100
ssg81
g3200
sg74
(lp3211
S':'
asbag67
(g88
g69
NtRp3212
(dp3213
g72
(dp3214
sg81
g3200
sg74
(lp3215
g67
(g68
g69
NtRp3216
(dp3217
g72
(dp3218
g80
I3
ssg81
g3212
sg74
(lp3219
S''
asbasbasbag67
(g83
g69
NtRp3220
(dp3221
g72
(dp3222
sg81
g3156
sg74
(lp3223
g67
(g88
g69
NtRp3224
(dp3225
g72
(dp3226
g92
g93
ssg81
g3220
sg74
(lp3227
g344
asbag67
(g88
g69
NtRp3228
(dp3229
g72
(dp3230
g99
g100
ssg81
g3220
sg74
(lp3231
S':'
asbag67
(g88
g69
NtRp3232
(dp3233
g72
(dp3234
sg81
g3220
sg74
(lp3235
g67
(g68
g69
NtRp3236
(dp3237
g72
(dp3238
g80
I3
ssg81
g3232
sg74
(lp3239
S''
asbasbasbag67
(g83
g69
NtRp3240
(dp3241
g72
(dp3242
sg81
g3156
sg74
(lp3243
g67
(g88
g69
NtRp3244
(dp3245
g72
(dp3246
g92
g93
ssg81
g3240
sg74
(lp3247
g365
asbag67
(g88
g69
NtRp3248
(dp3249
g72
(dp3250
g99
g100
ssg81
g3240
sg74
(lp3251
S':'
asbag67
(g88
g69
NtRp3252
(dp3253
g72
(dp3254
sg81
g3240
sg74
(lp3255
g67
(g68
g69
NtRp3256
(dp3257
g72
(dp3258
g80
I3
ssg81
g3252
sg74
(lp3259
S''
asbasbasbag67
(g83
g69
NtRp3260
(dp3261
g72
(dp3262
sg81
g3156
sg74
(lp3263
g67
(g88
g69
NtRp3264
(dp3265
g72
(dp3266
g92
g93
ssg81
g3260
sg74
(lp3267
g386
asbag67
(g88
g69
NtRp3268
(dp3269
g72
(dp3270
g99
g100
ssg81
g3260
sg74
(lp3271
S':'
asbag67
(g88
g69
NtRp3272
(dp3273
g72
(dp3274
sg81
g3260
sg74
(lp3275
g67
(g68
g69
NtRp3276
(dp3277
g72
(dp3278
g80
I3
ssg81
g3272
sg74
(lp3279
S'/'
asbasbasbag67
(g83
g69
NtRp3280
(dp3281
g72
(dp3282
sg81
g3156
sg74
(lp3283
g67
(g88
g69
NtRp3284
(dp3285
g72
(dp3286
g92
g93
ssg81
g3280
sg74
(lp3287
g407
asbag67
(g88
g69
NtRp3288
(dp3289
g72
(dp3290
g99
g100
ssg81
g3280
sg74
(lp3291
S':'
asbag67
(g88
g69
NtRp3292
(dp3293
g72
(dp3294
sg81
g3280
sg74
(lp3295
g67
(g68
g69
NtRp3296
(dp3297
g72
(dp3298
g80
I3
ssg81
g3292
sg74
(lp3299
S''
asbasbasbag67
(g83
g69
NtRp3300
(dp3301
g72
(dp3302
sg81
g3156
sg74
(lp3303
g67
(g88
g69
NtRp3304
(dp3305
g72
(dp3306
g92
g93
ssg81
g3300
sg74
(lp3307
g428
asbag67
(g88
g69
NtRp3308
(dp3309
g72
(dp3310
g99
g100
ssg81
g3300
sg74
(lp3311
S':'
asbag67
(g88
g69
NtRp3312
(dp3313
g72
(dp3314
sg81
g3300
sg74
(lp3315
g67
(g68
g69
NtRp3316
(dp3317
g72
(dp3318
g80
I3
ssg81
g3312
sg74
(lp3319
S''
asbasbasbasbasbasbasbasbasbasbasbag67
(g83
g69
NtRp3320
(dp3321
g72
(dp3322
sg81
g3086
sg74
(lp3323
g67
(g88
g69
NtRp3324
(dp3325
g72
(dp3326
g92
g93
ssg81
g3320
sg74
(lp3327
S'delimiters'
p3328
asbag67
(g88
g69
NtRp3329
(dp3330
g72
(dp3331
g99
g100
ssg81
g3320
sg74
(lp3332
S':'
asbag67
(g88
g69
NtRp3333
(dp3334
g72
(dp3335
sg81
g3320
sg74
(lp3336
g67
(g68
g69
NtRp3337
(dp3338
g72
(dp3339
g80
I5
ssg81
g3333
sg74
(lp3340
g67
(g76
g69
NtRp3341
(dp3342
g72
(dp3343
g80
I4
ssg81
Nsg74
(lp3344
g67
(g83
g69
NtRp3345
(dp3346
g72
(dp3347
sg81
g3341
sg74
(lp3348
g67
(g88
g69
NtRp3349
(dp3350
g72
(dp3351
sg81
g3345
sg74
(lp3352
g67
(g68
g69
NtRp3353
(dp3354
g72
(dp3355
g80
I4
ssg81
g3349
sg74
(lp3356
S'{{'
p3357
asbasbasbag67
(g83
g69
NtRp3358
(dp3359
g72
(dp3360
sg81
g3341
sg74
(lp3361
g67
(g88
g69
NtRp3362
(dp3363
g72
(dp3364
sg81
g3358
sg74
(lp3365
g67
(g68
g69
NtRp3366
(dp3367
g72
(dp3368
g80
I4
ssg81
g3362
sg74
(lp3369
S'}}'
p3370
asbasbasbasbasbasbasbag67
(g83
g69
NtRp3371
(dp3372
g72
(dp3373
sg81
g3086
sg74
(lp3374
g67
(g88
g69
NtRp3375
(dp3376
g72
(dp3377
g92
g93
ssg81
g3371
sg74
(lp3378
S'files'
p3379
asbag67
(g88
g69
NtRp3380
(dp3381
g72
(dp3382
g99
g100
ssg81
g3371
sg74
(lp3383
S':'
asbag67
(g88
g69
NtRp3384
(dp3385
g72
(dp3386
sg81
g3371
sg74
(lp3387
g67
(g68
g69
NtRp3388
(dp3389
g72
(dp3390
g80
I5
ssg81
g3384
sg74
(lp3391
g67
(g76
g69
NtRp3392
(dp3393
g72
(dp3394
g80
I4
ssg81
Nsg74
(lp3395
sbasbasbasbag67
(g83
g69
NtRp3396
(dp3397
g72
(dp3398
sg81
g3086
sg74
(lp3399
g67
(g88
g69
NtRp3400
(dp3401
g72
(dp3402
g92
g93
ssg81
g3396
sg74
(lp3403
S'flash'
p3404
asbag67
(g88
g69
NtRp3405
(dp3406
g72
(dp3407
g99
g100
ssg81
g3396
sg74
(lp3408
S':'
asbag67
(g88
g69
NtRp3409
(dp3410
g72
(dp3411
sg81
g3396
sg74
(lp3412
g67
(g68
g69
NtRp3413
(dp3414
g72
(dp3415
g80
I5
ssg81
g3409
sg74
(lp3416
S''
asbasbasbag67
(g83
g69
NtRp3417
(dp3418
g72
(dp3419
sg81
g3086
sg74
(lp3420
g67
(g88
g69
NtRp3421
(dp3422
g72
(dp3423
g92
g93
ssg81
g3417
sg74
(lp3424
S'generic_patterns'
p3425
asbag67
(g88
g69
NtRp3426
(dp3427
g72
(dp3428
g99
g100
ssg81
g3417
sg74
(lp3429
S':'
asbag67
(g88
g69
NtRp3430
(dp3431
g72
(dp3432
sg81
g3417
sg74
(lp3433
g67
(g68
g69
NtRp3434
(dp3435
g72
(dp3436
g80
I5
ssg81
g3430
sg74
(lp3437
g67
(g76
g69
NtRp3438
(dp3439
g72
(dp3440
g80
I4
ssg81
Nsg74
(lp3441
g67
(g83
g69
NtRp3442
(dp3443
g72
(dp3444
sg81
g3438
sg74
(lp3445
g67
(g88
g69
NtRp3446
(dp3447
g72
(dp3448
sg81
g3442
sg74
(lp3449
g67
(g68
g69
NtRp3450
(dp3451
g72
(dp3452
g80
I4
ssg81
g3446
sg74
(lp3453
S'*'
asbasbasbasbasbasbasbag67
(g83
g69
NtRp3454
(dp3455
g72
(dp3456
sg81
g3086
sg74
(lp3457
g67
(g88
g69
NtRp3458
(dp3459
g72
(dp3460
g92
g93
ssg81
g3454
sg74
(lp3461
S'headers'
p3462
asbag67
(g88
g69
NtRp3463
(dp3464
g72
(dp3465
g99
g100
ssg81
g3454
sg74
(lp3466
S':'
asbag67
(g88
g69
NtRp3467
(dp3468
g72
(dp3469
sg81
g3454
sg74
(lp3470
g67
(g68
g69
NtRp3471
(dp3472
g72
(dp3473
g80
I5
ssg81
g3467
sg74
(lp3474
g67
(g76
g69
NtRp3475
(dp3476
g72
(dp3477
g80
I4
ssg81
Nsg74
(lp3478
g67
(g83
g69
NtRp3479
(dp3480
g72
(dp3481
sg81
g3475
sg74
(lp3482
g67
(g88
g69
NtRp3483
(dp3484
g72
(dp3485
g92
g93
ssg81
g3479
sg74
(lp3486
S'Cache-Control'
p3487
asbag67
(g88
g69
NtRp3488
(dp3489
g72
(dp3490
g99
g100
ssg81
g3479
sg74
(lp3491
S':'
asbag67
(g88
g69
NtRp3492
(dp3493
g72
(dp3494
sg81
g3479
sg74
(lp3495
g67
(g68
g69
NtRp3496
(dp3497
g72
(dp3498
g80
I4
ssg81
g3492
sg74
(lp3499
S'no-store, no-cache, must-revalidate, post-check=0, pre-check=0'
p3500
asbasbasbag67
(g83
g69
NtRp3501
(dp3502
g72
(dp3503
sg81
g3475
sg74
(lp3504
g67
(g88
g69
NtRp3505
(dp3506
g72
(dp3507
g92
g93
ssg81
g3501
sg74
(lp3508
S'Content-Type'
p3509
asbag67
(g88
g69
NtRp3510
(dp3511
g72
(dp3512
g99
g100
ssg81
g3501
sg74
(lp3513
S':'
asbag67
(g88
g69
NtRp3514
(dp3515
g72
(dp3516
sg81
g3501
sg74
(lp3517
g67
(g68
g69
NtRp3518
(dp3519
g72
(dp3520
g80
I4
ssg81
g3514
sg74
(lp3521
S'text/html; charset=utf-8'
p3522
asbasbasbag67
(g83
g69
NtRp3523
(dp3524
g72
(dp3525
sg81
g3475
sg74
(lp3526
g67
(g88
g69
NtRp3527
(dp3528
g72
(dp3529
g92
g93
ssg81
g3523
sg74
(lp3530
S'Expires'
p3531
asbag67
(g88
g69
NtRp3532
(dp3533
g72
(dp3534
g99
g100
ssg81
g3523
sg74
(lp3535
S':'
asbag67
(g88
g69
NtRp3536
(dp3537
g72
(dp3538
sg81
g3523
sg74
(lp3539
g67
(g68
g69
NtRp3540
(dp3541
g72
(dp3542
g80
I4
ssg81
g3536
sg74
(lp3543
S'Mon, 09 Apr 2012 20:34:25 GMT'
p3544
asbasbasbag67
(g83
g69
NtRp3545
(dp3546
g72
(dp3547
sg81
g3475
sg74
(lp3548
g67
(g88
g69
NtRp3549
(dp3550
g72
(dp3551
g92
g93
ssg81
g3545
sg74
(lp3552
S'Pragma'
p3553
asbag67
(g88
g69
NtRp3554
(dp3555
g72
(dp3556
g99
g100
ssg81
g3545
sg74
(lp3557
S':'
asbag67
(g88
g69
NtRp3558
(dp3559
g72
(dp3560
sg81
g3545
sg74
(lp3561
g67
(g68
g69
NtRp3562
(dp3563
g72
(dp3564
g80
I4
ssg81
g3558
sg74
(lp3565
S'no-cache'
p3566
asbasbasbag67
(g83
g69
NtRp3567
(dp3568
g72
(dp3569
sg81
g3475
sg74
(lp3570
g67
(g88
g69
NtRp3571
(dp3572
g72
(dp3573
g92
g93
ssg81
g3567
sg74
(lp3574
S'X-Powered-By'
p3575
asbag67
(g88
g69
NtRp3576
(dp3577
g72
(dp3578
g99
g100
ssg81
g3567
sg74
(lp3579
S':'
asbag67
(g88
g69
NtRp3580
(dp3581
g72
(dp3582
sg81
g3567
sg74
(lp3583
g67
(g68
g69
NtRp3584
(dp3585
g72
(dp3586
g80
I4
ssg81
g3580
sg74
(lp3587
S'web2py'
p3588
asbasbasbasbasbasbasbag67
(g83
g69
NtRp3589
(dp3590
g72
(dp3591
sg81
g3086
sg74
(lp3592
g67
(g88
g69
NtRp3593
(dp3594
g72
(dp3595
g92
g93
ssg81
g3589
sg74
(lp3596
S'menu'
p3597
asbag67
(g88
g69
NtRp3598
(dp3599
g72
(dp3600
g99
g100
ssg81
g3589
sg74
(lp3601
S':'
asbag67
(g88
g69
NtRp3602
(dp3603
g72
(dp3604
sg81
g3589
sg74
(lp3605
g67
(g68
g69
NtRp3606
(dp3607
g72
(dp3608
g80
I5
ssg81
g3602
sg74
(lp3609
g67
(g76
g69
NtRp3610
(dp3611
g72
(dp3612
g80
I4
ssg81
Nsg74
(lp3613
g67
(g83
g69
NtRp3614
(dp3615
g72
(dp3616
sg81
g3610
sg74
(lp3617
g67
(g88
g69
NtRp3618
(dp3619
g72
(dp3620
sg81
g3614
sg74
(lp3621
g67
(g68
g69
NtRp3622
(dp3623
g72
(dp3624
g80
I4
ssg81
g3618
sg74
(lp3625
g67
(g76
g69
NtRp3626
(dp3627
g72
(dp3628
g80
I3
ssg81
Nsg74
(lp3629
g67
(g83
g69
NtRp3630
(dp3631
g72
(dp3632
sg81
g3626
sg74
(lp3633
g67
(g88
g69
NtRp3634
(dp3635
g72
(dp3636
sg81
g3630
sg74
(lp3637
g67
(g68
g69
NtRp3638
(dp3639
g72
(dp3640
g80
I3
ssg81
g3634
sg74
(lp3641
cgluon.languages
lazyT_unpickle
p3642
(S't\x04\x00\x00\x00Home'
tRp3643
asbasbasbag67
(g83
g69
NtRp3644
(dp3645
g72
(dp3646
sg81
g3626
sg74
(lp3647
g67
(g88
g69
NtRp3648
(dp3649
g72
(dp3650
sg81
g3644
sg74
(lp3651
g67
(g68
g69
NtRp3652
(dp3653
g72
(dp3654
g80
I3
ssg81
g3648
sg74
(lp3655
g110
asbasbasbag67
(g83
g69
NtRp3656
(dp3657
g72
(dp3658
sg81
g3626
sg74
(lp3659
g67
(g88
g69
NtRp3660
(dp3661
g72
(dp3662
sg81
g3656
sg74
(lp3663
g67
(g68
g69
NtRp3664
(dp3665
g72
(dp3666
g80
I3
ssg81
g3660
sg74
(lp3667
S'/vsalad/default/index'
p3668
asbasbasbag67
(g83
g69
NtRp3669
(dp3670
g72
(dp3671
sg81
g3626
sg74
(lp3672
g67
(g88
g69
NtRp3673
(dp3674
g72
(dp3675
sg81
g3669
sg74
(lp3676
g67
(g68
g69
NtRp3677
(dp3678
g72
(dp3679
g80
I3
ssg81
g3673
sg74
(lp3680
g67
(g76
g69
NtRp3681
(dp3682
g72
(dp3683
g80
I2
ssg81
Nsg74
(lp3684
sbasbasbasbasbasbasbasbag67
(g83
g69
NtRp3685
(dp3686
g72
(dp3687
sg81
g3610
sg74
(lp3688
g67
(g88
g69
NtRp3689
(dp3690
g72
(dp3691
sg81
g3685
sg74
(lp3692
g67
(g68
g69
NtRp3693
(dp3694
g72
(dp3695
g80
I4
ssg81
g3689
sg74
(lp3696
g67
(g76
g69
NtRp3697
(dp3698
g72
(dp3699
g80
I3
ssg81
Nsg74
(lp3700
g67
(g83
g69
NtRp3701
(dp3702
g72
(dp3703
sg81
g3697
sg74
(lp3704
g67
(g88
g69
NtRp3705
(dp3706
g72
(dp3707
sg81
g3701
sg74
(lp3708
g67
(g68
g69
NtRp3709
(dp3710
g72
(dp3711
g80
I3
ssg81
g3705
sg74
(lp3712
g67
(cgluon.html
SPAN
p3713
g69
NtRp3714
(dp3715
g72
(dp3716
g92
S'color:yellow'
p3717
ssg81
Nsg74
(lp3718
g3588
asbasbasbasbag67
(g83
g69
NtRp3719
(dp3720
g72
(dp3721
sg81
g3697
sg74
(lp3722
g67
(g88
g69
NtRp3723
(dp3724
g72
(dp3725
sg81
g3719
sg74
(lp3726
g67
(g68
g69
NtRp3727
(dp3728
g72
(dp3729
g80
I3
ssg81
g3723
sg74
(lp3730
g110
asbasbasbag67
(g83
g69
NtRp3731
(dp3732
g72
(dp3733
sg81
g3697
sg74
(lp3734
g67
(g88
g69
NtRp3735
(dp3736
g72
(dp3737
sg81
g3731
sg74
(lp3738
g67
(g68
g69
NtRp3739
(dp3740
g72
(dp3741
g80
I3
ssg81
g3735
sg74
(lp3742
S'None'
p3743
asbasbasbag67
(g83
g69
NtRp3744
(dp3745
g72
(dp3746
sg81
g3697
sg74
(lp3747
g67
(g88
g69
NtRp3748
(dp3749
g72
(dp3750
sg81
g3744
sg74
(lp3751
g67
(g68
g69
NtRp3752
(dp3753
g72
(dp3754
g80
I3
ssg81
g3748
sg74
(lp3755
g67
(g76
g69
NtRp3756
(dp3757
g72
(dp3758
g80
I2
ssg81
Nsg74
(lp3759
g67
(g83
g69
NtRp3760
(dp3761
g72
(dp3762
sg81
g3756
sg74
(lp3763
g67
(g88
g69
NtRp3764
(dp3765
g72
(dp3766
sg81
g3760
sg74
(lp3767
g67
(g68
g69
NtRp3768
(dp3769
g72
(dp3770
g80
I2
ssg81
g3764
sg74
(lp3771
g67
(g76
g69
NtRp3772
(dp3773
g72
(dp3774
g80
I1
ssg81
Nsg74
(lp3775
g67
(g83
g69
NtRp3776
(dp3777
g72
(dp3778
sg81
g3772
sg74
(lp3779
g67
(g88
g69
NtRp3780
(dp3781
g72
(dp3782
sg81
g3776
sg74
(lp3783
g67
(g68
g69
NtRp3784
(dp3785
g72
(dp3786
g80
I1
ssg81
g3780
sg74
(lp3787
g3642
(S's\x08\x00\x00\x00My Sites'
tRp3788
asbasbasbag67
(g83
g69
NtRp3789
(dp3790
g72
(dp3791
sg81
g3772
sg74
(lp3792
g67
(g88
g69
NtRp3793
(dp3794
g72
(dp3795
sg81
g3789
sg74
(lp3796
g67
(g68
g69
NtRp3797
(dp3798
g72
(dp3799
g80
I1
ssg81
g3793
sg74
(lp3800
I00
asbasbasbag67
(g83
g69
NtRp3801
(dp3802
g72
(dp3803
sg81
g3772
sg74
(lp3804
g67
(g88
g69
NtRp3805
(dp3806
g72
(dp3807
sg81
g3801
sg74
(lp3808
g67
(g68
g69
NtRp3809
(dp3810
g72
(dp3811
g80
I1
ssg81
g3805
sg74
(lp3812
S'/admin/default/site'
p3813
asbasbasbasbasbasbasbag67
(g83
g69
NtRp3814
(dp3815
g72
(dp3816
sg81
g3756
sg74
(lp3817
g67
(g88
g69
NtRp3818
(dp3819
g72
(dp3820
sg81
g3814
sg74
(lp3821
g67
(g68
g69
NtRp3822
(dp3823
g72
(dp3824
g80
I2
ssg81
g3818
sg74
(lp3825
g67
(g76
g69
NtRp3826
(dp3827
g72
(dp3828
g80
I1
ssg81
Nsg74
(lp3829
g67
(g83
g69
NtRp3830
(dp3831
g72
(dp3832
sg81
g3826
sg74
(lp3833
g67
(g88
g69
NtRp3834
(dp3835
g72
(dp3836
sg81
g3830
sg74
(lp3837
g67
(g68
g69
NtRp3838
(dp3839
g72
(dp3840
g80
I1
ssg81
g3834
sg74
(lp3841
g3642
(S's\x08\x00\x00\x00This App'
tRp3842
asbasbasbag67
(g83
g69
NtRp3843
(dp3844
g72
(dp3845
sg81
g3826
sg74
(lp3846
g67
(g88
g69
NtRp3847
(dp3848
g72
(dp3849
sg81
g3843
sg74
(lp3850
g67
(g68
g69
NtRp3851
(dp3852
g72
(dp3853
g80
I1
ssg81
g3847
sg74
(lp3854
I00
asbasbasbag67
(g83
g69
NtRp3855
(dp3856
g72
(dp3857
sg81
g3826
sg74
(lp3858
g67
(g88
g69
NtRp3859
(dp3860
g72
(dp3861
sg81
g3855
sg74
(lp3862
g67
(g68
g69
NtRp3863
(dp3864
g72
(dp3865
g80
I1
ssg81
g3859
sg74
(lp3866
S'/admin/default/design/vsalad'
p3867
asbasbasbag67
(g83
g69
NtRp3868
(dp3869
g72
(dp3870
sg81
g3826
sg74
(lp3871
g67
(g88
g69
NtRp3872
(dp3873
g72
(dp3874
sg81
g3868
sg74
(lp3875
g67
(g68
g69
NtRp3876
(dp3877
g72
(dp3878
g80
I1
ssg81
g3872
sg74
(lp3879
(lp3880
(g3642
(S't\n\x00\x00\x00Controller'
tRp3881
I00
S'/admin/default/edit/vsalad/controllers/action.py'
tp3882
a(g3642
(S't\x04\x00\x00\x00View'
tRp3883
I00
S'/admin/default/edit/vsalad/views/action/comments.html'
tp3884
a(g3642
(S't\x06\x00\x00\x00Layout'
tRp3885
I00
S'/admin/default/edit/vsalad/views/layout.html'
tp3886
a(g3642
(S't\n\x00\x00\x00Stylesheet'
tRp3887
I00
S'/admin/default/edit/vsalad/static/css/web2py.css'
tp3888
a(g3642
(S's\x08\x00\x00\x00DB Model'
tRp3889
I00
S'/admin/default/edit/vsalad/models/db.py'
tp3890
a(g3642
(S's\n\x00\x00\x00Menu Model'
tRp3891
I00
S'/admin/default/edit/vsalad/models/menu.py'
tp3892
a(g3642
(S't\x08\x00\x00\x00Database'
tRp3893
I00
S'/vsalad/appadmin/index'
tp3894
a(g3642
(S't\x06\x00\x00\x00Errors'
tRp3895
I00
S'/admin/default/errors/vsalad'
tp3896
a(g3642
(S't\x05\x00\x00\x00About'
tRp3897
I00
S'/admin/default/about/vsalad'
tp3898
aasbasbasbasbasbasbasbag67
(g83
g69
NtRp3899
(dp3900
g72
(dp3901
sg81
g3756
sg74
(lp3902
g67
(g88
g69
NtRp3903
(dp3904
g72
(dp3905
sg81
g3899
sg74
(lp3906
g67
(g68
g69
NtRp3907
(dp3908
g72
(dp3909
g80
I2
ssg81
g3903
sg74
(lp3910
g67
(g76
g69
NtRp3911
(dp3912
g72
(dp3913
g80
I1
ssg81
Nsg74
(lp3914
g67
(g83
g69
NtRp3915
(dp3916
g72
(dp3917
sg81
g3911
sg74
(lp3918
g67
(g88
g69
NtRp3919
(dp3920
g72
(dp3921
sg81
g3915
sg74
(lp3922
g67
(g68
g69
NtRp3923
(dp3924
g72
(dp3925
g80
I1
ssg81
g3919
sg74
(lp3926
S'web2py.com'
p3927
asbasbasbag67
(g83
g69
NtRp3928
(dp3929
g72
(dp3930
sg81
g3911
sg74
(lp3931
g67
(g88
g69
NtRp3932
(dp3933
g72
(dp3934
sg81
g3928
sg74
(lp3935
g67
(g68
g69
NtRp3936
(dp3937
g72
(dp3938
g80
I1
ssg81
g3932
sg74
(lp3939
I00
asbasbasbag67
(g83
g69
NtRp3940
(dp3941
g72
(dp3942
sg81
g3911
sg74
(lp3943
g67
(g88
g69
NtRp3944
(dp3945
g72
(dp3946
sg81
g3940
sg74
(lp3947
g67
(g68
g69
NtRp3948
(dp3949
g72
(dp3950
g80
I1
ssg81
g3944
sg74
(lp3951
S'http://www.web2py.com'
p3952
asbasbasbag67
(g83
g69
NtRp3953
(dp3954
g72
(dp3955
sg81
g3911
sg74
(lp3956
g67
(g88
g69
NtRp3957
(dp3958
g72
(dp3959
sg81
g3953
sg74
(lp3960
g67
(g68
g69
NtRp3961
(dp3962
g72
(dp3963
g80
I1
ssg81
g3957
sg74
(lp3964
(lp3965
(g3642
(S't\x08\x00\x00\x00Download'
tRp3966
I00
S'http://www.web2py.com/examples/default/download'
p3967
tp3968
a(g3642
(S't\x07\x00\x00\x00Support'
tRp3969
I00
S'http://www.web2py.com/examples/default/support'
p3970
tp3971
a(g3642
(S't\x04\x00\x00\x00Demo'
tRp3972
I00
S'http://web2py.com/demo_admin'
p3973
tp3974
a(g3642
(S's\x0e\x00\x00\x00Quick Examples'
tRp3975
I00
S'http://web2py.com/examples/default/examples'
p3976
tp3977
a(g3642
(S't\x03\x00\x00\x00FAQ'
tRp3978
I00
S'http://web2py.com/AlterEgo'
p3979
tp3980
a(g3642
(S't\x06\x00\x00\x00Videos'
tRp3981
I00
S'http://www.web2py.com/examples/default/videos/'
p3982
tp3983
a(g3642
(S's\x11\x00\x00\x00Free Applications'
tRp3984
I00
S'http://web2py.com/appliances'
p3985
tp3986
a(g3642
(S't\x07\x00\x00\x00Plugins'
tRp3987
I00
S'http://web2py.com/plugins'
p3988
tp3989
a(g3642
(S't\x07\x00\x00\x00Layouts'
tRp3990
I00
S'http://web2py.com/layouts'
p3991
tp3992
a(g3642
(S't\x07\x00\x00\x00Recipes'
tRp3993
I00
S'http://web2pyslices.com/'
p3994
tp3995
a(g3642
(S't\x08\x00\x00\x00Semantic'
tRp3996
I00
S'http://web2py.com/semantic'
p3997
tp3998
aasbasbasbasbasbasbasbag67
(g83
g69
NtRp3999
(dp4000
g72
(dp4001
sg81
g3756
sg74
(lp4002
g67
(g88
g69
NtRp4003
(dp4004
g72
(dp4005
sg81
g3999
sg74
(lp4006
g67
(g68
g69
NtRp4007
(dp4008
g72
(dp4009
g80
I2
ssg81
g4003
sg74
(lp4010
g67
(g76
g69
NtRp4011
(dp4012
g72
(dp4013
g80
I1
ssg81
Nsg74
(lp4014
g67
(g83
g69
NtRp4015
(dp4016
g72
(dp4017
sg81
g4011
sg74
(lp4018
g67
(g88
g69
NtRp4019
(dp4020
g72
(dp4021
sg81
g4015
sg74
(lp4022
g67
(g68
g69
NtRp4023
(dp4024
g72
(dp4025
g80
I1
ssg81
g4019
sg74
(lp4026
g3642
(S't\r\x00\x00\x00Documentation'
tRp4027
asbasbasbag67
(g83
g69
NtRp4028
(dp4029
g72
(dp4030
sg81
g4011
sg74
(lp4031
g67
(g88
g69
NtRp4032
(dp4033
g72
(dp4034
sg81
g4028
sg74
(lp4035
g67
(g68
g69
NtRp4036
(dp4037
g72
(dp4038
g80
I1
ssg81
g4032
sg74
(lp4039
I00
asbasbasbag67
(g83
g69
NtRp4040
(dp4041
g72
(dp4042
sg81
g4011
sg74
(lp4043
g67
(g88
g69
NtRp4044
(dp4045
g72
(dp4046
sg81
g4040
sg74
(lp4047
g67
(g68
g69
NtRp4048
(dp4049
g72
(dp4050
g80
I1
ssg81
g4044
sg74
(lp4051
S'http://www.web2py.com/book'
p4052
asbasbasbag67
(g83
g69
NtRp4053
(dp4054
g72
(dp4055
sg81
g4011
sg74
(lp4056
g67
(g88
g69
NtRp4057
(dp4058
g72
(dp4059
sg81
g4053
sg74
(lp4060
g67
(g68
g69
NtRp4061
(dp4062
g72
(dp4063
g80
I1
ssg81
g4057
sg74
(lp4064
(lp4065
(g3642
(S't\x07\x00\x00\x00Preface'
tRp4066
I00
S'http://www.web2py.com/book/default/chapter/00'
p4067
tp4068
a(g3642
(S't\x0c\x00\x00\x00Introduction'
tRp4069
I00
S'http://www.web2py.com/book/default/chapter/01'
p4070
tp4071
a(g3642
(S't\x06\x00\x00\x00Python'
tRp4072
I00
S'http://www.web2py.com/book/default/chapter/02'
p4073
tp4074
a(g3642
(S't\x08\x00\x00\x00Overview'
tRp4075
I00
S'http://www.web2py.com/book/default/chapter/03'
p4076
tp4077
a(g3642
(S's\x08\x00\x00\x00The Core'
tRp4078
I00
S'http://www.web2py.com/book/default/chapter/04'
p4079
tp4080
a(g3642
(S's\t\x00\x00\x00The Views'
tRp4081
I00
S'http://www.web2py.com/book/default/chapter/05'
p4082
tp4083
a(g3642
(S't\x08\x00\x00\x00Database'
tRp4084
I00
S'http://www.web2py.com/book/default/chapter/06'
p4085
tp4086
a(g3642
(S's\x14\x00\x00\x00Forms and Validators'
tRp4087
I00
S'http://www.web2py.com/book/default/chapter/07'
p4088
tp4089
a(g3642
(S's\r\x00\x00\x00Email and SMS'
tRp4090
I00
S'http://www.web2py.com/book/default/chapter/08'
p4091
tp4092
a(g3642
(S's\x0e\x00\x00\x00Access Control'
tRp4093
I00
S'http://www.web2py.com/book/default/chapter/09'
p4094
tp4095
a(g3642
(S't\x08\x00\x00\x00Services'
tRp4096
I00
S'http://www.web2py.com/book/default/chapter/10'
p4097
tp4098
a(g3642
(S's\x0c\x00\x00\x00Ajax Recipes'
tRp4099
I00
S'http://www.web2py.com/book/default/chapter/11'
p4100
tp4101
a(g3642
(S's\x16\x00\x00\x00Components and Plugins'
tRp4102
I00
S'http://www.web2py.com/book/default/chapter/12'
p4103
tp4104
a(g3642
(S's\x12\x00\x00\x00Deployment Recipes'
tRp4105
I00
S'http://www.web2py.com/book/default/chapter/13'
p4106
tp4107
a(g3642
(S's\r\x00\x00\x00Other Recipes'
tRp4108
I00
S'http://www.web2py.com/book/default/chapter/14'
p4109
tp4110
a(g3642
(S's\r\x00\x00\x00Buy this book'
tRp4111
I00
S'http://stores.lulu.com/web2py'
p4112
tp4113
aasbasbasbasbasbasbasbag67
(g83
g69
NtRp4114
(dp4115
g72
(dp4116
sg81
g3756
sg74
(lp4117
g67
(g88
g69
NtRp4118
(dp4119
g72
(dp4120
sg81
g4114
sg74
(lp4121
g67
(g68
g69
NtRp4122
(dp4123
g72
(dp4124
g80
I2
ssg81
g4118
sg74
(lp4125
g67
(g76
g69
NtRp4126
(dp4127
g72
(dp4128
g80
I1
ssg81
Nsg74
(lp4129
g67
(g83
g69
NtRp4130
(dp4131
g72
(dp4132
sg81
g4126
sg74
(lp4133
g67
(g88
g69
NtRp4134
(dp4135
g72
(dp4136
sg81
g4130
sg74
(lp4137
g67
(g68
g69
NtRp4138
(dp4139
g72
(dp4140
g80
I1
ssg81
g4134
sg74
(lp4141
g3642
(S't\t\x00\x00\x00Community'
tRp4142
asbasbasbag67
(g83
g69
NtRp4143
(dp4144
g72
(dp4145
sg81
g4126
sg74
(lp4146
g67
(g88
g69
NtRp4147
(dp4148
g72
(dp4149
sg81
g4143
sg74
(lp4150
g67
(g68
g69
NtRp4151
(dp4152
g72
(dp4153
g80
I1
ssg81
g4147
sg74
(lp4154
I00
asbasbasbag67
(g83
g69
NtRp4155
(dp4156
g72
(dp4157
sg81
g4126
sg74
(lp4158
g67
(g88
g69
NtRp4159
(dp4160
g72
(dp4161
sg81
g4155
sg74
(lp4162
g67
(g68
g69
NtRp4163
(dp4164
g72
(dp4165
g80
I1
ssg81
g4159
sg74
(lp4166
Nasbasbasbag67
(g83
g69
NtRp4167
(dp4168
g72
(dp4169
sg81
g4126
sg74
(lp4170
g67
(g88
g69
NtRp4171
(dp4172
g72
(dp4173
sg81
g4167
sg74
(lp4174
g67
(g68
g69
NtRp4175
(dp4176
g72
(dp4177
g80
I1
ssg81
g4171
sg74
(lp4178
(lp4179
(g3642
(S't\x06\x00\x00\x00Groups'
tRp4180
I00
S'http://www.web2py.com/examples/default/usergroups'
p4181
tp4182
a(g3642
(S't\x07\x00\x00\x00Twitter'
tRp4183
I00
S'http://twitter.com/web2py'
p4184
tp4185
a(g3642
(S's\t\x00\x00\x00Live Chat'
tRp4186
I00
S'http://webchat.freenode.net/?channels=web2py'
p4187
tp4188
aasbasbasbasbasbasbasbag67
(g83
g69
NtRp4189
(dp4190
g72
(dp4191
sg81
g3756
sg74
(lp4192
g67
(g88
g69
NtRp4193
(dp4194
g72
(dp4195
sg81
g4189
sg74
(lp4196
g67
(g68
g69
NtRp4197
(dp4198
g72
(dp4199
g80
I2
ssg81
g4193
sg74
(lp4200
g67
(g76
g69
NtRp4201
(dp4202
g72
(dp4203
g80
I1
ssg81
Nsg74
(lp4204
g67
(g83
g69
NtRp4205
(dp4206
g72
(dp4207
sg81
g4201
sg74
(lp4208
g67
(g88
g69
NtRp4209
(dp4210
g72
(dp4211
sg81
g4205
sg74
(lp4212
g67
(g68
g69
NtRp4213
(dp4214
g72
(dp4215
g80
I1
ssg81
g4209
sg74
(lp4216
g3642
(S't\x07\x00\x00\x00Plugins'
tRp4217
asbasbasbag67
(g83
g69
NtRp4218
(dp4219
g72
(dp4220
sg81
g4201
sg74
(lp4221
g67
(g88
g69
NtRp4222
(dp4223
g72
(dp4224
sg81
g4218
sg74
(lp4225
g67
(g68
g69
NtRp4226
(dp4227
g72
(dp4228
g80
I1
ssg81
g4222
sg74
(lp4229
I00
asbasbasbag67
(g83
g69
NtRp4230
(dp4231
g72
(dp4232
sg81
g4201
sg74
(lp4233
g67
(g88
g69
NtRp4234
(dp4235
g72
(dp4236
sg81
g4230
sg74
(lp4237
g67
(g68
g69
NtRp4238
(dp4239
g72
(dp4240
g80
I1
ssg81
g4234
sg74
(lp4241
Nasbasbasbag67
(g83
g69
NtRp4242
(dp4243
g72
(dp4244
sg81
g4201
sg74
(lp4245
g67
(g88
g69
NtRp4246
(dp4247
g72
(dp4248
sg81
g4242
sg74
(lp4249
g67
(g68
g69
NtRp4250
(dp4251
g72
(dp4252
g80
I1
ssg81
g4246
sg74
(lp4253
(lp4254
(S'plugin_wiki'
p4255
I00
S'http://web2py.com/examples/default/download'
p4256
tp4257
a(g3642
(S's\r\x00\x00\x00Other Plugins'
tRp4258
I00
g3988
tp4259
a(g3642
(S's\x0e\x00\x00\x00Layout Plugins'
tRp4260
I00
g3991
tp4261
aasbasbasbasbasbasbasbasbasbasbasbasbasbasbasbasbasbasbasbag67
(g83
g69
NtRp4262
(dp4263
g72
(dp4264
sg81
g3086
sg74
(lp4265
g67
(g88
g69
NtRp4266
(dp4267
g72
(dp4268
g92
g93
ssg81
g4262
sg74
(lp4269
S'meta'
p4270
asbag67
(g88
g69
NtRp4271
(dp4272
g72
(dp4273
g99
g100
ssg81
g4262
sg74
(lp4274
S':'
asbag67
(g88
g69
NtRp4275
(dp4276
g72
(dp4277
sg81
g4262
sg74
(lp4278
g67
(g68
g69
NtRp4279
(dp4280
g72
(dp4281
g80
I5
ssg81
g4275
sg74
(lp4282
g67
(g76
g69
NtRp4283
(dp4284
g72
(dp4285
g80
I4
ssg81
Nsg74
(lp4286
g67
(g83
g69
NtRp4287
(dp4288
g72
(dp4289
sg81
g4283
sg74
(lp4290
g67
(g88
g69
NtRp4291
(dp4292
g72
(dp4293
g92
g93
ssg81
g4287
sg74
(lp4294
S'author'
p4295
asbag67
(g88
g69
NtRp4296
(dp4297
g72
(dp4298
g99
g100
ssg81
g4287
sg74
(lp4299
S':'
asbag67
(g88
g69
NtRp4300
(dp4301
g72
(dp4302
sg81
g4287
sg74
(lp4303
g67
(g68
g69
NtRp4304
(dp4305
g72
(dp4306
g80
I4
ssg81
g4300
sg74
(lp4307
S'Your Name <you@example.com>'
p4308
asbasbasbag67
(g83
g69
NtRp4309
(dp4310
g72
(dp4311
sg81
g4283
sg74
(lp4312
g67
(g88
g69
NtRp4313
(dp4314
g72
(dp4315
g92
g93
ssg81
g4309
sg74
(lp4316
S'copyright'
p4317
asbag67
(g88
g69
NtRp4318
(dp4319
g72
(dp4320
g99
g100
ssg81
g4309
sg74
(lp4321
S':'
asbag67
(g88
g69
NtRp4322
(dp4323
g72
(dp4324
sg81
g4309
sg74
(lp4325
g67
(g68
g69
NtRp4326
(dp4327
g72
(dp4328
g80
I4
ssg81
g4322
sg74
(lp4329
S'Copyright 2011'
p4330
asbasbasbag67
(g83
g69
NtRp4331
(dp4332
g72
(dp4333
sg81
g4283
sg74
(lp4334
g67
(g88
g69
NtRp4335
(dp4336
g72
(dp4337
g92
g93
ssg81
g4331
sg74
(lp4338
S'description'
p4339
asbag67
(g88
g69
NtRp4340
(dp4341
g72
(dp4342
g99
g100
ssg81
g4331
sg74
(lp4343
S':'
asbag67
(g88
g69
NtRp4344
(dp4345
g72
(dp4346
sg81
g4331
sg74
(lp4347
g67
(g68
g69
NtRp4348
(dp4349
g72
(dp4350
g80
I4
ssg81
g4344
sg74
(lp4351
S'a cool new app'
p4352
asbasbasbag67
(g83
g69
NtRp4353
(dp4354
g72
(dp4355
sg81
g4283
sg74
(lp4356
g67
(g88
g69
NtRp4357
(dp4358
g72
(dp4359
g92
g93
ssg81
g4353
sg74
(lp4360
S'generator'
p4361
asbag67
(g88
g69
NtRp4362
(dp4363
g72
(dp4364
g99
g100
ssg81
g4353
sg74
(lp4365
S':'
asbag67
(g88
g69
NtRp4366
(dp4367
g72
(dp4368
sg81
g4353
sg74
(lp4369
g67
(g68
g69
NtRp4370
(dp4371
g72
(dp4372
g80
I4
ssg81
g4366
sg74
(lp4373
S'Web2py Web Framework'
p4374
asbasbasbag67
(g83
g69
NtRp4375
(dp4376
g72
(dp4377
sg81
g4283
sg74
(lp4378
g67
(g88
g69
NtRp4379
(dp4380
g72
(dp4381
g92
g93
ssg81
g4375
sg74
(lp4382
S'keywords'
p4383
asbag67
(g88
g69
NtRp4384
(dp4385
g72
(dp4386
g99
g100
ssg81
g4375
sg74
(lp4387
S':'
asbag67
(g88
g69
NtRp4388
(dp4389
g72
(dp4390
sg81
g4375
sg74
(lp4391
g67
(g68
g69
NtRp4392
(dp4393
g72
(dp4394
g80
I4
ssg81
g4388
sg74
(lp4395
S'web2py, python, framework'
p4396
asbasbasbasbasbasbasbag67
(g83
g69
NtRp4397
(dp4398
g72
(dp4399
sg81
g3086
sg74
(lp4400
g67
(g88
g69
NtRp4401
(dp4402
g72
(dp4403
g92
g93
ssg81
g4397
sg74
(lp4404
S'postprocessing'
p4405
asbag67
(g88
g69
NtRp4406
(dp4407
g72
(dp4408
g99
g100
ssg81
g4397
sg74
(lp4409
S':'
asbag67
(g88
g69
NtRp4410
(dp4411
g72
(dp4412
sg81
g4397
sg74
(lp4413
g67
(g68
g69
NtRp4414
(dp4415
g72
(dp4416
g80
I5
ssg81
g4410
sg74
(lp4417
g67
(g76
g69
NtRp4418
(dp4419
g72
(dp4420
g80
I4
ssg81
Nsg74
(lp4421
sbasbasbasbag67
(g83
g69
NtRp4422
(dp4423
g72
(dp4424
sg81
g3086
sg74
(lp4425
g67
(g88
g69
NtRp4426
(dp4427
g72
(dp4428
g92
g93
ssg81
g4422
sg74
(lp4429
S'session_filename'
p4430
asbag67
(g88
g69
NtRp4431
(dp4432
g72
(dp4433
g99
g100
ssg81
g4422
sg74
(lp4434
S':'
asbag67
(g88
g69
NtRp4435
(dp4436
g72
(dp4437
sg81
g4422
sg74
(lp4438
g67
(g68
g69
NtRp4439
(dp4440
g72
(dp4441
g80
I5
ssg81
g4435
sg74
(lp4442
S'/home/fish/Desktop/web2py/applications/vsalad/sessions/127.0.0.1-a81dc22e-bad5-417d-889b-cb287e3839f0'
p4443
asbasbasbag67
(g83
g69
NtRp4444
(dp4445
g72
(dp4446
sg81
g3086
sg74
(lp4447
g67
(g88
g69
NtRp4448
(dp4449
g72
(dp4450
g92
g93
ssg81
g4444
sg74
(lp4451
S'session_id'
p4452
asbag67
(g88
g69
NtRp4453
(dp4454
g72
(dp4455
g99
g100
ssg81
g4444
sg74
(lp4456
S':'
asbag67
(g88
g69
NtRp4457
(dp4458
g72
(dp4459
sg81
g4444
sg74
(lp4460
g67
(g68
g69
NtRp4461
(dp4462
g72
(dp4463
g80
I5
ssg81
g4457
sg74
(lp4464
S'127.0.0.1-a81dc22e-bad5-417d-889b-cb287e3839f0'
p4465
asbasbasbag67
(g83
g69
NtRp4466
(dp4467
g72
(dp4468
sg81
g3086
sg74
(lp4469
g67
(g88
g69
NtRp4470
(dp4471
g72
(dp4472
g92
g93
ssg81
g4466
sg74
(lp4473
S'session_id_name'
p4474
asbag67
(g88
g69
NtRp4475
(dp4476
g72
(dp4477
g99
g100
ssg81
g4466
sg74
(lp4478
S':'
asbag67
(g88
g69
NtRp4479
(dp4480
g72
(dp4481
sg81
g4466
sg74
(lp4482
g67
(g68
g69
NtRp4483
(dp4484
g72
(dp4485
g80
I5
ssg81
g4479
sg74
(lp4486
g3143
asbasbasbag67
(g83
g69
NtRp4487
(dp4488
g72
(dp4489
sg81
g3086
sg74
(lp4490
g67
(g88
g69
NtRp4491
(dp4492
g72
(dp4493
g92
g93
ssg81
g4487
sg74
(lp4494
S'session_new'
p4495
asbag67
(g88
g69
NtRp4496
(dp4497
g72
(dp4498
g99
g100
ssg81
g4487
sg74
(lp4499
S':'
asbag67
(g88
g69
NtRp4500
(dp4501
g72
(dp4502
sg81
g4487
sg74
(lp4503
g67
(g68
g69
NtRp4504
(dp4505
g72
(dp4506
g80
I5
ssg81
g4500
sg74
(lp4507
g970
asbasbasbag67
(g83
g69
NtRp4508
(dp4509
g72
(dp4510
sg81
g3086
sg74
(lp4511
g67
(g88
g69
NtRp4512
(dp4513
g72
(dp4514
g92
g93
ssg81
g4508
sg74
(lp4515
S'status'
p4516
asbag67
(g88
g69
NtRp4517
(dp4518
g72
(dp4519
g99
g100
ssg81
g4508
sg74
(lp4520
S':'
asbag67
(g88
g69
NtRp4521
(dp4522
g72
(dp4523
sg81
g4508
sg74
(lp4524
g67
(g68
g69
NtRp4525
(dp4526
g72
(dp4527
g80
I5
ssg81
g4521
sg74
(lp4528
S'200'
p4529
asbasbasbag67
(g83
g69
NtRp4530
(dp4531
g72
(dp4532
sg81
g3086
sg74
(lp4533
g67
(g88
g69
NtRp4534
(dp4535
g72
(dp4536
g92
g93
ssg81
g4530
sg74
(lp4537
S'subtitle'
p4538
asbag67
(g88
g69
NtRp4539
(dp4540
g72
(dp4541
g99
g100
ssg81
g4530
sg74
(lp4542
S':'
asbag67
(g88
g69
NtRp4543
(dp4544
g72
(dp4545
sg81
g4530
sg74
(lp4546
g67
(g68
g69
NtRp4547
(dp4548
g72
(dp4549
g80
I5
ssg81
g4543
sg74
(lp4550
g3642
(S's\r\x00\x00\x00customize me!'
tRp4551
asbasbasbag67
(g83
g69
NtRp4552
(dp4553
g72
(dp4554
sg81
g3086
sg74
(lp4555
g67
(g88
g69
NtRp4556
(dp4557
g72
(dp4558
g92
g93
ssg81
g4552
sg74
(lp4559
S'title'
p4560
asbag67
(g88
g69
NtRp4561
(dp4562
g72
(dp4563
g99
g100
ssg81
g4552
sg74
(lp4564
S':'
asbag67
(g88
g69
NtRp4565
(dp4566
g72
(dp4567
sg81
g4552
sg74
(lp4568
g67
(g68
g69
NtRp4569
(dp4570
g72
(dp4571
g80
I5
ssg81
g4565
sg74
(lp4572
S'Vsalad'
p4573
asbasbasbag67
(g83
g69
NtRp4574
(dp4575
g72
(dp4576
sg81
g3086
sg74
(lp4577
g67
(g88
g69
NtRp4578
(dp4579
g72
(dp4580
g92
g93
ssg81
g4574
sg74
(lp4581
g2352
asbag67
(g88
g69
NtRp4582
(dp4583
g72
(dp4584
g99
g100
ssg81
g4574
sg74
(lp4585
S':'
asbag67
(g88
g69
NtRp4586
(dp4587
g72
(dp4588
sg81
g4574
sg74
(lp4589
g67
(g68
g69
NtRp4590
(dp4591
g72
(dp4592
g80
I5
ssg81
g4586
sg74
(lp4593
g2365
asbasbasbag67
(g83
g69
NtRp4594
(dp4595
g72
(dp4596
sg81
g3086
sg74
(lp4597
g67
(g88
g69
NtRp4598
(dp4599
g72
(dp4600
g92
g93
ssg81
g4594
sg74
(lp4601
S'view'
p4602
asbag67
(g88
g69
NtRp4603
(dp4604
g72
(dp4605
g99
g100
ssg81
g4594
sg74
(lp4606
S':'
asbag67
(g88
g69
NtRp4607
(dp4608
g72
(dp4609
sg81
g4594
sg74
(lp4610
g67
(g68
g69
NtRp4611
(dp4612
g72
(dp4613
g80
I5
ssg81
g4607
sg74
(lp4614
S'action/comments.html'
p4615
asbasbasbasbasbsS'locals'
p4616
(dp4617
g4
S"'/home/fish/Desktop/web2py/applications/vsalad/views/action/comments.html'"
p4618
sg6
S'\'response.write(\\\'<html>\\\\n<head>\\\\n<script src="\\\', ...ponse.write(\\\'\\\\n</body>\\\\n</html>\\\\n\\\', escape=False)\''
p4619
sssS'traceback'
p4620
S'Traceback (most recent call last):\n  File "/home/fish/Desktop/web2py/gluon/restricted.py", line 204, in restricted\n    ccode = compile2(code,layer)\n  File "/home/fish/Desktop/web2py/gluon/restricted.py", line 189, in compile2\n    return compile(code.rstrip().replace(\'\\r\\n\',\'\\n\')+\'\\n\', layer, \'exec\')\n  File "/home/fish/Desktop/web2py/applications/vsalad/views/action/comments.html", line 3\n    response.write(\'"></script>\\n<script> \\n</script>\\n</head>\\n<body>\\n\', escape=False)\n           ^\nSyntaxError: invalid syntax\n'
p4621
s.