(dp1
S'output'
p2
S"<type 'exceptions.ImportError'> No module named models.tools"
p3
sS'layer'
p4
S'/home/fish/Desktop/web2py/applications/vsalad/controllers/action.py'
p5
sS'code'
p6
S"# coding: utf8\nfrom models.tools import Tools\n#TODO Sorting methods\n@service.run\ndef comments():\n    article = 1\n    cmtdb = db(db.comments.article == article).select()\n    comments = []\n    defered_d = []  #deffered deletion\n    \n    for r in cmtdb:\n        comments.append({'id':r.id, 'author':r.author, 'created_on':r.created_on, 'body':r.body, 'parent_node':r.parent_node, 'children':[]})\n\n    for i, k in enumerate(comments):\n        _pid = k['parent_node']\n        if _pid > 0:\n            _id = k['id']\n            ppt = indexer(_pid, comments)\n            comments[ppt]['children'].append(k)\n            ppi = indexer(_id, comments)\n            defered_d.append(_id)\n          \n        else:\n            pass\n    for d in defered_d:\n        ppi = indexer(d, comments)\n        del comments[ppi]\n        \n    \n    return dict(comments=comments)\n\nresponse._vars=response._caller(comments)\n"
p7
sS'snapshot'
p8
(dp9
S'exception'
p10
(dp11
S'__hash__'
p12
S"<method-wrapper '__hash__' of exceptions.ImportError object>"
p13
sS'__setattr__'
p14
S"<method-wrapper '__setattr__' of exceptions.ImportError object>"
p15
sS'__reduce_ex__'
p16
S'<built-in method __reduce_ex__ of exceptions.ImportError object>'
p17
sS'__getslice__'
p18
S"<method-wrapper '__getslice__' of exceptions.ImportError object>"
p19
sS'__getitem__'
p20
S"<method-wrapper '__getitem__' of exceptions.ImportError object>"
p21
sS'__setstate__'
p22
S'<built-in method __setstate__ of exceptions.ImportError object>'
p23
sS'args'
p24
S"('No module named models.tools',)"
p25
sS'__reduce__'
p26
S'<built-in method __reduce__ of exceptions.ImportError object>'
p27
sS'__str__'
p28
S"<method-wrapper '__str__' of exceptions.ImportError object>"
p29
sS'__format__'
p30
S'<built-in method __format__ of exceptions.ImportError object>'
p31
sS'__getattribute__'
p32
S"<method-wrapper '__getattribute__' of exceptions.ImportError object>"
p33
sS'__class__'
p34
S"<type 'exceptions.ImportError'>"
p35
sS'__unicode__'
p36
S'<built-in method __unicode__ of exceptions.ImportError object>'
p37
sS'__delattr__'
p38
S"<method-wrapper '__delattr__' of exceptions.ImportError object>"
p39
sS'__subclasshook__'
p40
S'<built-in method __subclasshook__ of type object>'
p41
sS'__repr__'
p42
S"<method-wrapper '__repr__' of exceptions.ImportError object>"
p43
sS'__dict__'
p44
S'{}'
p45
sS'__sizeof__'
p46
S'<built-in method __sizeof__ of exceptions.ImportError object>'
p47
sS'__doc__'
p48
S'"Import can\'t find module, or can\'t find name in module."'
p49
sS'__init__'
p50
S"<method-wrapper '__init__' of exceptions.ImportError object>"
p51
sS'__new__'
p52
S'<built-in method __new__ of type object>'
p53
ssS'evalue'
p54
S'No module named models.tools'
p55
sS'request'
p56
ccopy_reg
_reconstructor
p57
(cgluon.html
BEAUTIFY
p58
c__builtin__
object
p59
NtRp60
(dp61
S'attributes'
p62
(dp63
sS'components'
p64
(lp65
g57
(cgluon.html
TABLE
p66
g59
NtRp67
(dp68
g62
(dp69
S'level'
p70
I5
ssS'parent'
p71
Nsg64
(lp72
g57
(cgluon.html
TR
p73
g59
NtRp74
(dp75
g62
(dp76
sg71
g67
sg64
(lp77
g57
(cgluon.html
TD
p78
g59
NtRp79
(dp80
g62
(dp81
S'_style'
p82
S'font-weight:bold;vertical-align:top'
p83
ssg71
g74
sg64
(lp84
S'ajax'
p85
asbag57
(g78
g59
NtRp86
(dp87
g62
(dp88
S'_valign'
p89
S'top'
p90
ssg71
g74
sg64
(lp91
S':'
asbag57
(g78
g59
NtRp92
(dp93
g62
(dp94
sg71
g74
sg64
(lp95
g57
(g58
g59
NtRp96
(dp97
g62
(dp98
g70
I5
ssg71
g92
sg64
(lp99
S'False'
p100
asbasbasbag57
(g73
g59
NtRp101
(dp102
g62
(dp103
sg71
g67
sg64
(lp104
g57
(g78
g59
NtRp105
(dp106
g62
(dp107
g82
g83
ssg71
g101
sg64
(lp108
S'application'
p109
asbag57
(g78
g59
NtRp110
(dp111
g62
(dp112
g89
g90
ssg71
g101
sg64
(lp113
S':'
asbag57
(g78
g59
NtRp114
(dp115
g62
(dp116
sg71
g101
sg64
(lp117
g57
(g58
g59
NtRp118
(dp119
g62
(dp120
g70
I5
ssg71
g114
sg64
(lp121
S'vsalad'
p122
asbasbasbag57
(g73
g59
NtRp123
(dp124
g62
(dp125
sg71
g67
sg64
(lp126
g57
(g78
g59
NtRp127
(dp128
g62
(dp129
g82
g83
ssg71
g123
sg64
(lp130
g24
asbag57
(g78
g59
NtRp131
(dp132
g62
(dp133
g89
g90
ssg71
g123
sg64
(lp134
S':'
asbag57
(g78
g59
NtRp135
(dp136
g62
(dp137
sg71
g123
sg64
(lp138
g57
(g58
g59
NtRp139
(dp140
g62
(dp141
g70
I5
ssg71
g135
sg64
(lp142
g57
(g66
g59
NtRp143
(dp144
g62
(dp145
g70
I4
ssg71
Nsg64
(lp146
sbasbasbasbag57
(g73
g59
NtRp147
(dp148
g62
(dp149
sg71
g67
sg64
(lp150
g57
(g78
g59
NtRp151
(dp152
g62
(dp153
g82
g83
ssg71
g147
sg64
(lp154
S'body'
p155
asbag57
(g78
g59
NtRp156
(dp157
g62
(dp158
g89
g90
ssg71
g147
sg64
(lp159
S':'
asbag57
(g78
g59
NtRp160
(dp161
g62
(dp162
sg71
g147
sg64
(lp163
g57
(g58
g59
NtRp164
(dp165
g62
(dp166
g70
I5
ssg71
g160
sg64
(lp167
S'<cStringIO.StringO object at 0x3964b90>'
p168
asbasbasbag57
(g73
g59
NtRp169
(dp170
g62
(dp171
sg71
g67
sg64
(lp172
g57
(g78
g59
NtRp173
(dp174
g62
(dp175
g82
g83
ssg71
g169
sg64
(lp176
S'client'
p177
asbag57
(g78
g59
NtRp178
(dp179
g62
(dp180
g89
g90
ssg71
g169
sg64
(lp181
S':'
asbag57
(g78
g59
NtRp182
(dp183
g62
(dp184
sg71
g169
sg64
(lp185
g57
(g58
g59
NtRp186
(dp187
g62
(dp188
g70
I5
ssg71
g182
sg64
(lp189
S'127.0.0.1'
p190
asbasbasbag57
(g73
g59
NtRp191
(dp192
g62
(dp193
sg71
g67
sg64
(lp194
g57
(g78
g59
NtRp195
(dp196
g62
(dp197
g82
g83
ssg71
g191
sg64
(lp198
S'controller'
p199
asbag57
(g78
g59
NtRp200
(dp201
g62
(dp202
g89
g90
ssg71
g191
sg64
(lp203
S':'
asbag57
(g78
g59
NtRp204
(dp205
g62
(dp206
sg71
g191
sg64
(lp207
g57
(g58
g59
NtRp208
(dp209
g62
(dp210
g70
I5
ssg71
g204
sg64
(lp211
S'action'
p212
asbasbasbag57
(g73
g59
NtRp213
(dp214
g62
(dp215
sg71
g67
sg64
(lp216
g57
(g78
g59
NtRp217
(dp218
g62
(dp219
g82
g83
ssg71
g213
sg64
(lp220
S'cookies'
p221
asbag57
(g78
g59
NtRp222
(dp223
g62
(dp224
g89
g90
ssg71
g213
sg64
(lp225
S':'
asbag57
(g78
g59
NtRp226
(dp227
g62
(dp228
sg71
g213
sg64
(lp229
g57
(g58
g59
NtRp230
(dp231
g62
(dp232
g70
I5
ssg71
g226
sg64
(lp233
g57
(g66
g59
NtRp234
(dp235
g62
(dp236
g70
I4
ssg71
Nsg64
(lp237
g57
(g73
g59
NtRp238
(dp239
g62
(dp240
sg71
g234
sg64
(lp241
g57
(g78
g59
NtRp242
(dp243
g62
(dp244
g82
g83
ssg71
g238
sg64
(lp245
S'session_id_admin'
p246
asbag57
(g78
g59
NtRp247
(dp248
g62
(dp249
g89
g90
ssg71
g238
sg64
(lp250
S':'
asbag57
(g78
g59
NtRp251
(dp252
g62
(dp253
sg71
g238
sg64
(lp254
g57
(g58
g59
NtRp255
(dp256
g62
(dp257
g70
I4
ssg71
g251
sg64
(lp258
g57
(g66
g59
NtRp259
(dp260
g62
(dp261
g70
I3
ssg71
Nsg64
(lp262
g57
(g73
g59
NtRp263
(dp264
g62
(dp265
sg71
g259
sg64
(lp266
g57
(g78
g59
NtRp267
(dp268
g62
(dp269
g82
g83
ssg71
g263
sg64
(lp270
S'comment'
p271
asbag57
(g78
g59
NtRp272
(dp273
g62
(dp274
g89
g90
ssg71
g263
sg64
(lp275
S':'
asbag57
(g78
g59
NtRp276
(dp277
g62
(dp278
sg71
g263
sg64
(lp279
g57
(g58
g59
NtRp280
(dp281
g62
(dp282
g70
I3
ssg71
g276
sg64
(lp283
S''
asbasbasbag57
(g73
g59
NtRp284
(dp285
g62
(dp286
sg71
g259
sg64
(lp287
g57
(g78
g59
NtRp288
(dp289
g62
(dp290
g82
g83
ssg71
g284
sg64
(lp291
S'domain'
p292
asbag57
(g78
g59
NtRp293
(dp294
g62
(dp295
g89
g90
ssg71
g284
sg64
(lp296
S':'
asbag57
(g78
g59
NtRp297
(dp298
g62
(dp299
sg71
g284
sg64
(lp300
g57
(g58
g59
NtRp301
(dp302
g62
(dp303
g70
I3
ssg71
g297
sg64
(lp304
S''
asbasbasbag57
(g73
g59
NtRp305
(dp306
g62
(dp307
sg71
g259
sg64
(lp308
g57
(g78
g59
NtRp309
(dp310
g62
(dp311
g82
g83
ssg71
g305
sg64
(lp312
S'expires'
p313
asbag57
(g78
g59
NtRp314
(dp315
g62
(dp316
g89
g90
ssg71
g305
sg64
(lp317
S':'
asbag57
(g78
g59
NtRp318
(dp319
g62
(dp320
sg71
g305
sg64
(lp321
g57
(g58
g59
NtRp322
(dp323
g62
(dp324
g70
I3
ssg71
g318
sg64
(lp325
S''
asbasbasbag57
(g73
g59
NtRp326
(dp327
g62
(dp328
sg71
g259
sg64
(lp329
g57
(g78
g59
NtRp330
(dp331
g62
(dp332
g82
g83
ssg71
g326
sg64
(lp333
S'httponly'
p334
asbag57
(g78
g59
NtRp335
(dp336
g62
(dp337
g89
g90
ssg71
g326
sg64
(lp338
S':'
asbag57
(g78
g59
NtRp339
(dp340
g62
(dp341
sg71
g326
sg64
(lp342
g57
(g58
g59
NtRp343
(dp344
g62
(dp345
g70
I3
ssg71
g339
sg64
(lp346
S''
asbasbasbag57
(g73
g59
NtRp347
(dp348
g62
(dp349
sg71
g259
sg64
(lp350
g57
(g78
g59
NtRp351
(dp352
g62
(dp353
g82
g83
ssg71
g347
sg64
(lp354
S'max-age'
p355
asbag57
(g78
g59
NtRp356
(dp357
g62
(dp358
g89
g90
ssg71
g347
sg64
(lp359
S':'
asbag57
(g78
g59
NtRp360
(dp361
g62
(dp362
sg71
g347
sg64
(lp363
g57
(g58
g59
NtRp364
(dp365
g62
(dp366
g70
I3
ssg71
g360
sg64
(lp367
S''
asbasbasbag57
(g73
g59
NtRp368
(dp369
g62
(dp370
sg71
g259
sg64
(lp371
g57
(g78
g59
NtRp372
(dp373
g62
(dp374
g82
g83
ssg71
g368
sg64
(lp375
S'path'
p376
asbag57
(g78
g59
NtRp377
(dp378
g62
(dp379
g89
g90
ssg71
g368
sg64
(lp380
S':'
asbag57
(g78
g59
NtRp381
(dp382
g62
(dp383
sg71
g368
sg64
(lp384
g57
(g58
g59
NtRp385
(dp386
g62
(dp387
g70
I3
ssg71
g381
sg64
(lp388
S''
asbasbasbag57
(g73
g59
NtRp389
(dp390
g62
(dp391
sg71
g259
sg64
(lp392
g57
(g78
g59
NtRp393
(dp394
g62
(dp395
g82
g83
ssg71
g389
sg64
(lp396
S'secure'
p397
asbag57
(g78
g59
NtRp398
(dp399
g62
(dp400
g89
g90
ssg71
g389
sg64
(lp401
S':'
asbag57
(g78
g59
NtRp402
(dp403
g62
(dp404
sg71
g389
sg64
(lp405
g57
(g58
g59
NtRp406
(dp407
g62
(dp408
g70
I3
ssg71
g402
sg64
(lp409
S''
asbasbasbag57
(g73
g59
NtRp410
(dp411
g62
(dp412
sg71
g259
sg64
(lp413
g57
(g78
g59
NtRp414
(dp415
g62
(dp416
g82
g83
ssg71
g410
sg64
(lp417
S'version'
p418
asbag57
(g78
g59
NtRp419
(dp420
g62
(dp421
g89
g90
ssg71
g410
sg64
(lp422
S':'
asbag57
(g78
g59
NtRp423
(dp424
g62
(dp425
sg71
g410
sg64
(lp426
g57
(g58
g59
NtRp427
(dp428
g62
(dp429
g70
I3
ssg71
g423
sg64
(lp430
S''
asbasbasbasbasbasbasbag57
(g73
g59
NtRp431
(dp432
g62
(dp433
sg71
g234
sg64
(lp434
g57
(g78
g59
NtRp435
(dp436
g62
(dp437
g82
g83
ssg71
g431
sg64
(lp438
S'session_id_welcome'
p439
asbag57
(g78
g59
NtRp440
(dp441
g62
(dp442
g89
g90
ssg71
g431
sg64
(lp443
S':'
asbag57
(g78
g59
NtRp444
(dp445
g62
(dp446
sg71
g431
sg64
(lp447
g57
(g58
g59
NtRp448
(dp449
g62
(dp450
g70
I4
ssg71
g444
sg64
(lp451
g57
(g66
g59
NtRp452
(dp453
g62
(dp454
g70
I3
ssg71
Nsg64
(lp455
g57
(g73
g59
NtRp456
(dp457
g62
(dp458
sg71
g452
sg64
(lp459
g57
(g78
g59
NtRp460
(dp461
g62
(dp462
g82
g83
ssg71
g456
sg64
(lp463
g271
asbag57
(g78
g59
NtRp464
(dp465
g62
(dp466
g89
g90
ssg71
g456
sg64
(lp467
S':'
asbag57
(g78
g59
NtRp468
(dp469
g62
(dp470
sg71
g456
sg64
(lp471
g57
(g58
g59
NtRp472
(dp473
g62
(dp474
g70
I3
ssg71
g468
sg64
(lp475
S''
asbasbasbag57
(g73
g59
NtRp476
(dp477
g62
(dp478
sg71
g452
sg64
(lp479
g57
(g78
g59
NtRp480
(dp481
g62
(dp482
g82
g83
ssg71
g476
sg64
(lp483
g292
asbag57
(g78
g59
NtRp484
(dp485
g62
(dp486
g89
g90
ssg71
g476
sg64
(lp487
S':'
asbag57
(g78
g59
NtRp488
(dp489
g62
(dp490
sg71
g476
sg64
(lp491
g57
(g58
g59
NtRp492
(dp493
g62
(dp494
g70
I3
ssg71
g488
sg64
(lp495
S''
asbasbasbag57
(g73
g59
NtRp496
(dp497
g62
(dp498
sg71
g452
sg64
(lp499
g57
(g78
g59
NtRp500
(dp501
g62
(dp502
g82
g83
ssg71
g496
sg64
(lp503
g313
asbag57
(g78
g59
NtRp504
(dp505
g62
(dp506
g89
g90
ssg71
g496
sg64
(lp507
S':'
asbag57
(g78
g59
NtRp508
(dp509
g62
(dp510
sg71
g496
sg64
(lp511
g57
(g58
g59
NtRp512
(dp513
g62
(dp514
g70
I3
ssg71
g508
sg64
(lp515
S''
asbasbasbag57
(g73
g59
NtRp516
(dp517
g62
(dp518
sg71
g452
sg64
(lp519
g57
(g78
g59
NtRp520
(dp521
g62
(dp522
g82
g83
ssg71
g516
sg64
(lp523
g334
asbag57
(g78
g59
NtRp524
(dp525
g62
(dp526
g89
g90
ssg71
g516
sg64
(lp527
S':'
asbag57
(g78
g59
NtRp528
(dp529
g62
(dp530
sg71
g516
sg64
(lp531
g57
(g58
g59
NtRp532
(dp533
g62
(dp534
g70
I3
ssg71
g528
sg64
(lp535
S''
asbasbasbag57
(g73
g59
NtRp536
(dp537
g62
(dp538
sg71
g452
sg64
(lp539
g57
(g78
g59
NtRp540
(dp541
g62
(dp542
g82
g83
ssg71
g536
sg64
(lp543
g355
asbag57
(g78
g59
NtRp544
(dp545
g62
(dp546
g89
g90
ssg71
g536
sg64
(lp547
S':'
asbag57
(g78
g59
NtRp548
(dp549
g62
(dp550
sg71
g536
sg64
(lp551
g57
(g58
g59
NtRp552
(dp553
g62
(dp554
g70
I3
ssg71
g548
sg64
(lp555
S''
asbasbasbag57
(g73
g59
NtRp556
(dp557
g62
(dp558
sg71
g452
sg64
(lp559
g57
(g78
g59
NtRp560
(dp561
g62
(dp562
g82
g83
ssg71
g556
sg64
(lp563
g376
asbag57
(g78
g59
NtRp564
(dp565
g62
(dp566
g89
g90
ssg71
g556
sg64
(lp567
S':'
asbag57
(g78
g59
NtRp568
(dp569
g62
(dp570
sg71
g556
sg64
(lp571
g57
(g58
g59
NtRp572
(dp573
g62
(dp574
g70
I3
ssg71
g568
sg64
(lp575
S''
asbasbasbag57
(g73
g59
NtRp576
(dp577
g62
(dp578
sg71
g452
sg64
(lp579
g57
(g78
g59
NtRp580
(dp581
g62
(dp582
g82
g83
ssg71
g576
sg64
(lp583
g397
asbag57
(g78
g59
NtRp584
(dp585
g62
(dp586
g89
g90
ssg71
g576
sg64
(lp587
S':'
asbag57
(g78
g59
NtRp588
(dp589
g62
(dp590
sg71
g576
sg64
(lp591
g57
(g58
g59
NtRp592
(dp593
g62
(dp594
g70
I3
ssg71
g588
sg64
(lp595
S''
asbasbasbag57
(g73
g59
NtRp596
(dp597
g62
(dp598
sg71
g452
sg64
(lp599
g57
(g78
g59
NtRp600
(dp601
g62
(dp602
g82
g83
ssg71
g596
sg64
(lp603
g418
asbag57
(g78
g59
NtRp604
(dp605
g62
(dp606
g89
g90
ssg71
g596
sg64
(lp607
S':'
asbag57
(g78
g59
NtRp608
(dp609
g62
(dp610
sg71
g596
sg64
(lp611
g57
(g58
g59
NtRp612
(dp613
g62
(dp614
g70
I3
ssg71
g608
sg64
(lp615
S''
asbasbasbasbasbasbasbasbasbasbasbag57
(g73
g59
NtRp616
(dp617
g62
(dp618
sg71
g67
sg64
(lp619
g57
(g78
g59
NtRp620
(dp621
g62
(dp622
g82
g83
ssg71
g616
sg64
(lp623
S'env'
p624
asbag57
(g78
g59
NtRp625
(dp626
g62
(dp627
g89
g90
ssg71
g616
sg64
(lp628
S':'
asbag57
(g78
g59
NtRp629
(dp630
g62
(dp631
sg71
g616
sg64
(lp632
g57
(g58
g59
NtRp633
(dp634
g62
(dp635
g70
I5
ssg71
g629
sg64
(lp636
g57
(g66
g59
NtRp637
(dp638
g62
(dp639
g70
I4
ssg71
Nsg64
(lp640
g57
(g73
g59
NtRp641
(dp642
g62
(dp643
sg71
g637
sg64
(lp644
g57
(g78
g59
NtRp645
(dp646
g62
(dp647
g82
g83
ssg71
g641
sg64
(lp648
S'app_folders'
p649
asbag57
(g78
g59
NtRp650
(dp651
g62
(dp652
g89
g90
ssg71
g641
sg64
(lp653
S':'
asbag57
(g78
g59
NtRp654
(dp655
g62
(dp656
sg71
g641
sg64
(lp657
g57
(g58
g59
NtRp658
(dp659
g62
(dp660
g70
I4
ssg71
g654
sg64
(lp661
S"set(['/home/fish/Desktop/web2py/applications/admin/', '/home/fish/Desktop/web2py/applications/welcome/', '/home/fish/Desktop/web2py/applications/vsalad/'])"
p662
asbasbasbag57
(g73
g59
NtRp663
(dp664
g62
(dp665
sg71
g637
sg64
(lp666
g57
(g78
g59
NtRp667
(dp668
g62
(dp669
g82
g83
ssg71
g663
sg64
(lp670
S'applications_parent'
p671
asbag57
(g78
g59
NtRp672
(dp673
g62
(dp674
g89
g90
ssg71
g663
sg64
(lp675
S':'
asbag57
(g78
g59
NtRp676
(dp677
g62
(dp678
sg71
g663
sg64
(lp679
g57
(g58
g59
NtRp680
(dp681
g62
(dp682
g70
I4
ssg71
g676
sg64
(lp683
S'/home/fish/Desktop/web2py'
p684
asbasbasbag57
(g73
g59
NtRp685
(dp686
g62
(dp687
sg71
g637
sg64
(lp688
g57
(g78
g59
NtRp689
(dp690
g62
(dp691
g82
g83
ssg71
g685
sg64
(lp692
S'cmd_args'
p693
asbag57
(g78
g59
NtRp694
(dp695
g62
(dp696
g89
g90
ssg71
g685
sg64
(lp697
S':'
asbag57
(g78
g59
NtRp698
(dp699
g62
(dp700
sg71
g685
sg64
(lp701
g57
(g58
g59
NtRp702
(dp703
g62
(dp704
g70
I4
ssg71
g698
sg64
(lp705
g57
(g66
g59
NtRp706
(dp707
g62
(dp708
g70
I3
ssg71
Nsg64
(lp709
sbasbasbasbag57
(g73
g59
NtRp710
(dp711
g62
(dp712
sg71
g637
sg64
(lp713
g57
(g78
g59
NtRp714
(dp715
g62
(dp716
g82
g83
ssg71
g710
sg64
(lp717
S'cmd_options'
p718
asbag57
(g78
g59
NtRp719
(dp720
g62
(dp721
g89
g90
ssg71
g710
sg64
(lp722
S':'
asbag57
(g78
g59
NtRp723
(dp724
g62
(dp725
sg71
g710
sg64
(lp726
g57
(g58
g59
NtRp727
(dp728
g62
(dp729
g70
I4
ssg71
g723
sg64
(lp730
S"<Values at 0x2b54e18: {'verbose': False, 'ip': '127.0.0.1', 'shutdown_timeout': 5, 'taskbar': False, 'nocron': False, 'pid_filename': 'httpserver.pid', 'maxthreads': None, 'softcron': False, 'server_name': 'Master-Fish', 'bpython': False, 'nogui': False, 'port': 8000, 'extcron': False, 'debuglevel': 30, 'test': None, 'folder': '/home/fish/Desktop/web2py', 'config': '', 'import_models': False, 'winservice': '', 'shell': None, 'run': '', 'log_filename': 'httpserver.log', 'args': [''], 'socket_timeout': 5, 'ssl_ca_certificate': None, 'scheduler': None, 'profiler_filename': None, 'ssl_private_key': '', 'password': 'killfish', 'request_queue_size': 5, 'ssl_certificate': '', 'cronjob': False, 'numthreads': None, 'quiet': False, 'interfaces': None, 'minthreads': None, 'timeout': 10, 'plain': False, 'nobanner': False}>"
p731
asbasbasbag57
(g73
g59
NtRp732
(dp733
g62
(dp734
sg71
g637
sg64
(lp735
g57
(g78
g59
NtRp736
(dp737
g62
(dp738
g82
g83
ssg71
g732
sg64
(lp739
S'db_sessions'
p740
asbag57
(g78
g59
NtRp741
(dp742
g62
(dp743
g89
g90
ssg71
g732
sg64
(lp744
S':'
asbag57
(g78
g59
NtRp745
(dp746
g62
(dp747
sg71
g732
sg64
(lp748
g57
(g58
g59
NtRp749
(dp750
g62
(dp751
g70
I4
ssg71
g745
sg64
(lp752
S'set([])'
p753
asbasbasbag57
(g73
g59
NtRp754
(dp755
g62
(dp756
sg71
g637
sg64
(lp757
g57
(g78
g59
NtRp758
(dp759
g62
(dp760
g82
g83
ssg71
g754
sg64
(lp761
S'debugging'
p762
asbag57
(g78
g59
NtRp763
(dp764
g62
(dp765
g89
g90
ssg71
g754
sg64
(lp766
S':'
asbag57
(g78
g59
NtRp767
(dp768
g62
(dp769
sg71
g754
sg64
(lp770
g57
(g58
g59
NtRp771
(dp772
g62
(dp773
g70
I4
ssg71
g767
sg64
(lp774
g100
asbasbasbag57
(g73
g59
NtRp775
(dp776
g62
(dp777
sg71
g637
sg64
(lp778
g57
(g78
g59
NtRp779
(dp780
g62
(dp781
g82
g83
ssg71
g775
sg64
(lp782
S'gluon_parent'
p783
asbag57
(g78
g59
NtRp784
(dp785
g62
(dp786
g89
g90
ssg71
g775
sg64
(lp787
S':'
asbag57
(g78
g59
NtRp788
(dp789
g62
(dp790
sg71
g775
sg64
(lp791
g57
(g58
g59
NtRp792
(dp793
g62
(dp794
g70
I4
ssg71
g788
sg64
(lp795
S'/home/fish/Desktop/web2py'
p796
asbasbasbag57
(g73
g59
NtRp797
(dp798
g62
(dp799
sg71
g637
sg64
(lp800
g57
(g78
g59
NtRp801
(dp802
g62
(dp803
g82
g83
ssg71
g797
sg64
(lp804
S'http_accept'
p805
asbag57
(g78
g59
NtRp806
(dp807
g62
(dp808
g89
g90
ssg71
g797
sg64
(lp809
S':'
asbag57
(g78
g59
NtRp810
(dp811
g62
(dp812
sg71
g797
sg64
(lp813
g57
(g58
g59
NtRp814
(dp815
g62
(dp816
g70
I4
ssg71
g810
sg64
(lp817
S'text/html,application/xhtml+xml,application/xml;q=0.9,*/*;q=0.8'
p818
asbasbasbag57
(g73
g59
NtRp819
(dp820
g62
(dp821
sg71
g637
sg64
(lp822
g57
(g78
g59
NtRp823
(dp824
g62
(dp825
g82
g83
ssg71
g819
sg64
(lp826
S'http_accept_charset'
p827
asbag57
(g78
g59
NtRp828
(dp829
g62
(dp830
g89
g90
ssg71
g819
sg64
(lp831
S':'
asbag57
(g78
g59
NtRp832
(dp833
g62
(dp834
sg71
g819
sg64
(lp835
g57
(g58
g59
NtRp836
(dp837
g62
(dp838
g70
I4
ssg71
g832
sg64
(lp839
S'ISO-8859-1,utf-8;q=0.7,*;q=0.3'
p840
asbasbasbag57
(g73
g59
NtRp841
(dp842
g62
(dp843
sg71
g637
sg64
(lp844
g57
(g78
g59
NtRp845
(dp846
g62
(dp847
g82
g83
ssg71
g841
sg64
(lp848
S'http_accept_encoding'
p849
asbag57
(g78
g59
NtRp850
(dp851
g62
(dp852
g89
g90
ssg71
g841
sg64
(lp853
S':'
asbag57
(g78
g59
NtRp854
(dp855
g62
(dp856
sg71
g841
sg64
(lp857
g57
(g58
g59
NtRp858
(dp859
g62
(dp860
g70
I4
ssg71
g854
sg64
(lp861
S'gzip,deflate,sdch'
p862
asbasbasbag57
(g73
g59
NtRp863
(dp864
g62
(dp865
sg71
g637
sg64
(lp866
g57
(g78
g59
NtRp867
(dp868
g62
(dp869
g82
g83
ssg71
g863
sg64
(lp870
S'http_accept_language'
p871
asbag57
(g78
g59
NtRp872
(dp873
g62
(dp874
g89
g90
ssg71
g863
sg64
(lp875
S':'
asbag57
(g78
g59
NtRp876
(dp877
g62
(dp878
sg71
g863
sg64
(lp879
g57
(g58
g59
NtRp880
(dp881
g62
(dp882
g70
I4
ssg71
g876
sg64
(lp883
S'en-US,en;q=0.8,fr;q=0.6'
p884
asbasbasbag57
(g73
g59
NtRp885
(dp886
g62
(dp887
sg71
g637
sg64
(lp888
g57
(g78
g59
NtRp889
(dp890
g62
(dp891
g82
g83
ssg71
g885
sg64
(lp892
S'http_cache_control'
p893
asbag57
(g78
g59
NtRp894
(dp895
g62
(dp896
g89
g90
ssg71
g885
sg64
(lp897
S':'
asbag57
(g78
g59
NtRp898
(dp899
g62
(dp900
sg71
g885
sg64
(lp901
g57
(g58
g59
NtRp902
(dp903
g62
(dp904
g70
I4
ssg71
g898
sg64
(lp905
S'max-age=0'
p906
asbasbasbag57
(g73
g59
NtRp907
(dp908
g62
(dp909
sg71
g637
sg64
(lp910
g57
(g78
g59
NtRp911
(dp912
g62
(dp913
g82
g83
ssg71
g907
sg64
(lp914
S'http_connection'
p915
asbag57
(g78
g59
NtRp916
(dp917
g62
(dp918
g89
g90
ssg71
g907
sg64
(lp919
S':'
asbag57
(g78
g59
NtRp920
(dp921
g62
(dp922
sg71
g907
sg64
(lp923
g57
(g58
g59
NtRp924
(dp925
g62
(dp926
g70
I4
ssg71
g920
sg64
(lp927
S'keep-alive'
p928
asbasbasbag57
(g73
g59
NtRp929
(dp930
g62
(dp931
sg71
g637
sg64
(lp932
g57
(g78
g59
NtRp933
(dp934
g62
(dp935
g82
g83
ssg71
g929
sg64
(lp936
S'http_cookie'
p937
asbag57
(g78
g59
NtRp938
(dp939
g62
(dp940
g89
g90
ssg71
g929
sg64
(lp941
S':'
asbag57
(g78
g59
NtRp942
(dp943
g62
(dp944
sg71
g929
sg64
(lp945
g57
(g58
g59
NtRp946
(dp947
g62
(dp948
g70
I4
ssg71
g942
sg64
(lp949
S'session_id_welcome=127.0.0.1-a53d1ed0-abe8-4b58-923b-292af7f72816; session_id_admin=127.0.0.1-2deb1e13-b354-49fc-b409-68cb27411e52'
p950
asbasbasbag57
(g73
g59
NtRp951
(dp952
g62
(dp953
sg71
g637
sg64
(lp954
g57
(g78
g59
NtRp955
(dp956
g62
(dp957
g82
g83
ssg71
g951
sg64
(lp958
S'http_host'
p959
asbag57
(g78
g59
NtRp960
(dp961
g62
(dp962
g89
g90
ssg71
g951
sg64
(lp963
S':'
asbag57
(g78
g59
NtRp964
(dp965
g62
(dp966
sg71
g951
sg64
(lp967
g57
(g58
g59
NtRp968
(dp969
g62
(dp970
g70
I4
ssg71
g964
sg64
(lp971
S'127.0.0.1:8000'
p972
asbasbasbag57
(g73
g59
NtRp973
(dp974
g62
(dp975
sg71
g637
sg64
(lp976
g57
(g78
g59
NtRp977
(dp978
g62
(dp979
g82
g83
ssg71
g973
sg64
(lp980
S'http_referer'
p981
asbag57
(g78
g59
NtRp982
(dp983
g62
(dp984
g89
g90
ssg71
g973
sg64
(lp985
S':'
asbag57
(g78
g59
NtRp986
(dp987
g62
(dp988
sg71
g973
sg64
(lp989
g57
(g58
g59
NtRp990
(dp991
g62
(dp992
g70
I4
ssg71
g986
sg64
(lp993
S'http://127.0.0.1:8000/admin/default/edit/vsalad/controllers/action.py'
p994
asbasbasbag57
(g73
g59
NtRp995
(dp996
g62
(dp997
sg71
g637
sg64
(lp998
g57
(g78
g59
NtRp999
(dp1000
g62
(dp1001
g82
g83
ssg71
g995
sg64
(lp1002
S'http_user_agent'
p1003
asbag57
(g78
g59
NtRp1004
(dp1005
g62
(dp1006
g89
g90
ssg71
g995
sg64
(lp1007
S':'
asbag57
(g78
g59
NtRp1008
(dp1009
g62
(dp1010
sg71
g995
sg64
(lp1011
g57
(g58
g59
NtRp1012
(dp1013
g62
(dp1014
g70
I4
ssg71
g1008
sg64
(lp1015
S'Mozilla/5.0 (X11; Linux x86_64) AppleWebKit/535.19 (KHTML, like Gecko) Chrome/18.0.1025.151 Safari/535.19'
p1016
asbasbasbag57
(g73
g59
NtRp1017
(dp1018
g62
(dp1019
sg71
g637
sg64
(lp1020
g57
(g78
g59
NtRp1021
(dp1022
g62
(dp1023
g82
g83
ssg71
g1017
sg64
(lp1024
S'is_jython'
p1025
asbag57
(g78
g59
NtRp1026
(dp1027
g62
(dp1028
g89
g90
ssg71
g1017
sg64
(lp1029
S':'
asbag57
(g78
g59
NtRp1030
(dp1031
g62
(dp1032
sg71
g1017
sg64
(lp1033
g57
(g58
g59
NtRp1034
(dp1035
g62
(dp1036
g70
I4
ssg71
g1030
sg64
(lp1037
g100
asbasbasbag57
(g73
g59
NtRp1038
(dp1039
g62
(dp1040
sg71
g637
sg64
(lp1041
g57
(g78
g59
NtRp1042
(dp1043
g62
(dp1044
g82
g83
ssg71
g1038
sg64
(lp1045
S'is_pypy'
p1046
asbag57
(g78
g59
NtRp1047
(dp1048
g62
(dp1049
g89
g90
ssg71
g1038
sg64
(lp1050
S':'
asbag57
(g78
g59
NtRp1051
(dp1052
g62
(dp1053
sg71
g1038
sg64
(lp1054
g57
(g58
g59
NtRp1055
(dp1056
g62
(dp1057
g70
I4
ssg71
g1051
sg64
(lp1058
g100
asbasbasbag57
(g73
g59
NtRp1059
(dp1060
g62
(dp1061
sg71
g637
sg64
(lp1062
g57
(g78
g59
NtRp1063
(dp1064
g62
(dp1065
g82
g83
ssg71
g1059
sg64
(lp1066
S'path_info'
p1067
asbag57
(g78
g59
NtRp1068
(dp1069
g62
(dp1070
g89
g90
ssg71
g1059
sg64
(lp1071
S':'
asbag57
(g78
g59
NtRp1072
(dp1073
g62
(dp1074
sg71
g1059
sg64
(lp1075
g57
(g58
g59
NtRp1076
(dp1077
g62
(dp1078
g70
I4
ssg71
g1072
sg64
(lp1079
S'/vsalad/action/comments'
p1080
asbasbasbag57
(g73
g59
NtRp1081
(dp1082
g62
(dp1083
sg71
g637
sg64
(lp1084
g57
(g78
g59
NtRp1085
(dp1086
g62
(dp1087
g82
g83
ssg71
g1081
sg64
(lp1088
S'query_string'
p1089
asbag57
(g78
g59
NtRp1090
(dp1091
g62
(dp1092
g89
g90
ssg71
g1081
sg64
(lp1093
S':'
asbag57
(g78
g59
NtRp1094
(dp1095
g62
(dp1096
sg71
g1081
sg64
(lp1097
g57
(g58
g59
NtRp1098
(dp1099
g62
(dp1100
g70
I4
ssg71
g1094
sg64
(lp1101
S''
asbasbasbag57
(g73
g59
NtRp1102
(dp1103
g62
(dp1104
sg71
g637
sg64
(lp1105
g57
(g78
g59
NtRp1106
(dp1107
g62
(dp1108
g82
g83
ssg71
g1102
sg64
(lp1109
S'remote_addr'
p1110
asbag57
(g78
g59
NtRp1111
(dp1112
g62
(dp1113
g89
g90
ssg71
g1102
sg64
(lp1114
S':'
asbag57
(g78
g59
NtRp1115
(dp1116
g62
(dp1117
sg71
g1102
sg64
(lp1118
g57
(g58
g59
NtRp1119
(dp1120
g62
(dp1121
g70
I4
ssg71
g1115
sg64
(lp1122
g190
asbasbasbag57
(g73
g59
NtRp1123
(dp1124
g62
(dp1125
sg71
g637
sg64
(lp1126
g57
(g78
g59
NtRp1127
(dp1128
g62
(dp1129
g82
g83
ssg71
g1123
sg64
(lp1130
S'remote_port'
p1131
asbag57
(g78
g59
NtRp1132
(dp1133
g62
(dp1134
g89
g90
ssg71
g1123
sg64
(lp1135
S':'
asbag57
(g78
g59
NtRp1136
(dp1137
g62
(dp1138
sg71
g1123
sg64
(lp1139
g57
(g58
g59
NtRp1140
(dp1141
g62
(dp1142
g70
I4
ssg71
g1136
sg64
(lp1143
S'46936'
p1144
asbasbasbag57
(g73
g59
NtRp1145
(dp1146
g62
(dp1147
sg71
g637
sg64
(lp1148
g57
(g78
g59
NtRp1149
(dp1150
g62
(dp1151
g82
g83
ssg71
g1145
sg64
(lp1152
S'request_method'
p1153
asbag57
(g78
g59
NtRp1154
(dp1155
g62
(dp1156
g89
g90
ssg71
g1145
sg64
(lp1157
S':'
asbag57
(g78
g59
NtRp1158
(dp1159
g62
(dp1160
sg71
g1145
sg64
(lp1161
g57
(g58
g59
NtRp1162
(dp1163
g62
(dp1164
g70
I4
ssg71
g1158
sg64
(lp1165
S'GET'
p1166
asbasbasbag57
(g73
g59
NtRp1167
(dp1168
g62
(dp1169
sg71
g637
sg64
(lp1170
g57
(g78
g59
NtRp1171
(dp1172
g62
(dp1173
g82
g83
ssg71
g1167
sg64
(lp1174
S'script_name'
p1175
asbag57
(g78
g59
NtRp1176
(dp1177
g62
(dp1178
g89
g90
ssg71
g1167
sg64
(lp1179
S':'
asbag57
(g78
g59
NtRp1180
(dp1181
g62
(dp1182
sg71
g1167
sg64
(lp1183
g57
(g58
g59
NtRp1184
(dp1185
g62
(dp1186
g70
I4
ssg71
g1180
sg64
(lp1187
S''
asbasbasbag57
(g73
g59
NtRp1188
(dp1189
g62
(dp1190
sg71
g637
sg64
(lp1191
g57
(g78
g59
NtRp1192
(dp1193
g62
(dp1194
g82
g83
ssg71
g1188
sg64
(lp1195
S'server_name'
p1196
asbag57
(g78
g59
NtRp1197
(dp1198
g62
(dp1199
g89
g90
ssg71
g1188
sg64
(lp1200
S':'
asbag57
(g78
g59
NtRp1201
(dp1202
g62
(dp1203
sg71
g1188
sg64
(lp1204
g57
(g58
g59
NtRp1205
(dp1206
g62
(dp1207
g70
I4
ssg71
g1201
sg64
(lp1208
S'Master-Fish'
p1209
asbasbasbag57
(g73
g59
NtRp1210
(dp1211
g62
(dp1212
sg71
g637
sg64
(lp1213
g57
(g78
g59
NtRp1214
(dp1215
g62
(dp1216
g82
g83
ssg71
g1210
sg64
(lp1217
S'server_port'
p1218
asbag57
(g78
g59
NtRp1219
(dp1220
g62
(dp1221
g89
g90
ssg71
g1210
sg64
(lp1222
S':'
asbag57
(g78
g59
NtRp1223
(dp1224
g62
(dp1225
sg71
g1210
sg64
(lp1226
g57
(g58
g59
NtRp1227
(dp1228
g62
(dp1229
g70
I4
ssg71
g1223
sg64
(lp1230
S'8000'
p1231
asbasbasbag57
(g73
g59
NtRp1232
(dp1233
g62
(dp1234
sg71
g637
sg64
(lp1235
g57
(g78
g59
NtRp1236
(dp1237
g62
(dp1238
g82
g83
ssg71
g1232
sg64
(lp1239
S'server_protocol'
p1240
asbag57
(g78
g59
NtRp1241
(dp1242
g62
(dp1243
g89
g90
ssg71
g1232
sg64
(lp1244
S':'
asbag57
(g78
g59
NtRp1245
(dp1246
g62
(dp1247
sg71
g1232
sg64
(lp1248
g57
(g58
g59
NtRp1249
(dp1250
g62
(dp1251
g70
I4
ssg71
g1245
sg64
(lp1252
S'HTTP/1.1'
p1253
asbasbasbag57
(g73
g59
NtRp1254
(dp1255
g62
(dp1256
sg71
g637
sg64
(lp1257
g57
(g78
g59
NtRp1258
(dp1259
g62
(dp1260
g82
g83
ssg71
g1254
sg64
(lp1261
S'server_software'
p1262
asbag57
(g78
g59
NtRp1263
(dp1264
g62
(dp1265
g89
g90
ssg71
g1254
sg64
(lp1266
S':'
asbag57
(g78
g59
NtRp1267
(dp1268
g62
(dp1269
sg71
g1254
sg64
(lp1270
g57
(g58
g59
NtRp1271
(dp1272
g62
(dp1273
g70
I4
ssg71
g1267
sg64
(lp1274
S'Rocket 1.2.4'
p1275
asbasbasbag57
(g73
g59
NtRp1276
(dp1277
g62
(dp1278
sg71
g637
sg64
(lp1279
g57
(g78
g59
NtRp1280
(dp1281
g62
(dp1282
g82
g83
ssg71
g1276
sg64
(lp1283
S'web2py_crontype'
p1284
asbag57
(g78
g59
NtRp1285
(dp1286
g62
(dp1287
g89
g90
ssg71
g1276
sg64
(lp1288
S':'
asbag57
(g78
g59
NtRp1289
(dp1290
g62
(dp1291
sg71
g1276
sg64
(lp1292
g57
(g58
g59
NtRp1293
(dp1294
g62
(dp1295
g70
I4
ssg71
g1289
sg64
(lp1296
S'hard'
p1297
asbasbasbag57
(g73
g59
NtRp1298
(dp1299
g62
(dp1300
sg71
g637
sg64
(lp1301
g57
(g78
g59
NtRp1302
(dp1303
g62
(dp1304
g82
g83
ssg71
g1298
sg64
(lp1305
S'web2py_path'
p1306
asbag57
(g78
g59
NtRp1307
(dp1308
g62
(dp1309
g89
g90
ssg71
g1298
sg64
(lp1310
S':'
asbag57
(g78
g59
NtRp1311
(dp1312
g62
(dp1313
sg71
g1298
sg64
(lp1314
g57
(g58
g59
NtRp1315
(dp1316
g62
(dp1317
g70
I4
ssg71
g1311
sg64
(lp1318
g684
asbasbasbag57
(g73
g59
NtRp1319
(dp1320
g62
(dp1321
sg71
g637
sg64
(lp1322
g57
(g78
g59
NtRp1323
(dp1324
g62
(dp1325
g82
g83
ssg71
g1319
sg64
(lp1326
S'web2py_version'
p1327
asbag57
(g78
g59
NtRp1328
(dp1329
g62
(dp1330
g89
g90
ssg71
g1319
sg64
(lp1331
S':'
asbag57
(g78
g59
NtRp1332
(dp1333
g62
(dp1334
sg71
g1319
sg64
(lp1335
g57
(g58
g59
NtRp1336
(dp1337
g62
(dp1338
g70
I4
ssg71
g1332
sg64
(lp1339
g57
(g66
g59
NtRp1340
(dp1341
g62
(dp1342
g70
I3
ssg71
Nsg64
(lp1343
g57
(g73
g59
NtRp1344
(dp1345
g62
(dp1346
sg71
g1340
sg64
(lp1347
g57
(g78
g59
NtRp1348
(dp1349
g62
(dp1350
sg71
g1344
sg64
(lp1351
g57
(g58
g59
NtRp1352
(dp1353
g62
(dp1354
g70
I3
ssg71
g1348
sg64
(lp1355
S'1'
asbasbasbag57
(g73
g59
NtRp1356
(dp1357
g62
(dp1358
sg71
g1340
sg64
(lp1359
g57
(g78
g59
NtRp1360
(dp1361
g62
(dp1362
sg71
g1356
sg64
(lp1363
g57
(g58
g59
NtRp1364
(dp1365
g62
(dp1366
g70
I3
ssg71
g1360
sg64
(lp1367
S'99'
p1368
asbasbasbag57
(g73
g59
NtRp1369
(dp1370
g62
(dp1371
sg71
g1340
sg64
(lp1372
g57
(g78
g59
NtRp1373
(dp1374
g62
(dp1375
sg71
g1369
sg64
(lp1376
g57
(g58
g59
NtRp1377
(dp1378
g62
(dp1379
g70
I3
ssg71
g1373
sg64
(lp1380
S'7'
asbasbasbag57
(g73
g59
NtRp1381
(dp1382
g62
(dp1383
sg71
g1340
sg64
(lp1384
g57
(g78
g59
NtRp1385
(dp1386
g62
(dp1387
sg71
g1381
sg64
(lp1388
g57
(g58
g59
NtRp1389
(dp1390
g62
(dp1391
g70
I3
ssg71
g1385
sg64
(lp1392
S'datetime.datetime(2012, 3, 4, 22, 12, 8)'
p1393
asbasbasbag57
(g73
g59
NtRp1394
(dp1395
g62
(dp1396
sg71
g1340
sg64
(lp1397
g57
(g78
g59
NtRp1398
(dp1399
g62
(dp1400
sg71
g1394
sg64
(lp1401
g57
(g58
g59
NtRp1402
(dp1403
g62
(dp1404
g70
I3
ssg71
g1398
sg64
(lp1405
S'stable'
p1406
asbasbasbasbasbasbasbag57
(g73
g59
NtRp1407
(dp1408
g62
(dp1409
sg71
g637
sg64
(lp1410
g57
(g78
g59
NtRp1411
(dp1412
g62
(dp1413
g82
g83
ssg71
g1407
sg64
(lp1414
S'wsgi_errors'
p1415
asbag57
(g78
g59
NtRp1416
(dp1417
g62
(dp1418
g89
g90
ssg71
g1407
sg64
(lp1419
S':'
asbag57
(g78
g59
NtRp1420
(dp1421
g62
(dp1422
sg71
g1407
sg64
(lp1423
g57
(g58
g59
NtRp1424
(dp1425
g62
(dp1426
g70
I4
ssg71
g1420
sg64
(lp1427
S"<open file '<stderr>', mode 'w' at 0x7f7a32ad3270>"
p1428
asbasbasbag57
(g73
g59
NtRp1429
(dp1430
g62
(dp1431
sg71
g637
sg64
(lp1432
g57
(g78
g59
NtRp1433
(dp1434
g62
(dp1435
g82
g83
ssg71
g1429
sg64
(lp1436
S'wsgi_file_wrapper'
p1437
asbag57
(g78
g59
NtRp1438
(dp1439
g62
(dp1440
g89
g90
ssg71
g1429
sg64
(lp1441
S':'
asbag57
(g78
g59
NtRp1442
(dp1443
g62
(dp1444
sg71
g1429
sg64
(lp1445
g57
(g58
g59
NtRp1446
(dp1447
g62
(dp1448
g70
I4
ssg71
g1442
sg64
(lp1449
S'<class wsgiref.util.FileWrapper at 0x2abc870>'
p1450
asbasbasbag57
(g73
g59
NtRp1451
(dp1452
g62
(dp1453
sg71
g637
sg64
(lp1454
g57
(g78
g59
NtRp1455
(dp1456
g62
(dp1457
g82
g83
ssg71
g1451
sg64
(lp1458
S'wsgi_input'
p1459
asbag57
(g78
g59
NtRp1460
(dp1461
g62
(dp1462
g89
g90
ssg71
g1451
sg64
(lp1463
S':'
asbag57
(g78
g59
NtRp1464
(dp1465
g62
(dp1466
sg71
g1451
sg64
(lp1467
g57
(g58
g59
NtRp1468
(dp1469
g62
(dp1470
g70
I4
ssg71
g1464
sg64
(lp1471
S'<socket._fileobject object at 0x31563d0>'
p1472
asbasbasbag57
(g73
g59
NtRp1473
(dp1474
g62
(dp1475
sg71
g637
sg64
(lp1476
g57
(g78
g59
NtRp1477
(dp1478
g62
(dp1479
g82
g83
ssg71
g1473
sg64
(lp1480
S'wsgi_multiprocess'
p1481
asbag57
(g78
g59
NtRp1482
(dp1483
g62
(dp1484
g89
g90
ssg71
g1473
sg64
(lp1485
S':'
asbag57
(g78
g59
NtRp1486
(dp1487
g62
(dp1488
sg71
g1473
sg64
(lp1489
g57
(g58
g59
NtRp1490
(dp1491
g62
(dp1492
g70
I4
ssg71
g1486
sg64
(lp1493
g100
asbasbasbag57
(g73
g59
NtRp1494
(dp1495
g62
(dp1496
sg71
g637
sg64
(lp1497
g57
(g78
g59
NtRp1498
(dp1499
g62
(dp1500
g82
g83
ssg71
g1494
sg64
(lp1501
S'wsgi_multithread'
p1502
asbag57
(g78
g59
NtRp1503
(dp1504
g62
(dp1505
g89
g90
ssg71
g1494
sg64
(lp1506
S':'
asbag57
(g78
g59
NtRp1507
(dp1508
g62
(dp1509
sg71
g1494
sg64
(lp1510
g57
(g58
g59
NtRp1511
(dp1512
g62
(dp1513
g70
I4
ssg71
g1507
sg64
(lp1514
S'True'
p1515
asbasbasbag57
(g73
g59
NtRp1516
(dp1517
g62
(dp1518
sg71
g637
sg64
(lp1519
g57
(g78
g59
NtRp1520
(dp1521
g62
(dp1522
g82
g83
ssg71
g1516
sg64
(lp1523
S'wsgi_run_once'
p1524
asbag57
(g78
g59
NtRp1525
(dp1526
g62
(dp1527
g89
g90
ssg71
g1516
sg64
(lp1528
S':'
asbag57
(g78
g59
NtRp1529
(dp1530
g62
(dp1531
sg71
g1516
sg64
(lp1532
g57
(g58
g59
NtRp1533
(dp1534
g62
(dp1535
g70
I4
ssg71
g1529
sg64
(lp1536
g100
asbasbasbag57
(g73
g59
NtRp1537
(dp1538
g62
(dp1539
sg71
g637
sg64
(lp1540
g57
(g78
g59
NtRp1541
(dp1542
g62
(dp1543
g82
g83
ssg71
g1537
sg64
(lp1544
S'wsgi_url_scheme'
p1545
asbag57
(g78
g59
NtRp1546
(dp1547
g62
(dp1548
g89
g90
ssg71
g1537
sg64
(lp1549
S':'
asbag57
(g78
g59
NtRp1550
(dp1551
g62
(dp1552
sg71
g1537
sg64
(lp1553
g57
(g58
g59
NtRp1554
(dp1555
g62
(dp1556
g70
I4
ssg71
g1550
sg64
(lp1557
S'http'
p1558
asbasbasbag57
(g73
g59
NtRp1559
(dp1560
g62
(dp1561
sg71
g637
sg64
(lp1562
g57
(g78
g59
NtRp1563
(dp1564
g62
(dp1565
g82
g83
ssg71
g1559
sg64
(lp1566
S'wsgi_version'
p1567
asbag57
(g78
g59
NtRp1568
(dp1569
g62
(dp1570
g89
g90
ssg71
g1559
sg64
(lp1571
S':'
asbag57
(g78
g59
NtRp1572
(dp1573
g62
(dp1574
sg71
g1559
sg64
(lp1575
g57
(g58
g59
NtRp1576
(dp1577
g62
(dp1578
g70
I4
ssg71
g1572
sg64
(lp1579
g57
(g66
g59
NtRp1580
(dp1581
g62
(dp1582
g70
I3
ssg71
Nsg64
(lp1583
g57
(g73
g59
NtRp1584
(dp1585
g62
(dp1586
sg71
g1580
sg64
(lp1587
g57
(g78
g59
NtRp1588
(dp1589
g62
(dp1590
sg71
g1584
sg64
(lp1591
g57
(g58
g59
NtRp1592
(dp1593
g62
(dp1594
g70
I3
ssg71
g1588
sg64
(lp1595
S'1'
asbasbasbag57
(g73
g59
NtRp1596
(dp1597
g62
(dp1598
sg71
g1580
sg64
(lp1599
g57
(g78
g59
NtRp1600
(dp1601
g62
(dp1602
sg71
g1596
sg64
(lp1603
g57
(g58
g59
NtRp1604
(dp1605
g62
(dp1606
g70
I3
ssg71
g1600
sg64
(lp1607
S'0'
asbasbasbasbasbasbasbasbasbasbasbag57
(g73
g59
NtRp1608
(dp1609
g62
(dp1610
sg71
g67
sg64
(lp1611
g57
(g78
g59
NtRp1612
(dp1613
g62
(dp1614
g82
g83
ssg71
g1608
sg64
(lp1615
S'extension'
p1616
asbag57
(g78
g59
NtRp1617
(dp1618
g62
(dp1619
g89
g90
ssg71
g1608
sg64
(lp1620
S':'
asbag57
(g78
g59
NtRp1621
(dp1622
g62
(dp1623
sg71
g1608
sg64
(lp1624
g57
(g58
g59
NtRp1625
(dp1626
g62
(dp1627
g70
I5
ssg71
g1621
sg64
(lp1628
S'html'
p1629
asbasbasbag57
(g73
g59
NtRp1630
(dp1631
g62
(dp1632
sg71
g67
sg64
(lp1633
g57
(g78
g59
NtRp1634
(dp1635
g62
(dp1636
g82
g83
ssg71
g1630
sg64
(lp1637
S'folder'
p1638
asbag57
(g78
g59
NtRp1639
(dp1640
g62
(dp1641
g89
g90
ssg71
g1630
sg64
(lp1642
S':'
asbag57
(g78
g59
NtRp1643
(dp1644
g62
(dp1645
sg71
g1630
sg64
(lp1646
g57
(g58
g59
NtRp1647
(dp1648
g62
(dp1649
g70
I5
ssg71
g1643
sg64
(lp1650
S'/home/fish/Desktop/web2py/applications/vsalad/'
p1651
asbasbasbag57
(g73
g59
NtRp1652
(dp1653
g62
(dp1654
sg71
g67
sg64
(lp1655
g57
(g78
g59
NtRp1656
(dp1657
g62
(dp1658
g82
g83
ssg71
g1652
sg64
(lp1659
S'function'
p1660
asbag57
(g78
g59
NtRp1661
(dp1662
g62
(dp1663
g89
g90
ssg71
g1652
sg64
(lp1664
S':'
asbag57
(g78
g59
NtRp1665
(dp1666
g62
(dp1667
sg71
g1652
sg64
(lp1668
g57
(g58
g59
NtRp1669
(dp1670
g62
(dp1671
g70
I5
ssg71
g1665
sg64
(lp1672
S'comments'
p1673
asbasbasbag57
(g73
g59
NtRp1674
(dp1675
g62
(dp1676
sg71
g67
sg64
(lp1677
g57
(g78
g59
NtRp1678
(dp1679
g62
(dp1680
g82
g83
ssg71
g1674
sg64
(lp1681
S'get_vars'
p1682
asbag57
(g78
g59
NtRp1683
(dp1684
g62
(dp1685
g89
g90
ssg71
g1674
sg64
(lp1686
S':'
asbag57
(g78
g59
NtRp1687
(dp1688
g62
(dp1689
sg71
g1674
sg64
(lp1690
g57
(g58
g59
NtRp1691
(dp1692
g62
(dp1693
g70
I5
ssg71
g1687
sg64
(lp1694
g57
(g66
g59
NtRp1695
(dp1696
g62
(dp1697
g70
I4
ssg71
Nsg64
(lp1698
sbasbasbasbag57
(g73
g59
NtRp1699
(dp1700
g62
(dp1701
sg71
g67
sg64
(lp1702
g57
(g78
g59
NtRp1703
(dp1704
g62
(dp1705
g82
g83
ssg71
g1699
sg64
(lp1706
S'global_settings'
p1707
asbag57
(g78
g59
NtRp1708
(dp1709
g62
(dp1710
g89
g90
ssg71
g1699
sg64
(lp1711
S':'
asbag57
(g78
g59
NtRp1712
(dp1713
g62
(dp1714
sg71
g1699
sg64
(lp1715
g57
(g58
g59
NtRp1716
(dp1717
g62
(dp1718
g70
I5
ssg71
g1712
sg64
(lp1719
g57
(g66
g59
NtRp1720
(dp1721
g62
(dp1722
g70
I4
ssg71
Nsg64
(lp1723
g57
(g73
g59
NtRp1724
(dp1725
g62
(dp1726
sg71
g1720
sg64
(lp1727
g57
(g78
g59
NtRp1728
(dp1729
g62
(dp1730
g82
g83
ssg71
g1724
sg64
(lp1731
g649
asbag57
(g78
g59
NtRp1732
(dp1733
g62
(dp1734
g89
g90
ssg71
g1724
sg64
(lp1735
S':'
asbag57
(g78
g59
NtRp1736
(dp1737
g62
(dp1738
sg71
g1724
sg64
(lp1739
g57
(g58
g59
NtRp1740
(dp1741
g62
(dp1742
g70
I4
ssg71
g1736
sg64
(lp1743
S"set(['/home/fish/Desktop/web2py/applications/admin/', '/home/fish/Desktop/web2py/applications/welcome/', '/home/fish/Desktop/web2py/applications/vsalad/'])"
p1744
asbasbasbag57
(g73
g59
NtRp1745
(dp1746
g62
(dp1747
sg71
g1720
sg64
(lp1748
g57
(g78
g59
NtRp1749
(dp1750
g62
(dp1751
g82
g83
ssg71
g1745
sg64
(lp1752
g671
asbag57
(g78
g59
NtRp1753
(dp1754
g62
(dp1755
g89
g90
ssg71
g1745
sg64
(lp1756
S':'
asbag57
(g78
g59
NtRp1757
(dp1758
g62
(dp1759
sg71
g1745
sg64
(lp1760
g57
(g58
g59
NtRp1761
(dp1762
g62
(dp1763
g70
I4
ssg71
g1757
sg64
(lp1764
g684
asbasbasbag57
(g73
g59
NtRp1765
(dp1766
g62
(dp1767
sg71
g1720
sg64
(lp1768
g57
(g78
g59
NtRp1769
(dp1770
g62
(dp1771
g82
g83
ssg71
g1765
sg64
(lp1772
g693
asbag57
(g78
g59
NtRp1773
(dp1774
g62
(dp1775
g89
g90
ssg71
g1765
sg64
(lp1776
S':'
asbag57
(g78
g59
NtRp1777
(dp1778
g62
(dp1779
sg71
g1765
sg64
(lp1780
g57
(g58
g59
NtRp1781
(dp1782
g62
(dp1783
g70
I4
ssg71
g1777
sg64
(lp1784
g57
(g66
g59
NtRp1785
(dp1786
g62
(dp1787
g70
I3
ssg71
Nsg64
(lp1788
sbasbasbasbag57
(g73
g59
NtRp1789
(dp1790
g62
(dp1791
sg71
g1720
sg64
(lp1792
g57
(g78
g59
NtRp1793
(dp1794
g62
(dp1795
g82
g83
ssg71
g1789
sg64
(lp1796
g718
asbag57
(g78
g59
NtRp1797
(dp1798
g62
(dp1799
g89
g90
ssg71
g1789
sg64
(lp1800
S':'
asbag57
(g78
g59
NtRp1801
(dp1802
g62
(dp1803
sg71
g1789
sg64
(lp1804
g57
(g58
g59
NtRp1805
(dp1806
g62
(dp1807
g70
I4
ssg71
g1801
sg64
(lp1808
S"<Values at 0x2b54e18: {'verbose': False, 'ip': '127.0.0.1', 'shutdown_timeout': 5, 'taskbar': False, 'nocron': False, 'pid_filename': 'httpserver.pid', 'maxthreads': None, 'softcron': False, 'server_name': 'Master-Fish', 'bpython': False, 'nogui': False, 'port': 8000, 'extcron': False, 'debuglevel': 30, 'test': None, 'folder': '/home/fish/Desktop/web2py', 'config': '', 'import_models': False, 'winservice': '', 'shell': None, 'run': '', 'log_filename': 'httpserver.log', 'args': [''], 'socket_timeout': 5, 'ssl_ca_certificate': None, 'scheduler': None, 'profiler_filename': None, 'ssl_private_key': '', 'password': 'killfish', 'request_queue_size': 5, 'ssl_certificate': '', 'cronjob': False, 'numthreads': None, 'quiet': False, 'interfaces': None, 'minthreads': None, 'timeout': 10, 'plain': False, 'nobanner': False}>"
p1809
asbasbasbag57
(g73
g59
NtRp1810
(dp1811
g62
(dp1812
sg71
g1720
sg64
(lp1813
g57
(g78
g59
NtRp1814
(dp1815
g62
(dp1816
g82
g83
ssg71
g1810
sg64
(lp1817
g740
asbag57
(g78
g59
NtRp1818
(dp1819
g62
(dp1820
g89
g90
ssg71
g1810
sg64
(lp1821
S':'
asbag57
(g78
g59
NtRp1822
(dp1823
g62
(dp1824
sg71
g1810
sg64
(lp1825
g57
(g58
g59
NtRp1826
(dp1827
g62
(dp1828
g70
I4
ssg71
g1822
sg64
(lp1829
S'set([])'
p1830
asbasbasbag57
(g73
g59
NtRp1831
(dp1832
g62
(dp1833
sg71
g1720
sg64
(lp1834
g57
(g78
g59
NtRp1835
(dp1836
g62
(dp1837
g82
g83
ssg71
g1831
sg64
(lp1838
g762
asbag57
(g78
g59
NtRp1839
(dp1840
g62
(dp1841
g89
g90
ssg71
g1831
sg64
(lp1842
S':'
asbag57
(g78
g59
NtRp1843
(dp1844
g62
(dp1845
sg71
g1831
sg64
(lp1846
g57
(g58
g59
NtRp1847
(dp1848
g62
(dp1849
g70
I4
ssg71
g1843
sg64
(lp1850
g100
asbasbasbag57
(g73
g59
NtRp1851
(dp1852
g62
(dp1853
sg71
g1720
sg64
(lp1854
g57
(g78
g59
NtRp1855
(dp1856
g62
(dp1857
g82
g83
ssg71
g1851
sg64
(lp1858
g783
asbag57
(g78
g59
NtRp1859
(dp1860
g62
(dp1861
g89
g90
ssg71
g1851
sg64
(lp1862
S':'
asbag57
(g78
g59
NtRp1863
(dp1864
g62
(dp1865
sg71
g1851
sg64
(lp1866
g57
(g58
g59
NtRp1867
(dp1868
g62
(dp1869
g70
I4
ssg71
g1863
sg64
(lp1870
g796
asbasbasbag57
(g73
g59
NtRp1871
(dp1872
g62
(dp1873
sg71
g1720
sg64
(lp1874
g57
(g78
g59
NtRp1875
(dp1876
g62
(dp1877
g82
g83
ssg71
g1871
sg64
(lp1878
g1025
asbag57
(g78
g59
NtRp1879
(dp1880
g62
(dp1881
g89
g90
ssg71
g1871
sg64
(lp1882
S':'
asbag57
(g78
g59
NtRp1883
(dp1884
g62
(dp1885
sg71
g1871
sg64
(lp1886
g57
(g58
g59
NtRp1887
(dp1888
g62
(dp1889
g70
I4
ssg71
g1883
sg64
(lp1890
g100
asbasbasbag57
(g73
g59
NtRp1891
(dp1892
g62
(dp1893
sg71
g1720
sg64
(lp1894
g57
(g78
g59
NtRp1895
(dp1896
g62
(dp1897
g82
g83
ssg71
g1891
sg64
(lp1898
g1046
asbag57
(g78
g59
NtRp1899
(dp1900
g62
(dp1901
g89
g90
ssg71
g1891
sg64
(lp1902
S':'
asbag57
(g78
g59
NtRp1903
(dp1904
g62
(dp1905
sg71
g1891
sg64
(lp1906
g57
(g58
g59
NtRp1907
(dp1908
g62
(dp1909
g70
I4
ssg71
g1903
sg64
(lp1910
g100
asbasbasbag57
(g73
g59
NtRp1911
(dp1912
g62
(dp1913
sg71
g1720
sg64
(lp1914
g57
(g78
g59
NtRp1915
(dp1916
g62
(dp1917
g82
g83
ssg71
g1911
sg64
(lp1918
g1284
asbag57
(g78
g59
NtRp1919
(dp1920
g62
(dp1921
g89
g90
ssg71
g1911
sg64
(lp1922
S':'
asbag57
(g78
g59
NtRp1923
(dp1924
g62
(dp1925
sg71
g1911
sg64
(lp1926
g57
(g58
g59
NtRp1927
(dp1928
g62
(dp1929
g70
I4
ssg71
g1923
sg64
(lp1930
g1297
asbasbasbag57
(g73
g59
NtRp1931
(dp1932
g62
(dp1933
sg71
g1720
sg64
(lp1934
g57
(g78
g59
NtRp1935
(dp1936
g62
(dp1937
g82
g83
ssg71
g1931
sg64
(lp1938
g1327
asbag57
(g78
g59
NtRp1939
(dp1940
g62
(dp1941
g89
g90
ssg71
g1931
sg64
(lp1942
S':'
asbag57
(g78
g59
NtRp1943
(dp1944
g62
(dp1945
sg71
g1931
sg64
(lp1946
g57
(g58
g59
NtRp1947
(dp1948
g62
(dp1949
g70
I4
ssg71
g1943
sg64
(lp1950
g57
(g66
g59
NtRp1951
(dp1952
g62
(dp1953
g70
I3
ssg71
Nsg64
(lp1954
g57
(g73
g59
NtRp1955
(dp1956
g62
(dp1957
sg71
g1951
sg64
(lp1958
g57
(g78
g59
NtRp1959
(dp1960
g62
(dp1961
sg71
g1955
sg64
(lp1962
g57
(g58
g59
NtRp1963
(dp1964
g62
(dp1965
g70
I3
ssg71
g1959
sg64
(lp1966
S'1'
asbasbasbag57
(g73
g59
NtRp1967
(dp1968
g62
(dp1969
sg71
g1951
sg64
(lp1970
g57
(g78
g59
NtRp1971
(dp1972
g62
(dp1973
sg71
g1967
sg64
(lp1974
g57
(g58
g59
NtRp1975
(dp1976
g62
(dp1977
g70
I3
ssg71
g1971
sg64
(lp1978
S'99'
p1979
asbasbasbag57
(g73
g59
NtRp1980
(dp1981
g62
(dp1982
sg71
g1951
sg64
(lp1983
g57
(g78
g59
NtRp1984
(dp1985
g62
(dp1986
sg71
g1980
sg64
(lp1987
g57
(g58
g59
NtRp1988
(dp1989
g62
(dp1990
g70
I3
ssg71
g1984
sg64
(lp1991
S'7'
asbasbasbag57
(g73
g59
NtRp1992
(dp1993
g62
(dp1994
sg71
g1951
sg64
(lp1995
g57
(g78
g59
NtRp1996
(dp1997
g62
(dp1998
sg71
g1992
sg64
(lp1999
g57
(g58
g59
NtRp2000
(dp2001
g62
(dp2002
g70
I3
ssg71
g1996
sg64
(lp2003
S'datetime.datetime(2012, 3, 4, 22, 12, 8)'
p2004
asbasbasbag57
(g73
g59
NtRp2005
(dp2006
g62
(dp2007
sg71
g1951
sg64
(lp2008
g57
(g78
g59
NtRp2009
(dp2010
g62
(dp2011
sg71
g2005
sg64
(lp2012
g57
(g58
g59
NtRp2013
(dp2014
g62
(dp2015
g70
I3
ssg71
g2009
sg64
(lp2016
g1406
asbasbasbasbasbasbasbasbasbasbasbag57
(g73
g59
NtRp2017
(dp2018
g62
(dp2019
sg71
g67
sg64
(lp2020
g57
(g78
g59
NtRp2021
(dp2022
g62
(dp2023
g82
g83
ssg71
g2017
sg64
(lp2024
S'is_https'
p2025
asbag57
(g78
g59
NtRp2026
(dp2027
g62
(dp2028
g89
g90
ssg71
g2017
sg64
(lp2029
S':'
asbag57
(g78
g59
NtRp2030
(dp2031
g62
(dp2032
sg71
g2017
sg64
(lp2033
g57
(g58
g59
NtRp2034
(dp2035
g62
(dp2036
g70
I5
ssg71
g2030
sg64
(lp2037
g100
asbasbasbag57
(g73
g59
NtRp2038
(dp2039
g62
(dp2040
sg71
g67
sg64
(lp2041
g57
(g78
g59
NtRp2042
(dp2043
g62
(dp2044
g82
g83
ssg71
g2038
sg64
(lp2045
S'is_local'
p2046
asbag57
(g78
g59
NtRp2047
(dp2048
g62
(dp2049
g89
g90
ssg71
g2038
sg64
(lp2050
S':'
asbag57
(g78
g59
NtRp2051
(dp2052
g62
(dp2053
sg71
g2038
sg64
(lp2054
g57
(g58
g59
NtRp2055
(dp2056
g62
(dp2057
g70
I5
ssg71
g2051
sg64
(lp2058
g1515
asbasbasbag57
(g73
g59
NtRp2059
(dp2060
g62
(dp2061
sg71
g67
sg64
(lp2062
g57
(g78
g59
NtRp2063
(dp2064
g62
(dp2065
g82
g83
ssg71
g2059
sg64
(lp2066
S'is_restful'
p2067
asbag57
(g78
g59
NtRp2068
(dp2069
g62
(dp2070
g89
g90
ssg71
g2059
sg64
(lp2071
S':'
asbag57
(g78
g59
NtRp2072
(dp2073
g62
(dp2074
sg71
g2059
sg64
(lp2075
g57
(g58
g59
NtRp2076
(dp2077
g62
(dp2078
g70
I5
ssg71
g2072
sg64
(lp2079
g100
asbasbasbag57
(g73
g59
NtRp2080
(dp2081
g62
(dp2082
sg71
g67
sg64
(lp2083
g57
(g78
g59
NtRp2084
(dp2085
g62
(dp2086
g82
g83
ssg71
g2080
sg64
(lp2087
S'now'
p2088
asbag57
(g78
g59
NtRp2089
(dp2090
g62
(dp2091
g89
g90
ssg71
g2080
sg64
(lp2092
S':'
asbag57
(g78
g59
NtRp2093
(dp2094
g62
(dp2095
sg71
g2080
sg64
(lp2096
g57
(g58
g59
NtRp2097
(dp2098
g62
(dp2099
g70
I5
ssg71
g2093
sg64
(lp2100
S'datetime.datetime(2012, 4, 8, 19, 9, 19, 529511)'
p2101
asbasbasbag57
(g73
g59
NtRp2102
(dp2103
g62
(dp2104
sg71
g67
sg64
(lp2105
g57
(g78
g59
NtRp2106
(dp2107
g62
(dp2108
g82
g83
ssg71
g2102
sg64
(lp2109
S'post_vars'
p2110
asbag57
(g78
g59
NtRp2111
(dp2112
g62
(dp2113
g89
g90
ssg71
g2102
sg64
(lp2114
S':'
asbag57
(g78
g59
NtRp2115
(dp2116
g62
(dp2117
sg71
g2102
sg64
(lp2118
g57
(g58
g59
NtRp2119
(dp2120
g62
(dp2121
g70
I5
ssg71
g2115
sg64
(lp2122
g57
(g66
g59
NtRp2123
(dp2124
g62
(dp2125
g70
I4
ssg71
Nsg64
(lp2126
sbasbasbasbag57
(g73
g59
NtRp2127
(dp2128
g62
(dp2129
sg71
g67
sg64
(lp2130
g57
(g78
g59
NtRp2131
(dp2132
g62
(dp2133
g82
g83
ssg71
g2127
sg64
(lp2134
S'url'
p2135
asbag57
(g78
g59
NtRp2136
(dp2137
g62
(dp2138
g89
g90
ssg71
g2127
sg64
(lp2139
S':'
asbag57
(g78
g59
NtRp2140
(dp2141
g62
(dp2142
sg71
g2127
sg64
(lp2143
g57
(g58
g59
NtRp2144
(dp2145
g62
(dp2146
g70
I5
ssg71
g2140
sg64
(lp2147
S'/vsalad/action/comments'
p2148
asbasbasbag57
(g73
g59
NtRp2149
(dp2150
g62
(dp2151
sg71
g67
sg64
(lp2152
g57
(g78
g59
NtRp2153
(dp2154
g62
(dp2155
g82
g83
ssg71
g2149
sg64
(lp2156
S'utcnow'
p2157
asbag57
(g78
g59
NtRp2158
(dp2159
g62
(dp2160
g89
g90
ssg71
g2149
sg64
(lp2161
S':'
asbag57
(g78
g59
NtRp2162
(dp2163
g62
(dp2164
sg71
g2149
sg64
(lp2165
g57
(g58
g59
NtRp2166
(dp2167
g62
(dp2168
g70
I5
ssg71
g2162
sg64
(lp2169
S'datetime.datetime(2012, 4, 8, 15, 9, 19, 529530)'
p2170
asbasbasbag57
(g73
g59
NtRp2171
(dp2172
g62
(dp2173
sg71
g67
sg64
(lp2174
g57
(g78
g59
NtRp2175
(dp2176
g62
(dp2177
g82
g83
ssg71
g2171
sg64
(lp2178
S'uuid'
p2179
asbag57
(g78
g59
NtRp2180
(dp2181
g62
(dp2182
g89
g90
ssg71
g2171
sg64
(lp2183
S':'
asbag57
(g78
g59
NtRp2184
(dp2185
g62
(dp2186
sg71
g2171
sg64
(lp2187
g57
(g58
g59
NtRp2188
(dp2189
g62
(dp2190
g70
I5
ssg71
g2184
sg64
(lp2191
S'vsalad/127.0.0.1.2012-04-08.19-09-19.5c0586a7-f17c-4c64-9220-cc63287180d0'
p2192
asbasbasbag57
(g73
g59
NtRp2193
(dp2194
g62
(dp2195
sg71
g67
sg64
(lp2196
g57
(g78
g59
NtRp2197
(dp2198
g62
(dp2199
g82
g83
ssg71
g2193
sg64
(lp2200
S'vars'
p2201
asbag57
(g78
g59
NtRp2202
(dp2203
g62
(dp2204
g89
g90
ssg71
g2193
sg64
(lp2205
S':'
asbag57
(g78
g59
NtRp2206
(dp2207
g62
(dp2208
sg71
g2193
sg64
(lp2209
g57
(g58
g59
NtRp2210
(dp2211
g62
(dp2212
g70
I5
ssg71
g2206
sg64
(lp2213
g57
(g66
g59
NtRp2214
(dp2215
g62
(dp2216
g70
I4
ssg71
Nsg64
(lp2217
sbasbasbasbag57
(g73
g59
NtRp2218
(dp2219
g62
(dp2220
sg71
g67
sg64
(lp2221
g57
(g78
g59
NtRp2222
(dp2223
g62
(dp2224
g82
g83
ssg71
g2218
sg64
(lp2225
S'wsgi'
p2226
asbag57
(g78
g59
NtRp2227
(dp2228
g62
(dp2229
g89
g90
ssg71
g2218
sg64
(lp2230
S':'
asbag57
(g78
g59
NtRp2231
(dp2232
g62
(dp2233
sg71
g2218
sg64
(lp2234
g57
(g58
g59
NtRp2235
(dp2236
g62
(dp2237
g70
I5
ssg71
g2231
sg64
(lp2238
g57
(g66
g59
NtRp2239
(dp2240
g62
(dp2241
g70
I4
ssg71
Nsg64
(lp2242
g57
(g73
g59
NtRp2243
(dp2244
g62
(dp2245
sg71
g2239
sg64
(lp2246
g57
(g78
g59
NtRp2247
(dp2248
g62
(dp2249
g82
g83
ssg71
g2243
sg64
(lp2250
S'environ'
p2251
asbag57
(g78
g59
NtRp2252
(dp2253
g62
(dp2254
g89
g90
ssg71
g2243
sg64
(lp2255
S':'
asbag57
(g78
g59
NtRp2256
(dp2257
g62
(dp2258
sg71
g2243
sg64
(lp2259
g57
(g58
g59
NtRp2260
(dp2261
g62
(dp2262
g70
I4
ssg71
g2256
sg64
(lp2263
g57
(g66
g59
NtRp2264
(dp2265
g62
(dp2266
g70
I3
ssg71
Nsg64
(lp2267
g57
(g73
g59
NtRp2268
(dp2269
g62
(dp2270
sg71
g2264
sg64
(lp2271
g57
(g78
g59
NtRp2272
(dp2273
g62
(dp2274
g82
g83
ssg71
g2268
sg64
(lp2275
S'HTTP_ACCEPT'
p2276
asbag57
(g78
g59
NtRp2277
(dp2278
g62
(dp2279
g89
g90
ssg71
g2268
sg64
(lp2280
S':'
asbag57
(g78
g59
NtRp2281
(dp2282
g62
(dp2283
sg71
g2268
sg64
(lp2284
g57
(g58
g59
NtRp2285
(dp2286
g62
(dp2287
g70
I3
ssg71
g2281
sg64
(lp2288
g818
asbasbasbag57
(g73
g59
NtRp2289
(dp2290
g62
(dp2291
sg71
g2264
sg64
(lp2292
g57
(g78
g59
NtRp2293
(dp2294
g62
(dp2295
g82
g83
ssg71
g2289
sg64
(lp2296
S'HTTP_ACCEPT_CHARSET'
p2297
asbag57
(g78
g59
NtRp2298
(dp2299
g62
(dp2300
g89
g90
ssg71
g2289
sg64
(lp2301
S':'
asbag57
(g78
g59
NtRp2302
(dp2303
g62
(dp2304
sg71
g2289
sg64
(lp2305
g57
(g58
g59
NtRp2306
(dp2307
g62
(dp2308
g70
I3
ssg71
g2302
sg64
(lp2309
g840
asbasbasbag57
(g73
g59
NtRp2310
(dp2311
g62
(dp2312
sg71
g2264
sg64
(lp2313
g57
(g78
g59
NtRp2314
(dp2315
g62
(dp2316
g82
g83
ssg71
g2310
sg64
(lp2317
S'HTTP_ACCEPT_ENCODING'
p2318
asbag57
(g78
g59
NtRp2319
(dp2320
g62
(dp2321
g89
g90
ssg71
g2310
sg64
(lp2322
S':'
asbag57
(g78
g59
NtRp2323
(dp2324
g62
(dp2325
sg71
g2310
sg64
(lp2326
g57
(g58
g59
NtRp2327
(dp2328
g62
(dp2329
g70
I3
ssg71
g2323
sg64
(lp2330
g862
asbasbasbag57
(g73
g59
NtRp2331
(dp2332
g62
(dp2333
sg71
g2264
sg64
(lp2334
g57
(g78
g59
NtRp2335
(dp2336
g62
(dp2337
g82
g83
ssg71
g2331
sg64
(lp2338
S'HTTP_ACCEPT_LANGUAGE'
p2339
asbag57
(g78
g59
NtRp2340
(dp2341
g62
(dp2342
g89
g90
ssg71
g2331
sg64
(lp2343
S':'
asbag57
(g78
g59
NtRp2344
(dp2345
g62
(dp2346
sg71
g2331
sg64
(lp2347
g57
(g58
g59
NtRp2348
(dp2349
g62
(dp2350
g70
I3
ssg71
g2344
sg64
(lp2351
g884
asbasbasbag57
(g73
g59
NtRp2352
(dp2353
g62
(dp2354
sg71
g2264
sg64
(lp2355
g57
(g78
g59
NtRp2356
(dp2357
g62
(dp2358
g82
g83
ssg71
g2352
sg64
(lp2359
S'HTTP_CACHE_CONTROL'
p2360
asbag57
(g78
g59
NtRp2361
(dp2362
g62
(dp2363
g89
g90
ssg71
g2352
sg64
(lp2364
S':'
asbag57
(g78
g59
NtRp2365
(dp2366
g62
(dp2367
sg71
g2352
sg64
(lp2368
g57
(g58
g59
NtRp2369
(dp2370
g62
(dp2371
g70
I3
ssg71
g2365
sg64
(lp2372
g906
asbasbasbag57
(g73
g59
NtRp2373
(dp2374
g62
(dp2375
sg71
g2264
sg64
(lp2376
g57
(g78
g59
NtRp2377
(dp2378
g62
(dp2379
g82
g83
ssg71
g2373
sg64
(lp2380
S'HTTP_CONNECTION'
p2381
asbag57
(g78
g59
NtRp2382
(dp2383
g62
(dp2384
g89
g90
ssg71
g2373
sg64
(lp2385
S':'
asbag57
(g78
g59
NtRp2386
(dp2387
g62
(dp2388
sg71
g2373
sg64
(lp2389
g57
(g58
g59
NtRp2390
(dp2391
g62
(dp2392
g70
I3
ssg71
g2386
sg64
(lp2393
g928
asbasbasbag57
(g73
g59
NtRp2394
(dp2395
g62
(dp2396
sg71
g2264
sg64
(lp2397
g57
(g78
g59
NtRp2398
(dp2399
g62
(dp2400
g82
g83
ssg71
g2394
sg64
(lp2401
S'HTTP_COOKIE'
p2402
asbag57
(g78
g59
NtRp2403
(dp2404
g62
(dp2405
g89
g90
ssg71
g2394
sg64
(lp2406
S':'
asbag57
(g78
g59
NtRp2407
(dp2408
g62
(dp2409
sg71
g2394
sg64
(lp2410
g57
(g58
g59
NtRp2411
(dp2412
g62
(dp2413
g70
I3
ssg71
g2407
sg64
(lp2414
g950
asbasbasbag57
(g73
g59
NtRp2415
(dp2416
g62
(dp2417
sg71
g2264
sg64
(lp2418
g57
(g78
g59
NtRp2419
(dp2420
g62
(dp2421
g82
g83
ssg71
g2415
sg64
(lp2422
S'HTTP_HOST'
p2423
asbag57
(g78
g59
NtRp2424
(dp2425
g62
(dp2426
g89
g90
ssg71
g2415
sg64
(lp2427
S':'
asbag57
(g78
g59
NtRp2428
(dp2429
g62
(dp2430
sg71
g2415
sg64
(lp2431
g57
(g58
g59
NtRp2432
(dp2433
g62
(dp2434
g70
I3
ssg71
g2428
sg64
(lp2435
g972
asbasbasbag57
(g73
g59
NtRp2436
(dp2437
g62
(dp2438
sg71
g2264
sg64
(lp2439
g57
(g78
g59
NtRp2440
(dp2441
g62
(dp2442
g82
g83
ssg71
g2436
sg64
(lp2443
S'HTTP_REFERER'
p2444
asbag57
(g78
g59
NtRp2445
(dp2446
g62
(dp2447
g89
g90
ssg71
g2436
sg64
(lp2448
S':'
asbag57
(g78
g59
NtRp2449
(dp2450
g62
(dp2451
sg71
g2436
sg64
(lp2452
g57
(g58
g59
NtRp2453
(dp2454
g62
(dp2455
g70
I3
ssg71
g2449
sg64
(lp2456
g994
asbasbasbag57
(g73
g59
NtRp2457
(dp2458
g62
(dp2459
sg71
g2264
sg64
(lp2460
g57
(g78
g59
NtRp2461
(dp2462
g62
(dp2463
g82
g83
ssg71
g2457
sg64
(lp2464
S'HTTP_USER_AGENT'
p2465
asbag57
(g78
g59
NtRp2466
(dp2467
g62
(dp2468
g89
g90
ssg71
g2457
sg64
(lp2469
S':'
asbag57
(g78
g59
NtRp2470
(dp2471
g62
(dp2472
sg71
g2457
sg64
(lp2473
g57
(g58
g59
NtRp2474
(dp2475
g62
(dp2476
g70
I3
ssg71
g2470
sg64
(lp2477
g1016
asbasbasbag57
(g73
g59
NtRp2478
(dp2479
g62
(dp2480
sg71
g2264
sg64
(lp2481
g57
(g78
g59
NtRp2482
(dp2483
g62
(dp2484
g82
g83
ssg71
g2478
sg64
(lp2485
S'PATH_INFO'
p2486
asbag57
(g78
g59
NtRp2487
(dp2488
g62
(dp2489
g89
g90
ssg71
g2478
sg64
(lp2490
S':'
asbag57
(g78
g59
NtRp2491
(dp2492
g62
(dp2493
sg71
g2478
sg64
(lp2494
g57
(g58
g59
NtRp2495
(dp2496
g62
(dp2497
g70
I3
ssg71
g2491
sg64
(lp2498
g1080
asbasbasbag57
(g73
g59
NtRp2499
(dp2500
g62
(dp2501
sg71
g2264
sg64
(lp2502
g57
(g78
g59
NtRp2503
(dp2504
g62
(dp2505
g82
g83
ssg71
g2499
sg64
(lp2506
S'QUERY_STRING'
p2507
asbag57
(g78
g59
NtRp2508
(dp2509
g62
(dp2510
g89
g90
ssg71
g2499
sg64
(lp2511
S':'
asbag57
(g78
g59
NtRp2512
(dp2513
g62
(dp2514
sg71
g2499
sg64
(lp2515
g57
(g58
g59
NtRp2516
(dp2517
g62
(dp2518
g70
I3
ssg71
g2512
sg64
(lp2519
S''
asbasbasbag57
(g73
g59
NtRp2520
(dp2521
g62
(dp2522
sg71
g2264
sg64
(lp2523
g57
(g78
g59
NtRp2524
(dp2525
g62
(dp2526
g82
g83
ssg71
g2520
sg64
(lp2527
S'REMOTE_ADDR'
p2528
asbag57
(g78
g59
NtRp2529
(dp2530
g62
(dp2531
g89
g90
ssg71
g2520
sg64
(lp2532
S':'
asbag57
(g78
g59
NtRp2533
(dp2534
g62
(dp2535
sg71
g2520
sg64
(lp2536
g57
(g58
g59
NtRp2537
(dp2538
g62
(dp2539
g70
I3
ssg71
g2533
sg64
(lp2540
g190
asbasbasbag57
(g73
g59
NtRp2541
(dp2542
g62
(dp2543
sg71
g2264
sg64
(lp2544
g57
(g78
g59
NtRp2545
(dp2546
g62
(dp2547
g82
g83
ssg71
g2541
sg64
(lp2548
S'REMOTE_PORT'
p2549
asbag57
(g78
g59
NtRp2550
(dp2551
g62
(dp2552
g89
g90
ssg71
g2541
sg64
(lp2553
S':'
asbag57
(g78
g59
NtRp2554
(dp2555
g62
(dp2556
sg71
g2541
sg64
(lp2557
g57
(g58
g59
NtRp2558
(dp2559
g62
(dp2560
g70
I3
ssg71
g2554
sg64
(lp2561
g1144
asbasbasbag57
(g73
g59
NtRp2562
(dp2563
g62
(dp2564
sg71
g2264
sg64
(lp2565
g57
(g78
g59
NtRp2566
(dp2567
g62
(dp2568
g82
g83
ssg71
g2562
sg64
(lp2569
S'REQUEST_METHOD'
p2570
asbag57
(g78
g59
NtRp2571
(dp2572
g62
(dp2573
g89
g90
ssg71
g2562
sg64
(lp2574
S':'
asbag57
(g78
g59
NtRp2575
(dp2576
g62
(dp2577
sg71
g2562
sg64
(lp2578
g57
(g58
g59
NtRp2579
(dp2580
g62
(dp2581
g70
I3
ssg71
g2575
sg64
(lp2582
g1166
asbasbasbag57
(g73
g59
NtRp2583
(dp2584
g62
(dp2585
sg71
g2264
sg64
(lp2586
g57
(g78
g59
NtRp2587
(dp2588
g62
(dp2589
g82
g83
ssg71
g2583
sg64
(lp2590
S'SCRIPT_NAME'
p2591
asbag57
(g78
g59
NtRp2592
(dp2593
g62
(dp2594
g89
g90
ssg71
g2583
sg64
(lp2595
S':'
asbag57
(g78
g59
NtRp2596
(dp2597
g62
(dp2598
sg71
g2583
sg64
(lp2599
g57
(g58
g59
NtRp2600
(dp2601
g62
(dp2602
g70
I3
ssg71
g2596
sg64
(lp2603
S''
asbasbasbag57
(g73
g59
NtRp2604
(dp2605
g62
(dp2606
sg71
g2264
sg64
(lp2607
g57
(g78
g59
NtRp2608
(dp2609
g62
(dp2610
g82
g83
ssg71
g2604
sg64
(lp2611
S'SERVER_NAME'
p2612
asbag57
(g78
g59
NtRp2613
(dp2614
g62
(dp2615
g89
g90
ssg71
g2604
sg64
(lp2616
S':'
asbag57
(g78
g59
NtRp2617
(dp2618
g62
(dp2619
sg71
g2604
sg64
(lp2620
g57
(g58
g59
NtRp2621
(dp2622
g62
(dp2623
g70
I3
ssg71
g2617
sg64
(lp2624
g1209
asbasbasbag57
(g73
g59
NtRp2625
(dp2626
g62
(dp2627
sg71
g2264
sg64
(lp2628
g57
(g78
g59
NtRp2629
(dp2630
g62
(dp2631
g82
g83
ssg71
g2625
sg64
(lp2632
S'SERVER_PORT'
p2633
asbag57
(g78
g59
NtRp2634
(dp2635
g62
(dp2636
g89
g90
ssg71
g2625
sg64
(lp2637
S':'
asbag57
(g78
g59
NtRp2638
(dp2639
g62
(dp2640
sg71
g2625
sg64
(lp2641
g57
(g58
g59
NtRp2642
(dp2643
g62
(dp2644
g70
I3
ssg71
g2638
sg64
(lp2645
g1231
asbasbasbag57
(g73
g59
NtRp2646
(dp2647
g62
(dp2648
sg71
g2264
sg64
(lp2649
g57
(g78
g59
NtRp2650
(dp2651
g62
(dp2652
g82
g83
ssg71
g2646
sg64
(lp2653
S'SERVER_PROTOCOL'
p2654
asbag57
(g78
g59
NtRp2655
(dp2656
g62
(dp2657
g89
g90
ssg71
g2646
sg64
(lp2658
S':'
asbag57
(g78
g59
NtRp2659
(dp2660
g62
(dp2661
sg71
g2646
sg64
(lp2662
g57
(g58
g59
NtRp2663
(dp2664
g62
(dp2665
g70
I3
ssg71
g2659
sg64
(lp2666
g1253
asbasbasbag57
(g73
g59
NtRp2667
(dp2668
g62
(dp2669
sg71
g2264
sg64
(lp2670
g57
(g78
g59
NtRp2671
(dp2672
g62
(dp2673
g82
g83
ssg71
g2667
sg64
(lp2674
S'SERVER_SOFTWARE'
p2675
asbag57
(g78
g59
NtRp2676
(dp2677
g62
(dp2678
g89
g90
ssg71
g2667
sg64
(lp2679
S':'
asbag57
(g78
g59
NtRp2680
(dp2681
g62
(dp2682
sg71
g2667
sg64
(lp2683
g57
(g58
g59
NtRp2684
(dp2685
g62
(dp2686
g70
I3
ssg71
g2680
sg64
(lp2687
g1275
asbasbasbag57
(g73
g59
NtRp2688
(dp2689
g62
(dp2690
sg71
g2264
sg64
(lp2691
g57
(g78
g59
NtRp2692
(dp2693
g62
(dp2694
g82
g83
ssg71
g2688
sg64
(lp2695
S'wsgi.errors'
p2696
asbag57
(g78
g59
NtRp2697
(dp2698
g62
(dp2699
g89
g90
ssg71
g2688
sg64
(lp2700
S':'
asbag57
(g78
g59
NtRp2701
(dp2702
g62
(dp2703
sg71
g2688
sg64
(lp2704
g57
(g58
g59
NtRp2705
(dp2706
g62
(dp2707
g70
I3
ssg71
g2701
sg64
(lp2708
S"<open file '<stderr>', mode 'w' at 0x7f7a32ad3270>"
p2709
asbasbasbag57
(g73
g59
NtRp2710
(dp2711
g62
(dp2712
sg71
g2264
sg64
(lp2713
g57
(g78
g59
NtRp2714
(dp2715
g62
(dp2716
g82
g83
ssg71
g2710
sg64
(lp2717
S'wsgi.file_wrapper'
p2718
asbag57
(g78
g59
NtRp2719
(dp2720
g62
(dp2721
g89
g90
ssg71
g2710
sg64
(lp2722
S':'
asbag57
(g78
g59
NtRp2723
(dp2724
g62
(dp2725
sg71
g2710
sg64
(lp2726
g57
(g58
g59
NtRp2727
(dp2728
g62
(dp2729
g70
I3
ssg71
g2723
sg64
(lp2730
S'<class wsgiref.util.FileWrapper at 0x2abc870>'
p2731
asbasbasbag57
(g73
g59
NtRp2732
(dp2733
g62
(dp2734
sg71
g2264
sg64
(lp2735
g57
(g78
g59
NtRp2736
(dp2737
g62
(dp2738
g82
g83
ssg71
g2732
sg64
(lp2739
S'wsgi.input'
p2740
asbag57
(g78
g59
NtRp2741
(dp2742
g62
(dp2743
g89
g90
ssg71
g2732
sg64
(lp2744
S':'
asbag57
(g78
g59
NtRp2745
(dp2746
g62
(dp2747
sg71
g2732
sg64
(lp2748
g57
(g58
g59
NtRp2749
(dp2750
g62
(dp2751
g70
I3
ssg71
g2745
sg64
(lp2752
S'<cStringIO.StringO object at 0x3964b90>'
p2753
asbasbasbag57
(g73
g59
NtRp2754
(dp2755
g62
(dp2756
sg71
g2264
sg64
(lp2757
g57
(g78
g59
NtRp2758
(dp2759
g62
(dp2760
g82
g83
ssg71
g2754
sg64
(lp2761
S'wsgi.multiprocess'
p2762
asbag57
(g78
g59
NtRp2763
(dp2764
g62
(dp2765
g89
g90
ssg71
g2754
sg64
(lp2766
S':'
asbag57
(g78
g59
NtRp2767
(dp2768
g62
(dp2769
sg71
g2754
sg64
(lp2770
g57
(g58
g59
NtRp2771
(dp2772
g62
(dp2773
g70
I3
ssg71
g2767
sg64
(lp2774
g100
asbasbasbag57
(g73
g59
NtRp2775
(dp2776
g62
(dp2777
sg71
g2264
sg64
(lp2778
g57
(g78
g59
NtRp2779
(dp2780
g62
(dp2781
g82
g83
ssg71
g2775
sg64
(lp2782
S'wsgi.multithread'
p2783
asbag57
(g78
g59
NtRp2784
(dp2785
g62
(dp2786
g89
g90
ssg71
g2775
sg64
(lp2787
S':'
asbag57
(g78
g59
NtRp2788
(dp2789
g62
(dp2790
sg71
g2775
sg64
(lp2791
g57
(g58
g59
NtRp2792
(dp2793
g62
(dp2794
g70
I3
ssg71
g2788
sg64
(lp2795
g1515
asbasbasbag57
(g73
g59
NtRp2796
(dp2797
g62
(dp2798
sg71
g2264
sg64
(lp2799
g57
(g78
g59
NtRp2800
(dp2801
g62
(dp2802
g82
g83
ssg71
g2796
sg64
(lp2803
S'wsgi.run_once'
p2804
asbag57
(g78
g59
NtRp2805
(dp2806
g62
(dp2807
g89
g90
ssg71
g2796
sg64
(lp2808
S':'
asbag57
(g78
g59
NtRp2809
(dp2810
g62
(dp2811
sg71
g2796
sg64
(lp2812
g57
(g58
g59
NtRp2813
(dp2814
g62
(dp2815
g70
I3
ssg71
g2809
sg64
(lp2816
g100
asbasbasbag57
(g73
g59
NtRp2817
(dp2818
g62
(dp2819
sg71
g2264
sg64
(lp2820
g57
(g78
g59
NtRp2821
(dp2822
g62
(dp2823
g82
g83
ssg71
g2817
sg64
(lp2824
S'wsgi.url_scheme'
p2825
asbag57
(g78
g59
NtRp2826
(dp2827
g62
(dp2828
g89
g90
ssg71
g2817
sg64
(lp2829
S':'
asbag57
(g78
g59
NtRp2830
(dp2831
g62
(dp2832
sg71
g2817
sg64
(lp2833
g57
(g58
g59
NtRp2834
(dp2835
g62
(dp2836
g70
I3
ssg71
g2830
sg64
(lp2837
g1558
asbasbasbag57
(g73
g59
NtRp2838
(dp2839
g62
(dp2840
sg71
g2264
sg64
(lp2841
g57
(g78
g59
NtRp2842
(dp2843
g62
(dp2844
g82
g83
ssg71
g2838
sg64
(lp2845
S'wsgi.version'
p2846
asbag57
(g78
g59
NtRp2847
(dp2848
g62
(dp2849
g89
g90
ssg71
g2838
sg64
(lp2850
S':'
asbag57
(g78
g59
NtRp2851
(dp2852
g62
(dp2853
sg71
g2838
sg64
(lp2854
g57
(g58
g59
NtRp2855
(dp2856
g62
(dp2857
g70
I3
ssg71
g2851
sg64
(lp2858
S'1'
asbasbasbasbasbasbasbasbasbasbasbasbasbsS'frames'
p2859
(lp2860
(dp2861
S'file'
p2862
S'/home/fish/Desktop/web2py/gluon/restricted.py'
p2863
sS'dump'
p2864
(dp2865
S'environment'
p2866
S"{'A': <class 'gluon.html.A'>, 'Auth': <class 'gluon.tools.Auth'>, 'B': <class 'gluon.html.B'>, 'BEAUTIFY': <class 'gluon.html.BEAUTIFY'>, 'BODY': <class 'gluon.html.BODY'>, 'BR': <class 'gluon.html.BR'>, 'BUTTON': <class 'gluon.html.BUTTON'>, 'CAT': <class 'gluon.html.CAT'>, 'CENTER': <class 'gluon.html.CENTER'>, 'CLEANUP': <class 'gluon.validators.CLEANUP'>, ...}"
p2867
sS'ccode'
p2868
S'<code object <module> at 0x30f99b0, file "/home/...plications/vsalad/controllers/action.py", line 2>'
p2869
ssS'lnum'
p2870
I205
sS'lines'
p2871
(dp2872
I200
S'    try:'
p2873
sI201
S'        if type(code) == types.CodeType:'
p2874
sI202
S'            ccode = code'
p2875
sI203
S'        else:'
p2876
sI204
S'            ccode = compile2(code,layer)'
p2877
sI205
S'        exec ccode in environment'
p2878
sI206
S'    except HTTP:'
p2879
sI207
S'        raise'
p2880
sI208
S'    except RestrictedError:'
p2881
sI209
S'        # do not encapsulate (obfuscate) the original RestrictedError'
p2882
ssS'call'
p2883
S"(code='# coding: utf8\\nfrom models.tools import Tools\\n#T...ents)\\n\\nresponse._vars=response._caller(comments)\\n', environment={'A': <class 'gluon.html.A'>, 'Auth': <class 'gluon.tools.Auth'>, 'B': <class 'gluon.html.B'>, 'BEAUTIFY': <class 'gluon.html.BEAUTIFY'>, 'BODY': <class 'gluon.html.BODY'>, 'BR': <class 'gluon.html.BR'>, 'BUTTON': <class 'gluon.html.BUTTON'>, 'CAT': <class 'gluon.html.CAT'>, 'CENTER': <class 'gluon.html.CENTER'>, 'CLEANUP': <class 'gluon.validators.CLEANUP'>, ...}, layer='/home/fish/Desktop/web2py/applications/vsalad/controllers/action.py')"
p2884
sS'func'
p2885
S'restricted'
p2886
sa(dp2887
g2862
S'/home/fish/Desktop/web2py/applications/vsalad/controllers/action.py'
p2888
sg2864
(dp2889
S'models'
p2890
S'undefined'
p2891
sS'Tools'
p2892
S"<class '__restricted__.Tools'>"
p2893
ssg2870
I2
sg2871
(dp2894
I2
S'from models.tools import Tools'
p2895
sI3
S'#TODO Sorting methods'
p2896
sI4
S'@service.run'
p2897
sI5
S'def comments():'
p2898
sI6
S'    article = 1'
p2899
sI7
S'    cmtdb = db(db.comments.article == article).select()'
p2900
sI8
S'    comments = []'
p2901
sI9
S'    defered_d = []  #deffered deletion'
p2902
sI10
S''
sI11
S'    for r in cmtdb:'
p2903
ssg2883
S'()'
p2904
sg2885
S'<module>'
p2905
sa(dp2906
g2862
S'/home/fish/Desktop/web2py/gluon/custom_import.py'
p2907
sg2864
(dp2908
S'fromlist'
p2909
S"('Tools',)"
p2910
sS'level'
p2911
S'-1'
p2912
ssg2870
I293
sg2871
(dp2913
I288
S'                            .__call__(modules_prefix+"."+name,'
p2914
sI289
S'                                    globals, locals, fromlist, level)'
p2915
sI290
S'                except ImportError:'
p2916
sI291
S'                    pass'
p2917
sI292
S'        return super(_Web2pyImporter, self).__call__(name, globals, locals,'
p2918
sI293
S'                                                    fromlist, level)'
p2919
sI294
S'        #except Exception, e:'
p2920
sI295
S"        #    raise e  # Don't hide something that went wrong"
p2921
sI296
S'        #finally:'
p2922
sI297
S'        self.end()'
p2923
ssg2883
S"(self=<gluon.custom_import._Web2pyImporter object>, name='models.tools', globals={'A': <class 'gluon.html.A'>, 'Auth': <class 'gluon.tools.Auth'>, 'B': <class 'gluon.html.B'>, 'BEAUTIFY': <class 'gluon.html.BEAUTIFY'>, 'BODY': <class 'gluon.html.BODY'>, 'BR': <class 'gluon.html.BR'>, 'BUTTON': <class 'gluon.html.BUTTON'>, 'CAT': <class 'gluon.html.CAT'>, 'CENTER': <class 'gluon.html.CENTER'>, 'CLEANUP': <class 'gluon.validators.CLEANUP'>, ...}, locals={'A': <class 'gluon.html.A'>, 'Auth': <class 'gluon.tools.Auth'>, 'B': <class 'gluon.html.B'>, 'BEAUTIFY': <class 'gluon.html.BEAUTIFY'>, 'BODY': <class 'gluon.html.BODY'>, 'BR': <class 'gluon.html.BR'>, 'BUTTON': <class 'gluon.html.BUTTON'>, 'CAT': <class 'gluon.html.CAT'>, 'CENTER': <class 'gluon.html.CENTER'>, 'CLEANUP': <class 'gluon.validators.CLEANUP'>, ...}, fromlist=('Tools',), level=-1)"
p2924
sg2885
S'__call__'
p2925
sa(dp2926
g2862
S'/home/fish/Desktop/web2py/gluon/custom_import.py'
p2927
sg2864
(dp2928
S'level'
p2929
S'-1'
p2930
ssg2870
I78
sg2871
(dp2931
I73
S'        """'
p2932
sI74
S'        return _STANDARD_PYTHON_IMPORTER(name,'
p2933
sI75
S'                                         globals,'
p2934
sI76
S'                                         locals,'
p2935
sI77
S'                                         fromlist,'
p2936
sI78
S'                                         level)'
p2937
sI79
S''
sI80
S'    def end(self):'
p2938
sI81
S'        """'
p2939
sI82
S'        Needed for clean up.'
p2940
ssg2883
S"(self=<gluon.custom_import._Web2pyImporter object>, name='models.tools', globals={'A': <class 'gluon.html.A'>, 'Auth': <class 'gluon.tools.Auth'>, 'B': <class 'gluon.html.B'>, 'BEAUTIFY': <class 'gluon.html.BEAUTIFY'>, 'BODY': <class 'gluon.html.BODY'>, 'BR': <class 'gluon.html.BR'>, 'BUTTON': <class 'gluon.html.BUTTON'>, 'CAT': <class 'gluon.html.CAT'>, 'CENTER': <class 'gluon.html.CENTER'>, 'CLEANUP': <class 'gluon.validators.CLEANUP'>, ...}, locals={'A': <class 'gluon.html.A'>, 'Auth': <class 'gluon.tools.Auth'>, 'B': <class 'gluon.html.B'>, 'BEAUTIFY': <class 'gluon.html.BEAUTIFY'>, 'BODY': <class 'gluon.html.BODY'>, 'BR': <class 'gluon.html.BR'>, 'BUTTON': <class 'gluon.html.BUTTON'>, 'CAT': <class 'gluon.html.CAT'>, 'CENTER': <class 'gluon.html.CENTER'>, 'CLEANUP': <class 'gluon.validators.CLEANUP'>, ...}, fromlist=('Tools',), level=-1)"
p2941
sg2885
g2925
sasS'pyver'
p2942
S'Python 2.7.2+: /usr/bin/python'
p2943
sS'session'
p2944
g57
(g58
g59
NtRp2945
(dp2946
g62
(dp2947
sg64
(lp2948
g57
(g66
g59
NtRp2949
(dp2950
g62
(dp2951
g70
I5
ssg71
Nsg64
(lp2952
sbasbsS'etype'
p2953
S"<type 'exceptions.ImportError'>"
p2954
sS'date'
p2955
S'Sun Apr  8 19:09:19 2012'
p2956
sS'response'
p2957
g57
(g58
g59
NtRp2958
(dp2959
g62
(dp2960
sg64
(lp2961
g57
(g66
g59
NtRp2962
(dp2963
g62
(dp2964
g70
I5
ssg71
Nsg64
(lp2965
g57
(g73
g59
NtRp2966
(dp2967
g62
(dp2968
sg71
g2962
sg64
(lp2969
g57
(g78
g59
NtRp2970
(dp2971
g62
(dp2972
g82
g83
ssg71
g2966
sg64
(lp2973
g155
asbag57
(g78
g59
NtRp2974
(dp2975
g62
(dp2976
g89
g90
ssg71
g2966
sg64
(lp2977
S':'
asbag57
(g78
g59
NtRp2978
(dp2979
g62
(dp2980
sg71
g2966
sg64
(lp2981
g57
(g58
g59
NtRp2982
(dp2983
g62
(dp2984
g70
I5
ssg71
g2978
sg64
(lp2985
S'<cStringIO.StringO object at 0x39f1768>'
p2986
asbasbasbag57
(g73
g59
NtRp2987
(dp2988
g62
(dp2989
sg71
g2962
sg64
(lp2990
g57
(g78
g59
NtRp2991
(dp2992
g62
(dp2993
g82
g83
ssg71
g2987
sg64
(lp2994
g221
asbag57
(g78
g59
NtRp2995
(dp2996
g62
(dp2997
g89
g90
ssg71
g2987
sg64
(lp2998
S':'
asbag57
(g78
g59
NtRp2999
(dp3000
g62
(dp3001
sg71
g2987
sg64
(lp3002
g57
(g58
g59
NtRp3003
(dp3004
g62
(dp3005
g70
I5
ssg71
g2999
sg64
(lp3006
g57
(g66
g59
NtRp3007
(dp3008
g62
(dp3009
g70
I4
ssg71
Nsg64
(lp3010
g57
(g73
g59
NtRp3011
(dp3012
g62
(dp3013
sg71
g3007
sg64
(lp3014
g57
(g78
g59
NtRp3015
(dp3016
g62
(dp3017
g82
g83
ssg71
g3011
sg64
(lp3018
S'session_id_vsalad'
p3019
asbag57
(g78
g59
NtRp3020
(dp3021
g62
(dp3022
g89
g90
ssg71
g3011
sg64
(lp3023
S':'
asbag57
(g78
g59
NtRp3024
(dp3025
g62
(dp3026
sg71
g3011
sg64
(lp3027
g57
(g58
g59
NtRp3028
(dp3029
g62
(dp3030
g70
I4
ssg71
g3024
sg64
(lp3031
g57
(g66
g59
NtRp3032
(dp3033
g62
(dp3034
g70
I3
ssg71
Nsg64
(lp3035
g57
(g73
g59
NtRp3036
(dp3037
g62
(dp3038
sg71
g3032
sg64
(lp3039
g57
(g78
g59
NtRp3040
(dp3041
g62
(dp3042
g82
g83
ssg71
g3036
sg64
(lp3043
g271
asbag57
(g78
g59
NtRp3044
(dp3045
g62
(dp3046
g89
g90
ssg71
g3036
sg64
(lp3047
S':'
asbag57
(g78
g59
NtRp3048
(dp3049
g62
(dp3050
sg71
g3036
sg64
(lp3051
g57
(g58
g59
NtRp3052
(dp3053
g62
(dp3054
g70
I3
ssg71
g3048
sg64
(lp3055
S''
asbasbasbag57
(g73
g59
NtRp3056
(dp3057
g62
(dp3058
sg71
g3032
sg64
(lp3059
g57
(g78
g59
NtRp3060
(dp3061
g62
(dp3062
g82
g83
ssg71
g3056
sg64
(lp3063
g292
asbag57
(g78
g59
NtRp3064
(dp3065
g62
(dp3066
g89
g90
ssg71
g3056
sg64
(lp3067
S':'
asbag57
(g78
g59
NtRp3068
(dp3069
g62
(dp3070
sg71
g3056
sg64
(lp3071
g57
(g58
g59
NtRp3072
(dp3073
g62
(dp3074
g70
I3
ssg71
g3068
sg64
(lp3075
S''
asbasbasbag57
(g73
g59
NtRp3076
(dp3077
g62
(dp3078
sg71
g3032
sg64
(lp3079
g57
(g78
g59
NtRp3080
(dp3081
g62
(dp3082
g82
g83
ssg71
g3076
sg64
(lp3083
g313
asbag57
(g78
g59
NtRp3084
(dp3085
g62
(dp3086
g89
g90
ssg71
g3076
sg64
(lp3087
S':'
asbag57
(g78
g59
NtRp3088
(dp3089
g62
(dp3090
sg71
g3076
sg64
(lp3091
g57
(g58
g59
NtRp3092
(dp3093
g62
(dp3094
g70
I3
ssg71
g3088
sg64
(lp3095
S''
asbasbasbag57
(g73
g59
NtRp3096
(dp3097
g62
(dp3098
sg71
g3032
sg64
(lp3099
g57
(g78
g59
NtRp3100
(dp3101
g62
(dp3102
g82
g83
ssg71
g3096
sg64
(lp3103
g334
asbag57
(g78
g59
NtRp3104
(dp3105
g62
(dp3106
g89
g90
ssg71
g3096
sg64
(lp3107
S':'
asbag57
(g78
g59
NtRp3108
(dp3109
g62
(dp3110
sg71
g3096
sg64
(lp3111
g57
(g58
g59
NtRp3112
(dp3113
g62
(dp3114
g70
I3
ssg71
g3108
sg64
(lp3115
S''
asbasbasbag57
(g73
g59
NtRp3116
(dp3117
g62
(dp3118
sg71
g3032
sg64
(lp3119
g57
(g78
g59
NtRp3120
(dp3121
g62
(dp3122
g82
g83
ssg71
g3116
sg64
(lp3123
g355
asbag57
(g78
g59
NtRp3124
(dp3125
g62
(dp3126
g89
g90
ssg71
g3116
sg64
(lp3127
S':'
asbag57
(g78
g59
NtRp3128
(dp3129
g62
(dp3130
sg71
g3116
sg64
(lp3131
g57
(g58
g59
NtRp3132
(dp3133
g62
(dp3134
g70
I3
ssg71
g3128
sg64
(lp3135
S''
asbasbasbag57
(g73
g59
NtRp3136
(dp3137
g62
(dp3138
sg71
g3032
sg64
(lp3139
g57
(g78
g59
NtRp3140
(dp3141
g62
(dp3142
g82
g83
ssg71
g3136
sg64
(lp3143
g376
asbag57
(g78
g59
NtRp3144
(dp3145
g62
(dp3146
g89
g90
ssg71
g3136
sg64
(lp3147
S':'
asbag57
(g78
g59
NtRp3148
(dp3149
g62
(dp3150
sg71
g3136
sg64
(lp3151
g57
(g58
g59
NtRp3152
(dp3153
g62
(dp3154
g70
I3
ssg71
g3148
sg64
(lp3155
S'/'
asbasbasbag57
(g73
g59
NtRp3156
(dp3157
g62
(dp3158
sg71
g3032
sg64
(lp3159
g57
(g78
g59
NtRp3160
(dp3161
g62
(dp3162
g82
g83
ssg71
g3156
sg64
(lp3163
g397
asbag57
(g78
g59
NtRp3164
(dp3165
g62
(dp3166
g89
g90
ssg71
g3156
sg64
(lp3167
S':'
asbag57
(g78
g59
NtRp3168
(dp3169
g62
(dp3170
sg71
g3156
sg64
(lp3171
g57
(g58
g59
NtRp3172
(dp3173
g62
(dp3174
g70
I3
ssg71
g3168
sg64
(lp3175
S''
asbasbasbag57
(g73
g59
NtRp3176
(dp3177
g62
(dp3178
sg71
g3032
sg64
(lp3179
g57
(g78
g59
NtRp3180
(dp3181
g62
(dp3182
g82
g83
ssg71
g3176
sg64
(lp3183
g418
asbag57
(g78
g59
NtRp3184
(dp3185
g62
(dp3186
g89
g90
ssg71
g3176
sg64
(lp3187
S':'
asbag57
(g78
g59
NtRp3188
(dp3189
g62
(dp3190
sg71
g3176
sg64
(lp3191
g57
(g58
g59
NtRp3192
(dp3193
g62
(dp3194
g70
I3
ssg71
g3188
sg64
(lp3195
S''
asbasbasbasbasbasbasbasbasbasbasbag57
(g73
g59
NtRp3196
(dp3197
g62
(dp3198
sg71
g2962
sg64
(lp3199
g57
(g78
g59
NtRp3200
(dp3201
g62
(dp3202
g82
g83
ssg71
g3196
sg64
(lp3203
S'delimiters'
p3204
asbag57
(g78
g59
NtRp3205
(dp3206
g62
(dp3207
g89
g90
ssg71
g3196
sg64
(lp3208
S':'
asbag57
(g78
g59
NtRp3209
(dp3210
g62
(dp3211
sg71
g3196
sg64
(lp3212
g57
(g58
g59
NtRp3213
(dp3214
g62
(dp3215
g70
I5
ssg71
g3209
sg64
(lp3216
g57
(g66
g59
NtRp3217
(dp3218
g62
(dp3219
g70
I4
ssg71
Nsg64
(lp3220
g57
(g73
g59
NtRp3221
(dp3222
g62
(dp3223
sg71
g3217
sg64
(lp3224
g57
(g78
g59
NtRp3225
(dp3226
g62
(dp3227
sg71
g3221
sg64
(lp3228
g57
(g58
g59
NtRp3229
(dp3230
g62
(dp3231
g70
I4
ssg71
g3225
sg64
(lp3232
S'{{'
p3233
asbasbasbag57
(g73
g59
NtRp3234
(dp3235
g62
(dp3236
sg71
g3217
sg64
(lp3237
g57
(g78
g59
NtRp3238
(dp3239
g62
(dp3240
sg71
g3234
sg64
(lp3241
g57
(g58
g59
NtRp3242
(dp3243
g62
(dp3244
g70
I4
ssg71
g3238
sg64
(lp3245
S'}}'
p3246
asbasbasbasbasbasbasbag57
(g73
g59
NtRp3247
(dp3248
g62
(dp3249
sg71
g2962
sg64
(lp3250
g57
(g78
g59
NtRp3251
(dp3252
g62
(dp3253
g82
g83
ssg71
g3247
sg64
(lp3254
S'files'
p3255
asbag57
(g78
g59
NtRp3256
(dp3257
g62
(dp3258
g89
g90
ssg71
g3247
sg64
(lp3259
S':'
asbag57
(g78
g59
NtRp3260
(dp3261
g62
(dp3262
sg71
g3247
sg64
(lp3263
g57
(g58
g59
NtRp3264
(dp3265
g62
(dp3266
g70
I5
ssg71
g3260
sg64
(lp3267
g57
(g66
g59
NtRp3268
(dp3269
g62
(dp3270
g70
I4
ssg71
Nsg64
(lp3271
sbasbasbasbag57
(g73
g59
NtRp3272
(dp3273
g62
(dp3274
sg71
g2962
sg64
(lp3275
g57
(g78
g59
NtRp3276
(dp3277
g62
(dp3278
g82
g83
ssg71
g3272
sg64
(lp3279
S'flash'
p3280
asbag57
(g78
g59
NtRp3281
(dp3282
g62
(dp3283
g89
g90
ssg71
g3272
sg64
(lp3284
S':'
asbag57
(g78
g59
NtRp3285
(dp3286
g62
(dp3287
sg71
g3272
sg64
(lp3288
g57
(g58
g59
NtRp3289
(dp3290
g62
(dp3291
g70
I5
ssg71
g3285
sg64
(lp3292
S''
asbasbasbag57
(g73
g59
NtRp3293
(dp3294
g62
(dp3295
sg71
g2962
sg64
(lp3296
g57
(g78
g59
NtRp3297
(dp3298
g62
(dp3299
g82
g83
ssg71
g3293
sg64
(lp3300
S'generic_patterns'
p3301
asbag57
(g78
g59
NtRp3302
(dp3303
g62
(dp3304
g89
g90
ssg71
g3293
sg64
(lp3305
S':'
asbag57
(g78
g59
NtRp3306
(dp3307
g62
(dp3308
sg71
g3293
sg64
(lp3309
g57
(g58
g59
NtRp3310
(dp3311
g62
(dp3312
g70
I5
ssg71
g3306
sg64
(lp3313
g57
(g66
g59
NtRp3314
(dp3315
g62
(dp3316
g70
I4
ssg71
Nsg64
(lp3317
g57
(g73
g59
NtRp3318
(dp3319
g62
(dp3320
sg71
g3314
sg64
(lp3321
g57
(g78
g59
NtRp3322
(dp3323
g62
(dp3324
sg71
g3318
sg64
(lp3325
g57
(g58
g59
NtRp3326
(dp3327
g62
(dp3328
g70
I4
ssg71
g3322
sg64
(lp3329
S'*'
asbasbasbasbasbasbasbag57
(g73
g59
NtRp3330
(dp3331
g62
(dp3332
sg71
g2962
sg64
(lp3333
g57
(g78
g59
NtRp3334
(dp3335
g62
(dp3336
g82
g83
ssg71
g3330
sg64
(lp3337
S'headers'
p3338
asbag57
(g78
g59
NtRp3339
(dp3340
g62
(dp3341
g89
g90
ssg71
g3330
sg64
(lp3342
S':'
asbag57
(g78
g59
NtRp3343
(dp3344
g62
(dp3345
sg71
g3330
sg64
(lp3346
g57
(g58
g59
NtRp3347
(dp3348
g62
(dp3349
g70
I5
ssg71
g3343
sg64
(lp3350
g57
(g66
g59
NtRp3351
(dp3352
g62
(dp3353
g70
I4
ssg71
Nsg64
(lp3354
g57
(g73
g59
NtRp3355
(dp3356
g62
(dp3357
sg71
g3351
sg64
(lp3358
g57
(g78
g59
NtRp3359
(dp3360
g62
(dp3361
g82
g83
ssg71
g3355
sg64
(lp3362
S'Cache-Control'
p3363
asbag57
(g78
g59
NtRp3364
(dp3365
g62
(dp3366
g89
g90
ssg71
g3355
sg64
(lp3367
S':'
asbag57
(g78
g59
NtRp3368
(dp3369
g62
(dp3370
sg71
g3355
sg64
(lp3371
g57
(g58
g59
NtRp3372
(dp3373
g62
(dp3374
g70
I4
ssg71
g3368
sg64
(lp3375
S'no-store, no-cache, must-revalidate, post-check=0, pre-check=0'
p3376
asbasbasbag57
(g73
g59
NtRp3377
(dp3378
g62
(dp3379
sg71
g3351
sg64
(lp3380
g57
(g78
g59
NtRp3381
(dp3382
g62
(dp3383
g82
g83
ssg71
g3377
sg64
(lp3384
S'Content-Type'
p3385
asbag57
(g78
g59
NtRp3386
(dp3387
g62
(dp3388
g89
g90
ssg71
g3377
sg64
(lp3389
S':'
asbag57
(g78
g59
NtRp3390
(dp3391
g62
(dp3392
sg71
g3377
sg64
(lp3393
g57
(g58
g59
NtRp3394
(dp3395
g62
(dp3396
g70
I4
ssg71
g3390
sg64
(lp3397
S'text/html; charset=utf-8'
p3398
asbasbasbag57
(g73
g59
NtRp3399
(dp3400
g62
(dp3401
sg71
g3351
sg64
(lp3402
g57
(g78
g59
NtRp3403
(dp3404
g62
(dp3405
g82
g83
ssg71
g3399
sg64
(lp3406
S'Expires'
p3407
asbag57
(g78
g59
NtRp3408
(dp3409
g62
(dp3410
g89
g90
ssg71
g3399
sg64
(lp3411
S':'
asbag57
(g78
g59
NtRp3412
(dp3413
g62
(dp3414
sg71
g3399
sg64
(lp3415
g57
(g58
g59
NtRp3416
(dp3417
g62
(dp3418
g70
I4
ssg71
g3412
sg64
(lp3419
S'Sun, 08 Apr 2012 15:09:19 GMT'
p3420
asbasbasbag57
(g73
g59
NtRp3421
(dp3422
g62
(dp3423
sg71
g3351
sg64
(lp3424
g57
(g78
g59
NtRp3425
(dp3426
g62
(dp3427
g82
g83
ssg71
g3421
sg64
(lp3428
S'Pragma'
p3429
asbag57
(g78
g59
NtRp3430
(dp3431
g62
(dp3432
g89
g90
ssg71
g3421
sg64
(lp3433
S':'
asbag57
(g78
g59
NtRp3434
(dp3435
g62
(dp3436
sg71
g3421
sg64
(lp3437
g57
(g58
g59
NtRp3438
(dp3439
g62
(dp3440
g70
I4
ssg71
g3434
sg64
(lp3441
S'no-cache'
p3442
asbasbasbag57
(g73
g59
NtRp3443
(dp3444
g62
(dp3445
sg71
g3351
sg64
(lp3446
g57
(g78
g59
NtRp3447
(dp3448
g62
(dp3449
g82
g83
ssg71
g3443
sg64
(lp3450
S'X-Powered-By'
p3451
asbag57
(g78
g59
NtRp3452
(dp3453
g62
(dp3454
g89
g90
ssg71
g3443
sg64
(lp3455
S':'
asbag57
(g78
g59
NtRp3456
(dp3457
g62
(dp3458
sg71
g3443
sg64
(lp3459
g57
(g58
g59
NtRp3460
(dp3461
g62
(dp3462
g70
I4
ssg71
g3456
sg64
(lp3463
S'web2py'
p3464
asbasbasbasbasbasbasbag57
(g73
g59
NtRp3465
(dp3466
g62
(dp3467
sg71
g2962
sg64
(lp3468
g57
(g78
g59
NtRp3469
(dp3470
g62
(dp3471
g82
g83
ssg71
g3465
sg64
(lp3472
S'menu'
p3473
asbag57
(g78
g59
NtRp3474
(dp3475
g62
(dp3476
g89
g90
ssg71
g3465
sg64
(lp3477
S':'
asbag57
(g78
g59
NtRp3478
(dp3479
g62
(dp3480
sg71
g3465
sg64
(lp3481
g57
(g58
g59
NtRp3482
(dp3483
g62
(dp3484
g70
I5
ssg71
g3478
sg64
(lp3485
g57
(g66
g59
NtRp3486
(dp3487
g62
(dp3488
g70
I4
ssg71
Nsg64
(lp3489
g57
(g73
g59
NtRp3490
(dp3491
g62
(dp3492
sg71
g3486
sg64
(lp3493
g57
(g78
g59
NtRp3494
(dp3495
g62
(dp3496
sg71
g3490
sg64
(lp3497
g57
(g58
g59
NtRp3498
(dp3499
g62
(dp3500
g70
I4
ssg71
g3494
sg64
(lp3501
g57
(g66
g59
NtRp3502
(dp3503
g62
(dp3504
g70
I3
ssg71
Nsg64
(lp3505
g57
(g73
g59
NtRp3506
(dp3507
g62
(dp3508
sg71
g3502
sg64
(lp3509
g57
(g78
g59
NtRp3510
(dp3511
g62
(dp3512
sg71
g3506
sg64
(lp3513
g57
(g58
g59
NtRp3514
(dp3515
g62
(dp3516
g70
I3
ssg71
g3510
sg64
(lp3517
cgluon.languages
lazyT_unpickle
p3518
(S't\x04\x00\x00\x00Home'
tRp3519
asbasbasbag57
(g73
g59
NtRp3520
(dp3521
g62
(dp3522
sg71
g3502
sg64
(lp3523
g57
(g78
g59
NtRp3524
(dp3525
g62
(dp3526
sg71
g3520
sg64
(lp3527
g57
(g58
g59
NtRp3528
(dp3529
g62
(dp3530
g70
I3
ssg71
g3524
sg64
(lp3531
g100
asbasbasbag57
(g73
g59
NtRp3532
(dp3533
g62
(dp3534
sg71
g3502
sg64
(lp3535
g57
(g78
g59
NtRp3536
(dp3537
g62
(dp3538
sg71
g3532
sg64
(lp3539
g57
(g58
g59
NtRp3540
(dp3541
g62
(dp3542
g70
I3
ssg71
g3536
sg64
(lp3543
S'/vsalad/default/index'
p3544
asbasbasbag57
(g73
g59
NtRp3545
(dp3546
g62
(dp3547
sg71
g3502
sg64
(lp3548
g57
(g78
g59
NtRp3549
(dp3550
g62
(dp3551
sg71
g3545
sg64
(lp3552
g57
(g58
g59
NtRp3553
(dp3554
g62
(dp3555
g70
I3
ssg71
g3549
sg64
(lp3556
g57
(g66
g59
NtRp3557
(dp3558
g62
(dp3559
g70
I2
ssg71
Nsg64
(lp3560
sbasbasbasbasbasbasbasbag57
(g73
g59
NtRp3561
(dp3562
g62
(dp3563
sg71
g3486
sg64
(lp3564
g57
(g78
g59
NtRp3565
(dp3566
g62
(dp3567
sg71
g3561
sg64
(lp3568
g57
(g58
g59
NtRp3569
(dp3570
g62
(dp3571
g70
I4
ssg71
g3565
sg64
(lp3572
g57
(g66
g59
NtRp3573
(dp3574
g62
(dp3575
g70
I3
ssg71
Nsg64
(lp3576
g57
(g73
g59
NtRp3577
(dp3578
g62
(dp3579
sg71
g3573
sg64
(lp3580
g57
(g78
g59
NtRp3581
(dp3582
g62
(dp3583
sg71
g3577
sg64
(lp3584
g57
(g58
g59
NtRp3585
(dp3586
g62
(dp3587
g70
I3
ssg71
g3581
sg64
(lp3588
g57
(cgluon.html
SPAN
p3589
g59
NtRp3590
(dp3591
g62
(dp3592
g82
S'color:yellow'
p3593
ssg71
Nsg64
(lp3594
g3464
asbasbasbasbag57
(g73
g59
NtRp3595
(dp3596
g62
(dp3597
sg71
g3573
sg64
(lp3598
g57
(g78
g59
NtRp3599
(dp3600
g62
(dp3601
sg71
g3595
sg64
(lp3602
g57
(g58
g59
NtRp3603
(dp3604
g62
(dp3605
g70
I3
ssg71
g3599
sg64
(lp3606
g100
asbasbasbag57
(g73
g59
NtRp3607
(dp3608
g62
(dp3609
sg71
g3573
sg64
(lp3610
g57
(g78
g59
NtRp3611
(dp3612
g62
(dp3613
sg71
g3607
sg64
(lp3614
g57
(g58
g59
NtRp3615
(dp3616
g62
(dp3617
g70
I3
ssg71
g3611
sg64
(lp3618
S'None'
p3619
asbasbasbag57
(g73
g59
NtRp3620
(dp3621
g62
(dp3622
sg71
g3573
sg64
(lp3623
g57
(g78
g59
NtRp3624
(dp3625
g62
(dp3626
sg71
g3620
sg64
(lp3627
g57
(g58
g59
NtRp3628
(dp3629
g62
(dp3630
g70
I3
ssg71
g3624
sg64
(lp3631
g57
(g66
g59
NtRp3632
(dp3633
g62
(dp3634
g70
I2
ssg71
Nsg64
(lp3635
g57
(g73
g59
NtRp3636
(dp3637
g62
(dp3638
sg71
g3632
sg64
(lp3639
g57
(g78
g59
NtRp3640
(dp3641
g62
(dp3642
sg71
g3636
sg64
(lp3643
g57
(g58
g59
NtRp3644
(dp3645
g62
(dp3646
g70
I2
ssg71
g3640
sg64
(lp3647
g57
(g66
g59
NtRp3648
(dp3649
g62
(dp3650
g70
I1
ssg71
Nsg64
(lp3651
g57
(g73
g59
NtRp3652
(dp3653
g62
(dp3654
sg71
g3648
sg64
(lp3655
g57
(g78
g59
NtRp3656
(dp3657
g62
(dp3658
sg71
g3652
sg64
(lp3659
g57
(g58
g59
NtRp3660
(dp3661
g62
(dp3662
g70
I1
ssg71
g3656
sg64
(lp3663
g3518
(S's\x08\x00\x00\x00My Sites'
tRp3664
asbasbasbag57
(g73
g59
NtRp3665
(dp3666
g62
(dp3667
sg71
g3648
sg64
(lp3668
g57
(g78
g59
NtRp3669
(dp3670
g62
(dp3671
sg71
g3665
sg64
(lp3672
g57
(g58
g59
NtRp3673
(dp3674
g62
(dp3675
g70
I1
ssg71
g3669
sg64
(lp3676
I00
asbasbasbag57
(g73
g59
NtRp3677
(dp3678
g62
(dp3679
sg71
g3648
sg64
(lp3680
g57
(g78
g59
NtRp3681
(dp3682
g62
(dp3683
sg71
g3677
sg64
(lp3684
g57
(g58
g59
NtRp3685
(dp3686
g62
(dp3687
g70
I1
ssg71
g3681
sg64
(lp3688
S'/admin/default/site'
p3689
asbasbasbasbasbasbasbag57
(g73
g59
NtRp3690
(dp3691
g62
(dp3692
sg71
g3632
sg64
(lp3693
g57
(g78
g59
NtRp3694
(dp3695
g62
(dp3696
sg71
g3690
sg64
(lp3697
g57
(g58
g59
NtRp3698
(dp3699
g62
(dp3700
g70
I2
ssg71
g3694
sg64
(lp3701
g57
(g66
g59
NtRp3702
(dp3703
g62
(dp3704
g70
I1
ssg71
Nsg64
(lp3705
g57
(g73
g59
NtRp3706
(dp3707
g62
(dp3708
sg71
g3702
sg64
(lp3709
g57
(g78
g59
NtRp3710
(dp3711
g62
(dp3712
sg71
g3706
sg64
(lp3713
g57
(g58
g59
NtRp3714
(dp3715
g62
(dp3716
g70
I1
ssg71
g3710
sg64
(lp3717
g3518
(S's\x08\x00\x00\x00This App'
tRp3718
asbasbasbag57
(g73
g59
NtRp3719
(dp3720
g62
(dp3721
sg71
g3702
sg64
(lp3722
g57
(g78
g59
NtRp3723
(dp3724
g62
(dp3725
sg71
g3719
sg64
(lp3726
g57
(g58
g59
NtRp3727
(dp3728
g62
(dp3729
g70
I1
ssg71
g3723
sg64
(lp3730
I00
asbasbasbag57
(g73
g59
NtRp3731
(dp3732
g62
(dp3733
sg71
g3702
sg64
(lp3734
g57
(g78
g59
NtRp3735
(dp3736
g62
(dp3737
sg71
g3731
sg64
(lp3738
g57
(g58
g59
NtRp3739
(dp3740
g62
(dp3741
g70
I1
ssg71
g3735
sg64
(lp3742
S'/admin/default/design/vsalad'
p3743
asbasbasbag57
(g73
g59
NtRp3744
(dp3745
g62
(dp3746
sg71
g3702
sg64
(lp3747
g57
(g78
g59
NtRp3748
(dp3749
g62
(dp3750
sg71
g3744
sg64
(lp3751
g57
(g58
g59
NtRp3752
(dp3753
g62
(dp3754
g70
I1
ssg71
g3748
sg64
(lp3755
(lp3756
(g3518
(S't\n\x00\x00\x00Controller'
tRp3757
I00
S'/admin/default/edit/vsalad/controllers/action.py'
tp3758
a(g3518
(S't\x04\x00\x00\x00View'
tRp3759
I00
S'/admin/default/edit/vsalad/views/action/comments.html'
tp3760
a(g3518
(S't\x06\x00\x00\x00Layout'
tRp3761
I00
S'/admin/default/edit/vsalad/views/layout.html'
tp3762
a(g3518
(S't\n\x00\x00\x00Stylesheet'
tRp3763
I00
S'/admin/default/edit/vsalad/static/css/web2py.css'
tp3764
a(g3518
(S's\x08\x00\x00\x00DB Model'
tRp3765
I00
S'/admin/default/edit/vsalad/models/db.py'
tp3766
a(g3518
(S's\n\x00\x00\x00Menu Model'
tRp3767
I00
S'/admin/default/edit/vsalad/models/menu.py'
tp3768
a(g3518
(S't\x08\x00\x00\x00Database'
tRp3769
I00
S'/vsalad/appadmin/index'
tp3770
a(g3518
(S't\x06\x00\x00\x00Errors'
tRp3771
I00
S'/admin/default/errors/vsalad'
tp3772
a(g3518
(S't\x05\x00\x00\x00About'
tRp3773
I00
S'/admin/default/about/vsalad'
tp3774
aasbasbasbasbasbasbasbag57
(g73
g59
NtRp3775
(dp3776
g62
(dp3777
sg71
g3632
sg64
(lp3778
g57
(g78
g59
NtRp3779
(dp3780
g62
(dp3781
sg71
g3775
sg64
(lp3782
g57
(g58
g59
NtRp3783
(dp3784
g62
(dp3785
g70
I2
ssg71
g3779
sg64
(lp3786
g57
(g66
g59
NtRp3787
(dp3788
g62
(dp3789
g70
I1
ssg71
Nsg64
(lp3790
g57
(g73
g59
NtRp3791
(dp3792
g62
(dp3793
sg71
g3787
sg64
(lp3794
g57
(g78
g59
NtRp3795
(dp3796
g62
(dp3797
sg71
g3791
sg64
(lp3798
g57
(g58
g59
NtRp3799
(dp3800
g62
(dp3801
g70
I1
ssg71
g3795
sg64
(lp3802
S'web2py.com'
p3803
asbasbasbag57
(g73
g59
NtRp3804
(dp3805
g62
(dp3806
sg71
g3787
sg64
(lp3807
g57
(g78
g59
NtRp3808
(dp3809
g62
(dp3810
sg71
g3804
sg64
(lp3811
g57
(g58
g59
NtRp3812
(dp3813
g62
(dp3814
g70
I1
ssg71
g3808
sg64
(lp3815
I00
asbasbasbag57
(g73
g59
NtRp3816
(dp3817
g62
(dp3818
sg71
g3787
sg64
(lp3819
g57
(g78
g59
NtRp3820
(dp3821
g62
(dp3822
sg71
g3816
sg64
(lp3823
g57
(g58
g59
NtRp3824
(dp3825
g62
(dp3826
g70
I1
ssg71
g3820
sg64
(lp3827
S'http://www.web2py.com'
p3828
asbasbasbag57
(g73
g59
NtRp3829
(dp3830
g62
(dp3831
sg71
g3787
sg64
(lp3832
g57
(g78
g59
NtRp3833
(dp3834
g62
(dp3835
sg71
g3829
sg64
(lp3836
g57
(g58
g59
NtRp3837
(dp3838
g62
(dp3839
g70
I1
ssg71
g3833
sg64
(lp3840
(lp3841
(g3518
(S't\x08\x00\x00\x00Download'
tRp3842
I00
S'http://www.web2py.com/examples/default/download'
p3843
tp3844
a(g3518
(S't\x07\x00\x00\x00Support'
tRp3845
I00
S'http://www.web2py.com/examples/default/support'
p3846
tp3847
a(g3518
(S't\x04\x00\x00\x00Demo'
tRp3848
I00
S'http://web2py.com/demo_admin'
p3849
tp3850
a(g3518
(S's\x0e\x00\x00\x00Quick Examples'
tRp3851
I00
S'http://web2py.com/examples/default/examples'
p3852
tp3853
a(g3518
(S't\x03\x00\x00\x00FAQ'
tRp3854
I00
S'http://web2py.com/AlterEgo'
p3855
tp3856
a(g3518
(S't\x06\x00\x00\x00Videos'
tRp3857
I00
S'http://www.web2py.com/examples/default/videos/'
p3858
tp3859
a(g3518
(S's\x11\x00\x00\x00Free Applications'
tRp3860
I00
S'http://web2py.com/appliances'
p3861
tp3862
a(g3518
(S't\x07\x00\x00\x00Plugins'
tRp3863
I00
S'http://web2py.com/plugins'
p3864
tp3865
a(g3518
(S't\x07\x00\x00\x00Layouts'
tRp3866
I00
S'http://web2py.com/layouts'
p3867
tp3868
a(g3518
(S't\x07\x00\x00\x00Recipes'
tRp3869
I00
S'http://web2pyslices.com/'
p3870
tp3871
a(g3518
(S't\x08\x00\x00\x00Semantic'
tRp3872
I00
S'http://web2py.com/semantic'
p3873
tp3874
aasbasbasbasbasbasbasbag57
(g73
g59
NtRp3875
(dp3876
g62
(dp3877
sg71
g3632
sg64
(lp3878
g57
(g78
g59
NtRp3879
(dp3880
g62
(dp3881
sg71
g3875
sg64
(lp3882
g57
(g58
g59
NtRp3883
(dp3884
g62
(dp3885
g70
I2
ssg71
g3879
sg64
(lp3886
g57
(g66
g59
NtRp3887
(dp3888
g62
(dp3889
g70
I1
ssg71
Nsg64
(lp3890
g57
(g73
g59
NtRp3891
(dp3892
g62
(dp3893
sg71
g3887
sg64
(lp3894
g57
(g78
g59
NtRp3895
(dp3896
g62
(dp3897
sg71
g3891
sg64
(lp3898
g57
(g58
g59
NtRp3899
(dp3900
g62
(dp3901
g70
I1
ssg71
g3895
sg64
(lp3902
g3518
(S't\r\x00\x00\x00Documentation'
tRp3903
asbasbasbag57
(g73
g59
NtRp3904
(dp3905
g62
(dp3906
sg71
g3887
sg64
(lp3907
g57
(g78
g59
NtRp3908
(dp3909
g62
(dp3910
sg71
g3904
sg64
(lp3911
g57
(g58
g59
NtRp3912
(dp3913
g62
(dp3914
g70
I1
ssg71
g3908
sg64
(lp3915
I00
asbasbasbag57
(g73
g59
NtRp3916
(dp3917
g62
(dp3918
sg71
g3887
sg64
(lp3919
g57
(g78
g59
NtRp3920
(dp3921
g62
(dp3922
sg71
g3916
sg64
(lp3923
g57
(g58
g59
NtRp3924
(dp3925
g62
(dp3926
g70
I1
ssg71
g3920
sg64
(lp3927
S'http://www.web2py.com/book'
p3928
asbasbasbag57
(g73
g59
NtRp3929
(dp3930
g62
(dp3931
sg71
g3887
sg64
(lp3932
g57
(g78
g59
NtRp3933
(dp3934
g62
(dp3935
sg71
g3929
sg64
(lp3936
g57
(g58
g59
NtRp3937
(dp3938
g62
(dp3939
g70
I1
ssg71
g3933
sg64
(lp3940
(lp3941
(g3518
(S't\x07\x00\x00\x00Preface'
tRp3942
I00
S'http://www.web2py.com/book/default/chapter/00'
p3943
tp3944
a(g3518
(S't\x0c\x00\x00\x00Introduction'
tRp3945
I00
S'http://www.web2py.com/book/default/chapter/01'
p3946
tp3947
a(g3518
(S't\x06\x00\x00\x00Python'
tRp3948
I00
S'http://www.web2py.com/book/default/chapter/02'
p3949
tp3950
a(g3518
(S't\x08\x00\x00\x00Overview'
tRp3951
I00
S'http://www.web2py.com/book/default/chapter/03'
p3952
tp3953
a(g3518
(S's\x08\x00\x00\x00The Core'
tRp3954
I00
S'http://www.web2py.com/book/default/chapter/04'
p3955
tp3956
a(g3518
(S's\t\x00\x00\x00The Views'
tRp3957
I00
S'http://www.web2py.com/book/default/chapter/05'
p3958
tp3959
a(g3518
(S't\x08\x00\x00\x00Database'
tRp3960
I00
S'http://www.web2py.com/book/default/chapter/06'
p3961
tp3962
a(g3518
(S's\x14\x00\x00\x00Forms and Validators'
tRp3963
I00
S'http://www.web2py.com/book/default/chapter/07'
p3964
tp3965
a(g3518
(S's\r\x00\x00\x00Email and SMS'
tRp3966
I00
S'http://www.web2py.com/book/default/chapter/08'
p3967
tp3968
a(g3518
(S's\x0e\x00\x00\x00Access Control'
tRp3969
I00
S'http://www.web2py.com/book/default/chapter/09'
p3970
tp3971
a(g3518
(S't\x08\x00\x00\x00Services'
tRp3972
I00
S'http://www.web2py.com/book/default/chapter/10'
p3973
tp3974
a(g3518
(S's\x0c\x00\x00\x00Ajax Recipes'
tRp3975
I00
S'http://www.web2py.com/book/default/chapter/11'
p3976
tp3977
a(g3518
(S's\x16\x00\x00\x00Components and Plugins'
tRp3978
I00
S'http://www.web2py.com/book/default/chapter/12'
p3979
tp3980
a(g3518
(S's\x12\x00\x00\x00Deployment Recipes'
tRp3981
I00
S'http://www.web2py.com/book/default/chapter/13'
p3982
tp3983
a(g3518
(S's\r\x00\x00\x00Other Recipes'
tRp3984
I00
S'http://www.web2py.com/book/default/chapter/14'
p3985
tp3986
a(g3518
(S's\r\x00\x00\x00Buy this book'
tRp3987
I00
S'http://stores.lulu.com/web2py'
p3988
tp3989
aasbasbasbasbasbasbasbag57
(g73
g59
NtRp3990
(dp3991
g62
(dp3992
sg71
g3632
sg64
(lp3993
g57
(g78
g59
NtRp3994
(dp3995
g62
(dp3996
sg71
g3990
sg64
(lp3997
g57
(g58
g59
NtRp3998
(dp3999
g62
(dp4000
g70
I2
ssg71
g3994
sg64
(lp4001
g57
(g66
g59
NtRp4002
(dp4003
g62
(dp4004
g70
I1
ssg71
Nsg64
(lp4005
g57
(g73
g59
NtRp4006
(dp4007
g62
(dp4008
sg71
g4002
sg64
(lp4009
g57
(g78
g59
NtRp4010
(dp4011
g62
(dp4012
sg71
g4006
sg64
(lp4013
g57
(g58
g59
NtRp4014
(dp4015
g62
(dp4016
g70
I1
ssg71
g4010
sg64
(lp4017
g3518
(S't\t\x00\x00\x00Community'
tRp4018
asbasbasbag57
(g73
g59
NtRp4019
(dp4020
g62
(dp4021
sg71
g4002
sg64
(lp4022
g57
(g78
g59
NtRp4023
(dp4024
g62
(dp4025
sg71
g4019
sg64
(lp4026
g57
(g58
g59
NtRp4027
(dp4028
g62
(dp4029
g70
I1
ssg71
g4023
sg64
(lp4030
I00
asbasbasbag57
(g73
g59
NtRp4031
(dp4032
g62
(dp4033
sg71
g4002
sg64
(lp4034
g57
(g78
g59
NtRp4035
(dp4036
g62
(dp4037
sg71
g4031
sg64
(lp4038
g57
(g58
g59
NtRp4039
(dp4040
g62
(dp4041
g70
I1
ssg71
g4035
sg64
(lp4042
Nasbasbasbag57
(g73
g59
NtRp4043
(dp4044
g62
(dp4045
sg71
g4002
sg64
(lp4046
g57
(g78
g59
NtRp4047
(dp4048
g62
(dp4049
sg71
g4043
sg64
(lp4050
g57
(g58
g59
NtRp4051
(dp4052
g62
(dp4053
g70
I1
ssg71
g4047
sg64
(lp4054
(lp4055
(g3518
(S't\x06\x00\x00\x00Groups'
tRp4056
I00
S'http://www.web2py.com/examples/default/usergroups'
p4057
tp4058
a(g3518
(S't\x07\x00\x00\x00Twitter'
tRp4059
I00
S'http://twitter.com/web2py'
p4060
tp4061
a(g3518
(S's\t\x00\x00\x00Live Chat'
tRp4062
I00
S'http://webchat.freenode.net/?channels=web2py'
p4063
tp4064
aasbasbasbasbasbasbasbag57
(g73
g59
NtRp4065
(dp4066
g62
(dp4067
sg71
g3632
sg64
(lp4068
g57
(g78
g59
NtRp4069
(dp4070
g62
(dp4071
sg71
g4065
sg64
(lp4072
g57
(g58
g59
NtRp4073
(dp4074
g62
(dp4075
g70
I2
ssg71
g4069
sg64
(lp4076
g57
(g66
g59
NtRp4077
(dp4078
g62
(dp4079
g70
I1
ssg71
Nsg64
(lp4080
g57
(g73
g59
NtRp4081
(dp4082
g62
(dp4083
sg71
g4077
sg64
(lp4084
g57
(g78
g59
NtRp4085
(dp4086
g62
(dp4087
sg71
g4081
sg64
(lp4088
g57
(g58
g59
NtRp4089
(dp4090
g62
(dp4091
g70
I1
ssg71
g4085
sg64
(lp4092
g3518
(S't\x07\x00\x00\x00Plugins'
tRp4093
asbasbasbag57
(g73
g59
NtRp4094
(dp4095
g62
(dp4096
sg71
g4077
sg64
(lp4097
g57
(g78
g59
NtRp4098
(dp4099
g62
(dp4100
sg71
g4094
sg64
(lp4101
g57
(g58
g59
NtRp4102
(dp4103
g62
(dp4104
g70
I1
ssg71
g4098
sg64
(lp4105
I00
asbasbasbag57
(g73
g59
NtRp4106
(dp4107
g62
(dp4108
sg71
g4077
sg64
(lp4109
g57
(g78
g59
NtRp4110
(dp4111
g62
(dp4112
sg71
g4106
sg64
(lp4113
g57
(g58
g59
NtRp4114
(dp4115
g62
(dp4116
g70
I1
ssg71
g4110
sg64
(lp4117
Nasbasbasbag57
(g73
g59
NtRp4118
(dp4119
g62
(dp4120
sg71
g4077
sg64
(lp4121
g57
(g78
g59
NtRp4122
(dp4123
g62
(dp4124
sg71
g4118
sg64
(lp4125
g57
(g58
g59
NtRp4126
(dp4127
g62
(dp4128
g70
I1
ssg71
g4122
sg64
(lp4129
(lp4130
(S'plugin_wiki'
p4131
I00
S'http://web2py.com/examples/default/download'
p4132
tp4133
a(g3518
(S's\r\x00\x00\x00Other Plugins'
tRp4134
I00
g3864
tp4135
a(g3518
(S's\x0e\x00\x00\x00Layout Plugins'
tRp4136
I00
g3867
tp4137
aasbasbasbasbasbasbasbasbasbasbasbasbasbasbasbasbasbasbasbag57
(g73
g59
NtRp4138
(dp4139
g62
(dp4140
sg71
g2962
sg64
(lp4141
g57
(g78
g59
NtRp4142
(dp4143
g62
(dp4144
g82
g83
ssg71
g4138
sg64
(lp4145
S'meta'
p4146
asbag57
(g78
g59
NtRp4147
(dp4148
g62
(dp4149
g89
g90
ssg71
g4138
sg64
(lp4150
S':'
asbag57
(g78
g59
NtRp4151
(dp4152
g62
(dp4153
sg71
g4138
sg64
(lp4154
g57
(g58
g59
NtRp4155
(dp4156
g62
(dp4157
g70
I5
ssg71
g4151
sg64
(lp4158
g57
(g66
g59
NtRp4159
(dp4160
g62
(dp4161
g70
I4
ssg71
Nsg64
(lp4162
g57
(g73
g59
NtRp4163
(dp4164
g62
(dp4165
sg71
g4159
sg64
(lp4166
g57
(g78
g59
NtRp4167
(dp4168
g62
(dp4169
g82
g83
ssg71
g4163
sg64
(lp4170
S'author'
p4171
asbag57
(g78
g59
NtRp4172
(dp4173
g62
(dp4174
g89
g90
ssg71
g4163
sg64
(lp4175
S':'
asbag57
(g78
g59
NtRp4176
(dp4177
g62
(dp4178
sg71
g4163
sg64
(lp4179
g57
(g58
g59
NtRp4180
(dp4181
g62
(dp4182
g70
I4
ssg71
g4176
sg64
(lp4183
S'Your Name <you@example.com>'
p4184
asbasbasbag57
(g73
g59
NtRp4185
(dp4186
g62
(dp4187
sg71
g4159
sg64
(lp4188
g57
(g78
g59
NtRp4189
(dp4190
g62
(dp4191
g82
g83
ssg71
g4185
sg64
(lp4192
S'copyright'
p4193
asbag57
(g78
g59
NtRp4194
(dp4195
g62
(dp4196
g89
g90
ssg71
g4185
sg64
(lp4197
S':'
asbag57
(g78
g59
NtRp4198
(dp4199
g62
(dp4200
sg71
g4185
sg64
(lp4201
g57
(g58
g59
NtRp4202
(dp4203
g62
(dp4204
g70
I4
ssg71
g4198
sg64
(lp4205
S'Copyright 2011'
p4206
asbasbasbag57
(g73
g59
NtRp4207
(dp4208
g62
(dp4209
sg71
g4159
sg64
(lp4210
g57
(g78
g59
NtRp4211
(dp4212
g62
(dp4213
g82
g83
ssg71
g4207
sg64
(lp4214
S'description'
p4215
asbag57
(g78
g59
NtRp4216
(dp4217
g62
(dp4218
g89
g90
ssg71
g4207
sg64
(lp4219
S':'
asbag57
(g78
g59
NtRp4220
(dp4221
g62
(dp4222
sg71
g4207
sg64
(lp4223
g57
(g58
g59
NtRp4224
(dp4225
g62
(dp4226
g70
I4
ssg71
g4220
sg64
(lp4227
S'a cool new app'
p4228
asbasbasbag57
(g73
g59
NtRp4229
(dp4230
g62
(dp4231
sg71
g4159
sg64
(lp4232
g57
(g78
g59
NtRp4233
(dp4234
g62
(dp4235
g82
g83
ssg71
g4229
sg64
(lp4236
S'generator'
p4237
asbag57
(g78
g59
NtRp4238
(dp4239
g62
(dp4240
g89
g90
ssg71
g4229
sg64
(lp4241
S':'
asbag57
(g78
g59
NtRp4242
(dp4243
g62
(dp4244
sg71
g4229
sg64
(lp4245
g57
(g58
g59
NtRp4246
(dp4247
g62
(dp4248
g70
I4
ssg71
g4242
sg64
(lp4249
S'Web2py Web Framework'
p4250
asbasbasbag57
(g73
g59
NtRp4251
(dp4252
g62
(dp4253
sg71
g4159
sg64
(lp4254
g57
(g78
g59
NtRp4255
(dp4256
g62
(dp4257
g82
g83
ssg71
g4251
sg64
(lp4258
S'keywords'
p4259
asbag57
(g78
g59
NtRp4260
(dp4261
g62
(dp4262
g89
g90
ssg71
g4251
sg64
(lp4263
S':'
asbag57
(g78
g59
NtRp4264
(dp4265
g62
(dp4266
sg71
g4251
sg64
(lp4267
g57
(g58
g59
NtRp4268
(dp4269
g62
(dp4270
g70
I4
ssg71
g4264
sg64
(lp4271
S'web2py, python, framework'
p4272
asbasbasbasbasbasbasbag57
(g73
g59
NtRp4273
(dp4274
g62
(dp4275
sg71
g2962
sg64
(lp4276
g57
(g78
g59
NtRp4277
(dp4278
g62
(dp4279
g82
g83
ssg71
g4273
sg64
(lp4280
S'postprocessing'
p4281
asbag57
(g78
g59
NtRp4282
(dp4283
g62
(dp4284
g89
g90
ssg71
g4273
sg64
(lp4285
S':'
asbag57
(g78
g59
NtRp4286
(dp4287
g62
(dp4288
sg71
g4273
sg64
(lp4289
g57
(g58
g59
NtRp4290
(dp4291
g62
(dp4292
g70
I5
ssg71
g4286
sg64
(lp4293
g57
(g66
g59
NtRp4294
(dp4295
g62
(dp4296
g70
I4
ssg71
Nsg64
(lp4297
sbasbasbasbag57
(g73
g59
NtRp4298
(dp4299
g62
(dp4300
sg71
g2962
sg64
(lp4301
g57
(g78
g59
NtRp4302
(dp4303
g62
(dp4304
g82
g83
ssg71
g4298
sg64
(lp4305
S'session_filename'
p4306
asbag57
(g78
g59
NtRp4307
(dp4308
g62
(dp4309
g89
g90
ssg71
g4298
sg64
(lp4310
S':'
asbag57
(g78
g59
NtRp4311
(dp4312
g62
(dp4313
sg71
g4298
sg64
(lp4314
g57
(g58
g59
NtRp4315
(dp4316
g62
(dp4317
g70
I5
ssg71
g4311
sg64
(lp4318
S'/home/fish/Desktop/web2py/applications/vsalad/sessions/127.0.0.1-e7a2b699-40f7-4ffd-bf72-62660ca6a3d1'
p4319
asbasbasbag57
(g73
g59
NtRp4320
(dp4321
g62
(dp4322
sg71
g2962
sg64
(lp4323
g57
(g78
g59
NtRp4324
(dp4325
g62
(dp4326
g82
g83
ssg71
g4320
sg64
(lp4327
S'session_id'
p4328
asbag57
(g78
g59
NtRp4329
(dp4330
g62
(dp4331
g89
g90
ssg71
g4320
sg64
(lp4332
S':'
asbag57
(g78
g59
NtRp4333
(dp4334
g62
(dp4335
sg71
g4320
sg64
(lp4336
g57
(g58
g59
NtRp4337
(dp4338
g62
(dp4339
g70
I5
ssg71
g4333
sg64
(lp4340
S'127.0.0.1-e7a2b699-40f7-4ffd-bf72-62660ca6a3d1'
p4341
asbasbasbag57
(g73
g59
NtRp4342
(dp4343
g62
(dp4344
sg71
g2962
sg64
(lp4345
g57
(g78
g59
NtRp4346
(dp4347
g62
(dp4348
g82
g83
ssg71
g4342
sg64
(lp4349
S'session_id_name'
p4350
asbag57
(g78
g59
NtRp4351
(dp4352
g62
(dp4353
g89
g90
ssg71
g4342
sg64
(lp4354
S':'
asbag57
(g78
g59
NtRp4355
(dp4356
g62
(dp4357
sg71
g4342
sg64
(lp4358
g57
(g58
g59
NtRp4359
(dp4360
g62
(dp4361
g70
I5
ssg71
g4355
sg64
(lp4362
g3019
asbasbasbag57
(g73
g59
NtRp4363
(dp4364
g62
(dp4365
sg71
g2962
sg64
(lp4366
g57
(g78
g59
NtRp4367
(dp4368
g62
(dp4369
g82
g83
ssg71
g4363
sg64
(lp4370
S'session_new'
p4371
asbag57
(g78
g59
NtRp4372
(dp4373
g62
(dp4374
g89
g90
ssg71
g4363
sg64
(lp4375
S':'
asbag57
(g78
g59
NtRp4376
(dp4377
g62
(dp4378
sg71
g4363
sg64
(lp4379
g57
(g58
g59
NtRp4380
(dp4381
g62
(dp4382
g70
I5
ssg71
g4376
sg64
(lp4383
g1515
asbasbasbag57
(g73
g59
NtRp4384
(dp4385
g62
(dp4386
sg71
g2962
sg64
(lp4387
g57
(g78
g59
NtRp4388
(dp4389
g62
(dp4390
g82
g83
ssg71
g4384
sg64
(lp4391
S'status'
p4392
asbag57
(g78
g59
NtRp4393
(dp4394
g62
(dp4395
g89
g90
ssg71
g4384
sg64
(lp4396
S':'
asbag57
(g78
g59
NtRp4397
(dp4398
g62
(dp4399
sg71
g4384
sg64
(lp4400
g57
(g58
g59
NtRp4401
(dp4402
g62
(dp4403
g70
I5
ssg71
g4397
sg64
(lp4404
S'200'
p4405
asbasbasbag57
(g73
g59
NtRp4406
(dp4407
g62
(dp4408
sg71
g2962
sg64
(lp4409
g57
(g78
g59
NtRp4410
(dp4411
g62
(dp4412
g82
g83
ssg71
g4406
sg64
(lp4413
S'subtitle'
p4414
asbag57
(g78
g59
NtRp4415
(dp4416
g62
(dp4417
g89
g90
ssg71
g4406
sg64
(lp4418
S':'
asbag57
(g78
g59
NtRp4419
(dp4420
g62
(dp4421
sg71
g4406
sg64
(lp4422
g57
(g58
g59
NtRp4423
(dp4424
g62
(dp4425
g70
I5
ssg71
g4419
sg64
(lp4426
g3518
(S's\r\x00\x00\x00customize me!'
tRp4427
asbasbasbag57
(g73
g59
NtRp4428
(dp4429
g62
(dp4430
sg71
g2962
sg64
(lp4431
g57
(g78
g59
NtRp4432
(dp4433
g62
(dp4434
g82
g83
ssg71
g4428
sg64
(lp4435
S'title'
p4436
asbag57
(g78
g59
NtRp4437
(dp4438
g62
(dp4439
g89
g90
ssg71
g4428
sg64
(lp4440
S':'
asbag57
(g78
g59
NtRp4441
(dp4442
g62
(dp4443
sg71
g4428
sg64
(lp4444
g57
(g58
g59
NtRp4445
(dp4446
g62
(dp4447
g70
I5
ssg71
g4441
sg64
(lp4448
S'Vsalad'
p4449
asbasbasbag57
(g73
g59
NtRp4450
(dp4451
g62
(dp4452
sg71
g2962
sg64
(lp4453
g57
(g78
g59
NtRp4454
(dp4455
g62
(dp4456
g82
g83
ssg71
g4450
sg64
(lp4457
g2179
asbag57
(g78
g59
NtRp4458
(dp4459
g62
(dp4460
g89
g90
ssg71
g4450
sg64
(lp4461
S':'
asbag57
(g78
g59
NtRp4462
(dp4463
g62
(dp4464
sg71
g4450
sg64
(lp4465
g57
(g58
g59
NtRp4466
(dp4467
g62
(dp4468
g70
I5
ssg71
g4462
sg64
(lp4469
g2192
asbasbasbag57
(g73
g59
NtRp4470
(dp4471
g62
(dp4472
sg71
g2962
sg64
(lp4473
g57
(g78
g59
NtRp4474
(dp4475
g62
(dp4476
g82
g83
ssg71
g4470
sg64
(lp4477
S'view'
p4478
asbag57
(g78
g59
NtRp4479
(dp4480
g62
(dp4481
g89
g90
ssg71
g4470
sg64
(lp4482
S':'
asbag57
(g78
g59
NtRp4483
(dp4484
g62
(dp4485
sg71
g4470
sg64
(lp4486
g57
(g58
g59
NtRp4487
(dp4488
g62
(dp4489
g70
I5
ssg71
g4483
sg64
(lp4490
S'action/comments.html'
p4491
asbasbasbasbasbsS'locals'
p4492
(dp4493
S'fromlist'
p4494
S"('Tools',)"
p4495
sS'name'
p4496
S"'models.tools'"
p4497
sg70
S'-1'
p4498
sS'self'
p4499
S'<gluon.custom_import._Web2pyImporter object>'
p4500
sS'globals'
p4501
S"{'A': <class 'gluon.html.A'>, 'Auth': <class 'gluon.tools.Auth'>, 'B': <class 'gluon.html.B'>, 'BEAUTIFY': <class 'gluon.html.BEAUTIFY'>, 'BODY': <class 'gluon.html.BODY'>, 'BR': <class 'gluon.html.BR'>, 'BUTTON': <class 'gluon.html.BUTTON'>, 'CAT': <class 'gluon.html.CAT'>, 'CENTER': <class 'gluon.html.CENTER'>, 'CLEANUP': <class 'gluon.validators.CLEANUP'>, ...}"
p4502
sg4492
S"{'A': <class 'gluon.html.A'>, 'Auth': <class 'gluon.tools.Auth'>, 'B': <class 'gluon.html.B'>, 'BEAUTIFY': <class 'gluon.html.BEAUTIFY'>, 'BODY': <class 'gluon.html.BODY'>, 'BR': <class 'gluon.html.BR'>, 'BUTTON': <class 'gluon.html.BUTTON'>, 'CAT': <class 'gluon.html.CAT'>, 'CENTER': <class 'gluon.html.CENTER'>, 'CLEANUP': <class 'gluon.validators.CLEANUP'>, ...}"
p4503
sssS'traceback'
p4504
S'Traceback (most recent call last):\n  File "/home/fish/Desktop/web2py/gluon/restricted.py", line 205, in restricted\n    exec ccode in environment\n  File "/home/fish/Desktop/web2py/applications/vsalad/controllers/action.py", line 2, in <module>\n    from models.tools import Tools\n  File "/home/fish/Desktop/web2py/gluon/custom_import.py", line 293, in __call__\n    fromlist, level)\n  File "/home/fish/Desktop/web2py/gluon/custom_import.py", line 78, in __call__\n    level)\nImportError: No module named models.tools\n'
p4505
s.