(dp1
S'output'
p2
S"<type 'exceptions.SyntaxError'> invalid syntax (comments.html, line 6)"
p3
sS'layer'
p4
S'/home/fish/Desktop/web2py/applications/vsalad/views/action/comments.html'
p5
sS'code'
p6
S'response.write(\'<html>\\n<head>\\n<script src="http://code.jquery.com/jquery-latest.js"></script>\\n<script> \\n</script>\\n</head>\\n<body>\\n\', escape=False)\ndef show(t):\n    response.write(\'\\n    \', escape=False)\n    for x in t:\n        response.write(\'\\n        <div class="comments">\', escape=False)\n        {=x[\'body\']\n        response.write(\'</div>\\n        <div class="children">\\n        \', escape=False)\n        show(x[\'children\'])\n        response.write(\'\\n        </div>\\n    \', escape=False)\n        pass\n    response.write(\'\\n    \\n    \\n\', escape=False)\n    pass\nresponse.write(\'\\n\', escape=False)\nshow(comments)\nresponse.write(\'\\n</body>\\n</html>\\n\', escape=False)'
p7
sS'snapshot'
p8
(dp9
S'exception'
p10
(dp11
S'__getslice__'
p12
S"<method-wrapper '__getslice__' of exceptions.SyntaxError object>"
p13
sS'text'
p14
S'"        {=x[\'body\']\\n"'
p15
sS'__str__'
p16
S"<method-wrapper '__str__' of exceptions.SyntaxError object>"
p17
sS'__reduce__'
p18
S'<built-in method __reduce__ of exceptions.SyntaxError object>'
p19
sS'__dict__'
p20
S'{}'
p21
sS'__sizeof__'
p22
S'<built-in method __sizeof__ of exceptions.SyntaxError object>'
p23
sS'__init__'
p24
S"<method-wrapper '__init__' of exceptions.SyntaxError object>"
p25
sS'__setattr__'
p26
S"<method-wrapper '__setattr__' of exceptions.SyntaxError object>"
p27
sS'__reduce_ex__'
p28
S'<built-in method __reduce_ex__ of exceptions.SyntaxError object>'
p29
sS'__new__'
p30
S'<built-in method __new__ of type object>'
p31
sS'__format__'
p32
S'<built-in method __format__ of exceptions.SyntaxError object>'
p33
sS'__class__'
p34
S"<type 'exceptions.SyntaxError'>"
p35
sS'filename'
p36
S"'/home/fish/Desktop/web2py/applications/vsalad/views/action/comments.html'"
p37
sS'lineno'
p38
S'6'
sS'msg'
p39
S"'invalid syntax'"
p40
sS'__doc__'
p41
S"'Invalid syntax.'"
p42
sS'__getitem__'
p43
S"<method-wrapper '__getitem__' of exceptions.SyntaxError object>"
p44
sS'__setstate__'
p45
S'<built-in method __setstate__ of exceptions.SyntaxError object>'
p46
sS'__getattribute__'
p47
S"<method-wrapper '__getattribute__' of exceptions.SyntaxError object>"
p48
sS'print_file_and_line'
p49
S'None'
p50
sS'args'
p51
S'(\'invalid syntax\', (\'/home/fish/Desktop/web2py/applications/vsalad/views/action/comments.html\', 6, 10, "        {=x[\'body\']\\n"))'
p52
sS'__subclasshook__'
p53
S'<built-in method __subclasshook__ of type object>'
p54
sS'offset'
p55
S'10'
p56
sS'__unicode__'
p57
S'<built-in method __unicode__ of exceptions.SyntaxError object>'
p58
sS'__delattr__'
p59
S"<method-wrapper '__delattr__' of exceptions.SyntaxError object>"
p60
sS'__repr__'
p61
S"<method-wrapper '__repr__' of exceptions.SyntaxError object>"
p62
sS'__hash__'
p63
S"<method-wrapper '__hash__' of exceptions.SyntaxError object>"
p64
ssS'evalue'
p65
S'invalid syntax (comments.html, line 6)'
p66
sS'request'
p67
ccopy_reg
_reconstructor
p68
(cgluon.html
BEAUTIFY
p69
c__builtin__
object
p70
NtRp71
(dp72
S'attributes'
p73
(dp74
sS'components'
p75
(lp76
g68
(cgluon.html
TABLE
p77
g70
NtRp78
(dp79
g73
(dp80
S'level'
p81
I5
ssS'parent'
p82
Nsg75
(lp83
g68
(cgluon.html
TR
p84
g70
NtRp85
(dp86
g73
(dp87
sg82
g78
sg75
(lp88
g68
(cgluon.html
TD
p89
g70
NtRp90
(dp91
g73
(dp92
S'_style'
p93
S'font-weight:bold;vertical-align:top'
p94
ssg82
g85
sg75
(lp95
S'ajax'
p96
asbag68
(g89
g70
NtRp97
(dp98
g73
(dp99
S'_valign'
p100
S'top'
p101
ssg82
g85
sg75
(lp102
S':'
asbag68
(g89
g70
NtRp103
(dp104
g73
(dp105
sg82
g85
sg75
(lp106
g68
(g69
g70
NtRp107
(dp108
g73
(dp109
g81
I5
ssg82
g103
sg75
(lp110
S'False'
p111
asbasbasbag68
(g84
g70
NtRp112
(dp113
g73
(dp114
sg82
g78
sg75
(lp115
g68
(g89
g70
NtRp116
(dp117
g73
(dp118
g93
g94
ssg82
g112
sg75
(lp119
S'application'
p120
asbag68
(g89
g70
NtRp121
(dp122
g73
(dp123
g100
g101
ssg82
g112
sg75
(lp124
S':'
asbag68
(g89
g70
NtRp125
(dp126
g73
(dp127
sg82
g112
sg75
(lp128
g68
(g69
g70
NtRp129
(dp130
g73
(dp131
g81
I5
ssg82
g125
sg75
(lp132
S'vsalad'
p133
asbasbasbag68
(g84
g70
NtRp134
(dp135
g73
(dp136
sg82
g78
sg75
(lp137
g68
(g89
g70
NtRp138
(dp139
g73
(dp140
g93
g94
ssg82
g134
sg75
(lp141
g51
asbag68
(g89
g70
NtRp142
(dp143
g73
(dp144
g100
g101
ssg82
g134
sg75
(lp145
S':'
asbag68
(g89
g70
NtRp146
(dp147
g73
(dp148
sg82
g134
sg75
(lp149
g68
(g69
g70
NtRp150
(dp151
g73
(dp152
g81
I5
ssg82
g146
sg75
(lp153
g68
(g77
g70
NtRp154
(dp155
g73
(dp156
g81
I4
ssg82
Nsg75
(lp157
sbasbasbasbag68
(g84
g70
NtRp158
(dp159
g73
(dp160
sg82
g78
sg75
(lp161
g68
(g89
g70
NtRp162
(dp163
g73
(dp164
g93
g94
ssg82
g158
sg75
(lp165
S'body'
p166
asbag68
(g89
g70
NtRp167
(dp168
g73
(dp169
g100
g101
ssg82
g158
sg75
(lp170
S':'
asbag68
(g89
g70
NtRp171
(dp172
g73
(dp173
sg82
g158
sg75
(lp174
g68
(g69
g70
NtRp175
(dp176
g73
(dp177
g81
I5
ssg82
g171
sg75
(lp178
S'<cStringIO.StringO object at 0x2f2b848>'
p179
asbasbasbag68
(g84
g70
NtRp180
(dp181
g73
(dp182
sg82
g78
sg75
(lp183
g68
(g89
g70
NtRp184
(dp185
g73
(dp186
g93
g94
ssg82
g180
sg75
(lp187
S'client'
p188
asbag68
(g89
g70
NtRp189
(dp190
g73
(dp191
g100
g101
ssg82
g180
sg75
(lp192
S':'
asbag68
(g89
g70
NtRp193
(dp194
g73
(dp195
sg82
g180
sg75
(lp196
g68
(g69
g70
NtRp197
(dp198
g73
(dp199
g81
I5
ssg82
g193
sg75
(lp200
S'127.0.0.1'
p201
asbasbasbag68
(g84
g70
NtRp202
(dp203
g73
(dp204
sg82
g78
sg75
(lp205
g68
(g89
g70
NtRp206
(dp207
g73
(dp208
g93
g94
ssg82
g202
sg75
(lp209
S'controller'
p210
asbag68
(g89
g70
NtRp211
(dp212
g73
(dp213
g100
g101
ssg82
g202
sg75
(lp214
S':'
asbag68
(g89
g70
NtRp215
(dp216
g73
(dp217
sg82
g202
sg75
(lp218
g68
(g69
g70
NtRp219
(dp220
g73
(dp221
g81
I5
ssg82
g215
sg75
(lp222
S'action'
p223
asbasbasbag68
(g84
g70
NtRp224
(dp225
g73
(dp226
sg82
g78
sg75
(lp227
g68
(g89
g70
NtRp228
(dp229
g73
(dp230
g93
g94
ssg82
g224
sg75
(lp231
S'cookies'
p232
asbag68
(g89
g70
NtRp233
(dp234
g73
(dp235
g100
g101
ssg82
g224
sg75
(lp236
S':'
asbag68
(g89
g70
NtRp237
(dp238
g73
(dp239
sg82
g224
sg75
(lp240
g68
(g69
g70
NtRp241
(dp242
g73
(dp243
g81
I5
ssg82
g237
sg75
(lp244
g68
(g77
g70
NtRp245
(dp246
g73
(dp247
g81
I4
ssg82
Nsg75
(lp248
g68
(g84
g70
NtRp249
(dp250
g73
(dp251
sg82
g245
sg75
(lp252
g68
(g89
g70
NtRp253
(dp254
g73
(dp255
g93
g94
ssg82
g249
sg75
(lp256
S'session_id_admin'
p257
asbag68
(g89
g70
NtRp258
(dp259
g73
(dp260
g100
g101
ssg82
g249
sg75
(lp261
S':'
asbag68
(g89
g70
NtRp262
(dp263
g73
(dp264
sg82
g249
sg75
(lp265
g68
(g69
g70
NtRp266
(dp267
g73
(dp268
g81
I4
ssg82
g262
sg75
(lp269
g68
(g77
g70
NtRp270
(dp271
g73
(dp272
g81
I3
ssg82
Nsg75
(lp273
g68
(g84
g70
NtRp274
(dp275
g73
(dp276
sg82
g270
sg75
(lp277
g68
(g89
g70
NtRp278
(dp279
g73
(dp280
g93
g94
ssg82
g274
sg75
(lp281
S'comment'
p282
asbag68
(g89
g70
NtRp283
(dp284
g73
(dp285
g100
g101
ssg82
g274
sg75
(lp286
S':'
asbag68
(g89
g70
NtRp287
(dp288
g73
(dp289
sg82
g274
sg75
(lp290
g68
(g69
g70
NtRp291
(dp292
g73
(dp293
g81
I3
ssg82
g287
sg75
(lp294
S''
asbasbasbag68
(g84
g70
NtRp295
(dp296
g73
(dp297
sg82
g270
sg75
(lp298
g68
(g89
g70
NtRp299
(dp300
g73
(dp301
g93
g94
ssg82
g295
sg75
(lp302
S'domain'
p303
asbag68
(g89
g70
NtRp304
(dp305
g73
(dp306
g100
g101
ssg82
g295
sg75
(lp307
S':'
asbag68
(g89
g70
NtRp308
(dp309
g73
(dp310
sg82
g295
sg75
(lp311
g68
(g69
g70
NtRp312
(dp313
g73
(dp314
g81
I3
ssg82
g308
sg75
(lp315
S''
asbasbasbag68
(g84
g70
NtRp316
(dp317
g73
(dp318
sg82
g270
sg75
(lp319
g68
(g89
g70
NtRp320
(dp321
g73
(dp322
g93
g94
ssg82
g316
sg75
(lp323
S'expires'
p324
asbag68
(g89
g70
NtRp325
(dp326
g73
(dp327
g100
g101
ssg82
g316
sg75
(lp328
S':'
asbag68
(g89
g70
NtRp329
(dp330
g73
(dp331
sg82
g316
sg75
(lp332
g68
(g69
g70
NtRp333
(dp334
g73
(dp335
g81
I3
ssg82
g329
sg75
(lp336
S''
asbasbasbag68
(g84
g70
NtRp337
(dp338
g73
(dp339
sg82
g270
sg75
(lp340
g68
(g89
g70
NtRp341
(dp342
g73
(dp343
g93
g94
ssg82
g337
sg75
(lp344
S'httponly'
p345
asbag68
(g89
g70
NtRp346
(dp347
g73
(dp348
g100
g101
ssg82
g337
sg75
(lp349
S':'
asbag68
(g89
g70
NtRp350
(dp351
g73
(dp352
sg82
g337
sg75
(lp353
g68
(g69
g70
NtRp354
(dp355
g73
(dp356
g81
I3
ssg82
g350
sg75
(lp357
S''
asbasbasbag68
(g84
g70
NtRp358
(dp359
g73
(dp360
sg82
g270
sg75
(lp361
g68
(g89
g70
NtRp362
(dp363
g73
(dp364
g93
g94
ssg82
g358
sg75
(lp365
S'max-age'
p366
asbag68
(g89
g70
NtRp367
(dp368
g73
(dp369
g100
g101
ssg82
g358
sg75
(lp370
S':'
asbag68
(g89
g70
NtRp371
(dp372
g73
(dp373
sg82
g358
sg75
(lp374
g68
(g69
g70
NtRp375
(dp376
g73
(dp377
g81
I3
ssg82
g371
sg75
(lp378
S''
asbasbasbag68
(g84
g70
NtRp379
(dp380
g73
(dp381
sg82
g270
sg75
(lp382
g68
(g89
g70
NtRp383
(dp384
g73
(dp385
g93
g94
ssg82
g379
sg75
(lp386
S'path'
p387
asbag68
(g89
g70
NtRp388
(dp389
g73
(dp390
g100
g101
ssg82
g379
sg75
(lp391
S':'
asbag68
(g89
g70
NtRp392
(dp393
g73
(dp394
sg82
g379
sg75
(lp395
g68
(g69
g70
NtRp396
(dp397
g73
(dp398
g81
I3
ssg82
g392
sg75
(lp399
S''
asbasbasbag68
(g84
g70
NtRp400
(dp401
g73
(dp402
sg82
g270
sg75
(lp403
g68
(g89
g70
NtRp404
(dp405
g73
(dp406
g93
g94
ssg82
g400
sg75
(lp407
S'secure'
p408
asbag68
(g89
g70
NtRp409
(dp410
g73
(dp411
g100
g101
ssg82
g400
sg75
(lp412
S':'
asbag68
(g89
g70
NtRp413
(dp414
g73
(dp415
sg82
g400
sg75
(lp416
g68
(g69
g70
NtRp417
(dp418
g73
(dp419
g81
I3
ssg82
g413
sg75
(lp420
S''
asbasbasbag68
(g84
g70
NtRp421
(dp422
g73
(dp423
sg82
g270
sg75
(lp424
g68
(g89
g70
NtRp425
(dp426
g73
(dp427
g93
g94
ssg82
g421
sg75
(lp428
S'version'
p429
asbag68
(g89
g70
NtRp430
(dp431
g73
(dp432
g100
g101
ssg82
g421
sg75
(lp433
S':'
asbag68
(g89
g70
NtRp434
(dp435
g73
(dp436
sg82
g421
sg75
(lp437
g68
(g69
g70
NtRp438
(dp439
g73
(dp440
g81
I3
ssg82
g434
sg75
(lp441
S''
asbasbasbasbasbasbasbag68
(g84
g70
NtRp442
(dp443
g73
(dp444
sg82
g245
sg75
(lp445
g68
(g89
g70
NtRp446
(dp447
g73
(dp448
g93
g94
ssg82
g442
sg75
(lp449
S'session_id_vsalad'
p450
asbag68
(g89
g70
NtRp451
(dp452
g73
(dp453
g100
g101
ssg82
g442
sg75
(lp454
S':'
asbag68
(g89
g70
NtRp455
(dp456
g73
(dp457
sg82
g442
sg75
(lp458
g68
(g69
g70
NtRp459
(dp460
g73
(dp461
g81
I4
ssg82
g455
sg75
(lp462
g68
(g77
g70
NtRp463
(dp464
g73
(dp465
g81
I3
ssg82
Nsg75
(lp466
g68
(g84
g70
NtRp467
(dp468
g73
(dp469
sg82
g463
sg75
(lp470
g68
(g89
g70
NtRp471
(dp472
g73
(dp473
g93
g94
ssg82
g467
sg75
(lp474
g282
asbag68
(g89
g70
NtRp475
(dp476
g73
(dp477
g100
g101
ssg82
g467
sg75
(lp478
S':'
asbag68
(g89
g70
NtRp479
(dp480
g73
(dp481
sg82
g467
sg75
(lp482
g68
(g69
g70
NtRp483
(dp484
g73
(dp485
g81
I3
ssg82
g479
sg75
(lp486
S''
asbasbasbag68
(g84
g70
NtRp487
(dp488
g73
(dp489
sg82
g463
sg75
(lp490
g68
(g89
g70
NtRp491
(dp492
g73
(dp493
g93
g94
ssg82
g487
sg75
(lp494
g303
asbag68
(g89
g70
NtRp495
(dp496
g73
(dp497
g100
g101
ssg82
g487
sg75
(lp498
S':'
asbag68
(g89
g70
NtRp499
(dp500
g73
(dp501
sg82
g487
sg75
(lp502
g68
(g69
g70
NtRp503
(dp504
g73
(dp505
g81
I3
ssg82
g499
sg75
(lp506
S''
asbasbasbag68
(g84
g70
NtRp507
(dp508
g73
(dp509
sg82
g463
sg75
(lp510
g68
(g89
g70
NtRp511
(dp512
g73
(dp513
g93
g94
ssg82
g507
sg75
(lp514
g324
asbag68
(g89
g70
NtRp515
(dp516
g73
(dp517
g100
g101
ssg82
g507
sg75
(lp518
S':'
asbag68
(g89
g70
NtRp519
(dp520
g73
(dp521
sg82
g507
sg75
(lp522
g68
(g69
g70
NtRp523
(dp524
g73
(dp525
g81
I3
ssg82
g519
sg75
(lp526
S''
asbasbasbag68
(g84
g70
NtRp527
(dp528
g73
(dp529
sg82
g463
sg75
(lp530
g68
(g89
g70
NtRp531
(dp532
g73
(dp533
g93
g94
ssg82
g527
sg75
(lp534
g345
asbag68
(g89
g70
NtRp535
(dp536
g73
(dp537
g100
g101
ssg82
g527
sg75
(lp538
S':'
asbag68
(g89
g70
NtRp539
(dp540
g73
(dp541
sg82
g527
sg75
(lp542
g68
(g69
g70
NtRp543
(dp544
g73
(dp545
g81
I3
ssg82
g539
sg75
(lp546
S''
asbasbasbag68
(g84
g70
NtRp547
(dp548
g73
(dp549
sg82
g463
sg75
(lp550
g68
(g89
g70
NtRp551
(dp552
g73
(dp553
g93
g94
ssg82
g547
sg75
(lp554
g366
asbag68
(g89
g70
NtRp555
(dp556
g73
(dp557
g100
g101
ssg82
g547
sg75
(lp558
S':'
asbag68
(g89
g70
NtRp559
(dp560
g73
(dp561
sg82
g547
sg75
(lp562
g68
(g69
g70
NtRp563
(dp564
g73
(dp565
g81
I3
ssg82
g559
sg75
(lp566
S''
asbasbasbag68
(g84
g70
NtRp567
(dp568
g73
(dp569
sg82
g463
sg75
(lp570
g68
(g89
g70
NtRp571
(dp572
g73
(dp573
g93
g94
ssg82
g567
sg75
(lp574
g387
asbag68
(g89
g70
NtRp575
(dp576
g73
(dp577
g100
g101
ssg82
g567
sg75
(lp578
S':'
asbag68
(g89
g70
NtRp579
(dp580
g73
(dp581
sg82
g567
sg75
(lp582
g68
(g69
g70
NtRp583
(dp584
g73
(dp585
g81
I3
ssg82
g579
sg75
(lp586
S''
asbasbasbag68
(g84
g70
NtRp587
(dp588
g73
(dp589
sg82
g463
sg75
(lp590
g68
(g89
g70
NtRp591
(dp592
g73
(dp593
g93
g94
ssg82
g587
sg75
(lp594
g408
asbag68
(g89
g70
NtRp595
(dp596
g73
(dp597
g100
g101
ssg82
g587
sg75
(lp598
S':'
asbag68
(g89
g70
NtRp599
(dp600
g73
(dp601
sg82
g587
sg75
(lp602
g68
(g69
g70
NtRp603
(dp604
g73
(dp605
g81
I3
ssg82
g599
sg75
(lp606
S''
asbasbasbag68
(g84
g70
NtRp607
(dp608
g73
(dp609
sg82
g463
sg75
(lp610
g68
(g89
g70
NtRp611
(dp612
g73
(dp613
g93
g94
ssg82
g607
sg75
(lp614
g429
asbag68
(g89
g70
NtRp615
(dp616
g73
(dp617
g100
g101
ssg82
g607
sg75
(lp618
S':'
asbag68
(g89
g70
NtRp619
(dp620
g73
(dp621
sg82
g607
sg75
(lp622
g68
(g69
g70
NtRp623
(dp624
g73
(dp625
g81
I3
ssg82
g619
sg75
(lp626
S''
asbasbasbasbasbasbasbag68
(g84
g70
NtRp627
(dp628
g73
(dp629
sg82
g245
sg75
(lp630
g68
(g89
g70
NtRp631
(dp632
g73
(dp633
g93
g94
ssg82
g627
sg75
(lp634
S'session_id_welcome'
p635
asbag68
(g89
g70
NtRp636
(dp637
g73
(dp638
g100
g101
ssg82
g627
sg75
(lp639
S':'
asbag68
(g89
g70
NtRp640
(dp641
g73
(dp642
sg82
g627
sg75
(lp643
g68
(g69
g70
NtRp644
(dp645
g73
(dp646
g81
I4
ssg82
g640
sg75
(lp647
g68
(g77
g70
NtRp648
(dp649
g73
(dp650
g81
I3
ssg82
Nsg75
(lp651
g68
(g84
g70
NtRp652
(dp653
g73
(dp654
sg82
g648
sg75
(lp655
g68
(g89
g70
NtRp656
(dp657
g73
(dp658
g93
g94
ssg82
g652
sg75
(lp659
g282
asbag68
(g89
g70
NtRp660
(dp661
g73
(dp662
g100
g101
ssg82
g652
sg75
(lp663
S':'
asbag68
(g89
g70
NtRp664
(dp665
g73
(dp666
sg82
g652
sg75
(lp667
g68
(g69
g70
NtRp668
(dp669
g73
(dp670
g81
I3
ssg82
g664
sg75
(lp671
S''
asbasbasbag68
(g84
g70
NtRp672
(dp673
g73
(dp674
sg82
g648
sg75
(lp675
g68
(g89
g70
NtRp676
(dp677
g73
(dp678
g93
g94
ssg82
g672
sg75
(lp679
g303
asbag68
(g89
g70
NtRp680
(dp681
g73
(dp682
g100
g101
ssg82
g672
sg75
(lp683
S':'
asbag68
(g89
g70
NtRp684
(dp685
g73
(dp686
sg82
g672
sg75
(lp687
g68
(g69
g70
NtRp688
(dp689
g73
(dp690
g81
I3
ssg82
g684
sg75
(lp691
S''
asbasbasbag68
(g84
g70
NtRp692
(dp693
g73
(dp694
sg82
g648
sg75
(lp695
g68
(g89
g70
NtRp696
(dp697
g73
(dp698
g93
g94
ssg82
g692
sg75
(lp699
g324
asbag68
(g89
g70
NtRp700
(dp701
g73
(dp702
g100
g101
ssg82
g692
sg75
(lp703
S':'
asbag68
(g89
g70
NtRp704
(dp705
g73
(dp706
sg82
g692
sg75
(lp707
g68
(g69
g70
NtRp708
(dp709
g73
(dp710
g81
I3
ssg82
g704
sg75
(lp711
S''
asbasbasbag68
(g84
g70
NtRp712
(dp713
g73
(dp714
sg82
g648
sg75
(lp715
g68
(g89
g70
NtRp716
(dp717
g73
(dp718
g93
g94
ssg82
g712
sg75
(lp719
g345
asbag68
(g89
g70
NtRp720
(dp721
g73
(dp722
g100
g101
ssg82
g712
sg75
(lp723
S':'
asbag68
(g89
g70
NtRp724
(dp725
g73
(dp726
sg82
g712
sg75
(lp727
g68
(g69
g70
NtRp728
(dp729
g73
(dp730
g81
I3
ssg82
g724
sg75
(lp731
S''
asbasbasbag68
(g84
g70
NtRp732
(dp733
g73
(dp734
sg82
g648
sg75
(lp735
g68
(g89
g70
NtRp736
(dp737
g73
(dp738
g93
g94
ssg82
g732
sg75
(lp739
g366
asbag68
(g89
g70
NtRp740
(dp741
g73
(dp742
g100
g101
ssg82
g732
sg75
(lp743
S':'
asbag68
(g89
g70
NtRp744
(dp745
g73
(dp746
sg82
g732
sg75
(lp747
g68
(g69
g70
NtRp748
(dp749
g73
(dp750
g81
I3
ssg82
g744
sg75
(lp751
S''
asbasbasbag68
(g84
g70
NtRp752
(dp753
g73
(dp754
sg82
g648
sg75
(lp755
g68
(g89
g70
NtRp756
(dp757
g73
(dp758
g93
g94
ssg82
g752
sg75
(lp759
g387
asbag68
(g89
g70
NtRp760
(dp761
g73
(dp762
g100
g101
ssg82
g752
sg75
(lp763
S':'
asbag68
(g89
g70
NtRp764
(dp765
g73
(dp766
sg82
g752
sg75
(lp767
g68
(g69
g70
NtRp768
(dp769
g73
(dp770
g81
I3
ssg82
g764
sg75
(lp771
S''
asbasbasbag68
(g84
g70
NtRp772
(dp773
g73
(dp774
sg82
g648
sg75
(lp775
g68
(g89
g70
NtRp776
(dp777
g73
(dp778
g93
g94
ssg82
g772
sg75
(lp779
g408
asbag68
(g89
g70
NtRp780
(dp781
g73
(dp782
g100
g101
ssg82
g772
sg75
(lp783
S':'
asbag68
(g89
g70
NtRp784
(dp785
g73
(dp786
sg82
g772
sg75
(lp787
g68
(g69
g70
NtRp788
(dp789
g73
(dp790
g81
I3
ssg82
g784
sg75
(lp791
S''
asbasbasbag68
(g84
g70
NtRp792
(dp793
g73
(dp794
sg82
g648
sg75
(lp795
g68
(g89
g70
NtRp796
(dp797
g73
(dp798
g93
g94
ssg82
g792
sg75
(lp799
g429
asbag68
(g89
g70
NtRp800
(dp801
g73
(dp802
g100
g101
ssg82
g792
sg75
(lp803
S':'
asbag68
(g89
g70
NtRp804
(dp805
g73
(dp806
sg82
g792
sg75
(lp807
g68
(g69
g70
NtRp808
(dp809
g73
(dp810
g81
I3
ssg82
g804
sg75
(lp811
S''
asbasbasbasbasbasbasbasbasbasbasbag68
(g84
g70
NtRp812
(dp813
g73
(dp814
sg82
g78
sg75
(lp815
g68
(g89
g70
NtRp816
(dp817
g73
(dp818
g93
g94
ssg82
g812
sg75
(lp819
S'env'
p820
asbag68
(g89
g70
NtRp821
(dp822
g73
(dp823
g100
g101
ssg82
g812
sg75
(lp824
S':'
asbag68
(g89
g70
NtRp825
(dp826
g73
(dp827
sg82
g812
sg75
(lp828
g68
(g69
g70
NtRp829
(dp830
g73
(dp831
g81
I5
ssg82
g825
sg75
(lp832
g68
(g77
g70
NtRp833
(dp834
g73
(dp835
g81
I4
ssg82
Nsg75
(lp836
g68
(g84
g70
NtRp837
(dp838
g73
(dp839
sg82
g833
sg75
(lp840
g68
(g89
g70
NtRp841
(dp842
g73
(dp843
g93
g94
ssg82
g837
sg75
(lp844
S'app_folders'
p845
asbag68
(g89
g70
NtRp846
(dp847
g73
(dp848
g100
g101
ssg82
g837
sg75
(lp849
S':'
asbag68
(g89
g70
NtRp850
(dp851
g73
(dp852
sg82
g837
sg75
(lp853
g68
(g69
g70
NtRp854
(dp855
g73
(dp856
g81
I4
ssg82
g850
sg75
(lp857
S"set(['/home/fish/Desktop/web2py/applications/admin/', '/home/fish/Desktop/web2py/applications/welcome/', '/home/fish/Desktop/web2py/applications/vsalad/'])"
p858
asbasbasbag68
(g84
g70
NtRp859
(dp860
g73
(dp861
sg82
g833
sg75
(lp862
g68
(g89
g70
NtRp863
(dp864
g73
(dp865
g93
g94
ssg82
g859
sg75
(lp866
S'applications_parent'
p867
asbag68
(g89
g70
NtRp868
(dp869
g73
(dp870
g100
g101
ssg82
g859
sg75
(lp871
S':'
asbag68
(g89
g70
NtRp872
(dp873
g73
(dp874
sg82
g859
sg75
(lp875
g68
(g69
g70
NtRp876
(dp877
g73
(dp878
g81
I4
ssg82
g872
sg75
(lp879
S'/home/fish/Desktop/web2py'
p880
asbasbasbag68
(g84
g70
NtRp881
(dp882
g73
(dp883
sg82
g833
sg75
(lp884
g68
(g89
g70
NtRp885
(dp886
g73
(dp887
g93
g94
ssg82
g881
sg75
(lp888
S'cmd_args'
p889
asbag68
(g89
g70
NtRp890
(dp891
g73
(dp892
g100
g101
ssg82
g881
sg75
(lp893
S':'
asbag68
(g89
g70
NtRp894
(dp895
g73
(dp896
sg82
g881
sg75
(lp897
g68
(g69
g70
NtRp898
(dp899
g73
(dp900
g81
I4
ssg82
g894
sg75
(lp901
g68
(g77
g70
NtRp902
(dp903
g73
(dp904
g81
I3
ssg82
Nsg75
(lp905
sbasbasbasbag68
(g84
g70
NtRp906
(dp907
g73
(dp908
sg82
g833
sg75
(lp909
g68
(g89
g70
NtRp910
(dp911
g73
(dp912
g93
g94
ssg82
g906
sg75
(lp913
S'cmd_options'
p914
asbag68
(g89
g70
NtRp915
(dp916
g73
(dp917
g100
g101
ssg82
g906
sg75
(lp918
S':'
asbag68
(g89
g70
NtRp919
(dp920
g73
(dp921
sg82
g906
sg75
(lp922
g68
(g69
g70
NtRp923
(dp924
g73
(dp925
g81
I4
ssg82
g919
sg75
(lp926
S"<Values at 0x20375a8: {'verbose': False, 'ip': '127.0.0.1', 'shutdown_timeout': 5, 'taskbar': False, 'nocron': False, 'pid_filename': 'httpserver.pid', 'maxthreads': None, 'softcron': False, 'server_name': 'Master-Fish', 'bpython': False, 'nogui': False, 'port': 8000, 'extcron': False, 'debuglevel': 30, 'test': None, 'folder': '/home/fish/Desktop/web2py', 'config': '', 'import_models': False, 'winservice': '', 'shell': None, 'run': '', 'log_filename': 'httpserver.log', 'args': [''], 'socket_timeout': 5, 'ssl_ca_certificate': None, 'scheduler': None, 'profiler_filename': None, 'ssl_private_key': '', 'password': '<ask>', 'request_queue_size': 5, 'ssl_certificate': '', 'cronjob': False, 'numthreads': None, 'quiet': False, 'interfaces': None, 'minthreads': None, 'timeout': 10, 'plain': False, 'nobanner': False}>"
p927
asbasbasbag68
(g84
g70
NtRp928
(dp929
g73
(dp930
sg82
g833
sg75
(lp931
g68
(g89
g70
NtRp932
(dp933
g73
(dp934
g93
g94
ssg82
g928
sg75
(lp935
S'db_sessions'
p936
asbag68
(g89
g70
NtRp937
(dp938
g73
(dp939
g100
g101
ssg82
g928
sg75
(lp940
S':'
asbag68
(g89
g70
NtRp941
(dp942
g73
(dp943
sg82
g928
sg75
(lp944
g68
(g69
g70
NtRp945
(dp946
g73
(dp947
g81
I4
ssg82
g941
sg75
(lp948
S'set([])'
p949
asbasbasbag68
(g84
g70
NtRp950
(dp951
g73
(dp952
sg82
g833
sg75
(lp953
g68
(g89
g70
NtRp954
(dp955
g73
(dp956
g93
g94
ssg82
g950
sg75
(lp957
S'debugging'
p958
asbag68
(g89
g70
NtRp959
(dp960
g73
(dp961
g100
g101
ssg82
g950
sg75
(lp962
S':'
asbag68
(g89
g70
NtRp963
(dp964
g73
(dp965
sg82
g950
sg75
(lp966
g68
(g69
g70
NtRp967
(dp968
g73
(dp969
g81
I4
ssg82
g963
sg75
(lp970
S'True'
p971
asbasbasbag68
(g84
g70
NtRp972
(dp973
g73
(dp974
sg82
g833
sg75
(lp975
g68
(g89
g70
NtRp976
(dp977
g73
(dp978
g93
g94
ssg82
g972
sg75
(lp979
S'gluon_parent'
p980
asbag68
(g89
g70
NtRp981
(dp982
g73
(dp983
g100
g101
ssg82
g972
sg75
(lp984
S':'
asbag68
(g89
g70
NtRp985
(dp986
g73
(dp987
sg82
g972
sg75
(lp988
g68
(g69
g70
NtRp989
(dp990
g73
(dp991
g81
I4
ssg82
g985
sg75
(lp992
S'/home/fish/Desktop/web2py'
p993
asbasbasbag68
(g84
g70
NtRp994
(dp995
g73
(dp996
sg82
g833
sg75
(lp997
g68
(g89
g70
NtRp998
(dp999
g73
(dp1000
g93
g94
ssg82
g994
sg75
(lp1001
S'http_accept'
p1002
asbag68
(g89
g70
NtRp1003
(dp1004
g73
(dp1005
g100
g101
ssg82
g994
sg75
(lp1006
S':'
asbag68
(g89
g70
NtRp1007
(dp1008
g73
(dp1009
sg82
g994
sg75
(lp1010
g68
(g69
g70
NtRp1011
(dp1012
g73
(dp1013
g81
I4
ssg82
g1007
sg75
(lp1014
S'text/html,application/xhtml+xml,application/xml;q=0.9,*/*;q=0.8'
p1015
asbasbasbag68
(g84
g70
NtRp1016
(dp1017
g73
(dp1018
sg82
g833
sg75
(lp1019
g68
(g89
g70
NtRp1020
(dp1021
g73
(dp1022
g93
g94
ssg82
g1016
sg75
(lp1023
S'http_accept_charset'
p1024
asbag68
(g89
g70
NtRp1025
(dp1026
g73
(dp1027
g100
g101
ssg82
g1016
sg75
(lp1028
S':'
asbag68
(g89
g70
NtRp1029
(dp1030
g73
(dp1031
sg82
g1016
sg75
(lp1032
g68
(g69
g70
NtRp1033
(dp1034
g73
(dp1035
g81
I4
ssg82
g1029
sg75
(lp1036
S'ISO-8859-1,utf-8;q=0.7,*;q=0.3'
p1037
asbasbasbag68
(g84
g70
NtRp1038
(dp1039
g73
(dp1040
sg82
g833
sg75
(lp1041
g68
(g89
g70
NtRp1042
(dp1043
g73
(dp1044
g93
g94
ssg82
g1038
sg75
(lp1045
S'http_accept_encoding'
p1046
asbag68
(g89
g70
NtRp1047
(dp1048
g73
(dp1049
g100
g101
ssg82
g1038
sg75
(lp1050
S':'
asbag68
(g89
g70
NtRp1051
(dp1052
g73
(dp1053
sg82
g1038
sg75
(lp1054
g68
(g69
g70
NtRp1055
(dp1056
g73
(dp1057
g81
I4
ssg82
g1051
sg75
(lp1058
S'gzip,deflate,sdch'
p1059
asbasbasbag68
(g84
g70
NtRp1060
(dp1061
g73
(dp1062
sg82
g833
sg75
(lp1063
g68
(g89
g70
NtRp1064
(dp1065
g73
(dp1066
g93
g94
ssg82
g1060
sg75
(lp1067
S'http_accept_language'
p1068
asbag68
(g89
g70
NtRp1069
(dp1070
g73
(dp1071
g100
g101
ssg82
g1060
sg75
(lp1072
S':'
asbag68
(g89
g70
NtRp1073
(dp1074
g73
(dp1075
sg82
g1060
sg75
(lp1076
g68
(g69
g70
NtRp1077
(dp1078
g73
(dp1079
g81
I4
ssg82
g1073
sg75
(lp1080
S'en-US,en;q=0.8,fr;q=0.6'
p1081
asbasbasbag68
(g84
g70
NtRp1082
(dp1083
g73
(dp1084
sg82
g833
sg75
(lp1085
g68
(g89
g70
NtRp1086
(dp1087
g73
(dp1088
g93
g94
ssg82
g1082
sg75
(lp1089
S'http_cache_control'
p1090
asbag68
(g89
g70
NtRp1091
(dp1092
g73
(dp1093
g100
g101
ssg82
g1082
sg75
(lp1094
S':'
asbag68
(g89
g70
NtRp1095
(dp1096
g73
(dp1097
sg82
g1082
sg75
(lp1098
g68
(g69
g70
NtRp1099
(dp1100
g73
(dp1101
g81
I4
ssg82
g1095
sg75
(lp1102
S'max-age=0'
p1103
asbasbasbag68
(g84
g70
NtRp1104
(dp1105
g73
(dp1106
sg82
g833
sg75
(lp1107
g68
(g89
g70
NtRp1108
(dp1109
g73
(dp1110
g93
g94
ssg82
g1104
sg75
(lp1111
S'http_connection'
p1112
asbag68
(g89
g70
NtRp1113
(dp1114
g73
(dp1115
g100
g101
ssg82
g1104
sg75
(lp1116
S':'
asbag68
(g89
g70
NtRp1117
(dp1118
g73
(dp1119
sg82
g1104
sg75
(lp1120
g68
(g69
g70
NtRp1121
(dp1122
g73
(dp1123
g81
I4
ssg82
g1117
sg75
(lp1124
S'keep-alive'
p1125
asbasbasbag68
(g84
g70
NtRp1126
(dp1127
g73
(dp1128
sg82
g833
sg75
(lp1129
g68
(g89
g70
NtRp1130
(dp1131
g73
(dp1132
g93
g94
ssg82
g1126
sg75
(lp1133
S'http_cookie'
p1134
asbag68
(g89
g70
NtRp1135
(dp1136
g73
(dp1137
g100
g101
ssg82
g1126
sg75
(lp1138
S':'
asbag68
(g89
g70
NtRp1139
(dp1140
g73
(dp1141
sg82
g1126
sg75
(lp1142
g68
(g69
g70
NtRp1143
(dp1144
g73
(dp1145
g81
I4
ssg82
g1139
sg75
(lp1146
S'session_id_welcome=127.0.0.1-58a1de35-06e9-4f78-871a-bb07c5d631a0; session_id_vsalad=127.0.0.1-2c8bc372-15d9-4129-88dc-7330dc5101a2; session_id_admin=127.0.0.1-5e1e78e7-16be-44ef-bb9c-a2506e199775'
p1147
asbasbasbag68
(g84
g70
NtRp1148
(dp1149
g73
(dp1150
sg82
g833
sg75
(lp1151
g68
(g89
g70
NtRp1152
(dp1153
g73
(dp1154
g93
g94
ssg82
g1148
sg75
(lp1155
S'http_host'
p1156
asbag68
(g89
g70
NtRp1157
(dp1158
g73
(dp1159
g100
g101
ssg82
g1148
sg75
(lp1160
S':'
asbag68
(g89
g70
NtRp1161
(dp1162
g73
(dp1163
sg82
g1148
sg75
(lp1164
g68
(g69
g70
NtRp1165
(dp1166
g73
(dp1167
g81
I4
ssg82
g1161
sg75
(lp1168
S'127.0.0.1:8000'
p1169
asbasbasbag68
(g84
g70
NtRp1170
(dp1171
g73
(dp1172
sg82
g833
sg75
(lp1173
g68
(g89
g70
NtRp1174
(dp1175
g73
(dp1176
g93
g94
ssg82
g1170
sg75
(lp1177
S'http_user_agent'
p1178
asbag68
(g89
g70
NtRp1179
(dp1180
g73
(dp1181
g100
g101
ssg82
g1170
sg75
(lp1182
S':'
asbag68
(g89
g70
NtRp1183
(dp1184
g73
(dp1185
sg82
g1170
sg75
(lp1186
g68
(g69
g70
NtRp1187
(dp1188
g73
(dp1189
g81
I4
ssg82
g1183
sg75
(lp1190
S'Mozilla/5.0 (X11; Linux x86_64) AppleWebKit/535.19 (KHTML, like Gecko) Chrome/18.0.1025.151 Safari/535.19'
p1191
asbasbasbag68
(g84
g70
NtRp1192
(dp1193
g73
(dp1194
sg82
g833
sg75
(lp1195
g68
(g89
g70
NtRp1196
(dp1197
g73
(dp1198
g93
g94
ssg82
g1192
sg75
(lp1199
S'is_jython'
p1200
asbag68
(g89
g70
NtRp1201
(dp1202
g73
(dp1203
g100
g101
ssg82
g1192
sg75
(lp1204
S':'
asbag68
(g89
g70
NtRp1205
(dp1206
g73
(dp1207
sg82
g1192
sg75
(lp1208
g68
(g69
g70
NtRp1209
(dp1210
g73
(dp1211
g81
I4
ssg82
g1205
sg75
(lp1212
g111
asbasbasbag68
(g84
g70
NtRp1213
(dp1214
g73
(dp1215
sg82
g833
sg75
(lp1216
g68
(g89
g70
NtRp1217
(dp1218
g73
(dp1219
g93
g94
ssg82
g1213
sg75
(lp1220
S'is_pypy'
p1221
asbag68
(g89
g70
NtRp1222
(dp1223
g73
(dp1224
g100
g101
ssg82
g1213
sg75
(lp1225
S':'
asbag68
(g89
g70
NtRp1226
(dp1227
g73
(dp1228
sg82
g1213
sg75
(lp1229
g68
(g69
g70
NtRp1230
(dp1231
g73
(dp1232
g81
I4
ssg82
g1226
sg75
(lp1233
g111
asbasbasbag68
(g84
g70
NtRp1234
(dp1235
g73
(dp1236
sg82
g833
sg75
(lp1237
g68
(g89
g70
NtRp1238
(dp1239
g73
(dp1240
g93
g94
ssg82
g1234
sg75
(lp1241
S'path_info'
p1242
asbag68
(g89
g70
NtRp1243
(dp1244
g73
(dp1245
g100
g101
ssg82
g1234
sg75
(lp1246
S':'
asbag68
(g89
g70
NtRp1247
(dp1248
g73
(dp1249
sg82
g1234
sg75
(lp1250
g68
(g69
g70
NtRp1251
(dp1252
g73
(dp1253
g81
I4
ssg82
g1247
sg75
(lp1254
S'/vsalad/action/comments'
p1255
asbasbasbag68
(g84
g70
NtRp1256
(dp1257
g73
(dp1258
sg82
g833
sg75
(lp1259
g68
(g89
g70
NtRp1260
(dp1261
g73
(dp1262
g93
g94
ssg82
g1256
sg75
(lp1263
S'query_string'
p1264
asbag68
(g89
g70
NtRp1265
(dp1266
g73
(dp1267
g100
g101
ssg82
g1256
sg75
(lp1268
S':'
asbag68
(g89
g70
NtRp1269
(dp1270
g73
(dp1271
sg82
g1256
sg75
(lp1272
g68
(g69
g70
NtRp1273
(dp1274
g73
(dp1275
g81
I4
ssg82
g1269
sg75
(lp1276
S''
asbasbasbag68
(g84
g70
NtRp1277
(dp1278
g73
(dp1279
sg82
g833
sg75
(lp1280
g68
(g89
g70
NtRp1281
(dp1282
g73
(dp1283
g93
g94
ssg82
g1277
sg75
(lp1284
S'remote_addr'
p1285
asbag68
(g89
g70
NtRp1286
(dp1287
g73
(dp1288
g100
g101
ssg82
g1277
sg75
(lp1289
S':'
asbag68
(g89
g70
NtRp1290
(dp1291
g73
(dp1292
sg82
g1277
sg75
(lp1293
g68
(g69
g70
NtRp1294
(dp1295
g73
(dp1296
g81
I4
ssg82
g1290
sg75
(lp1297
g201
asbasbasbag68
(g84
g70
NtRp1298
(dp1299
g73
(dp1300
sg82
g833
sg75
(lp1301
g68
(g89
g70
NtRp1302
(dp1303
g73
(dp1304
g93
g94
ssg82
g1298
sg75
(lp1305
S'remote_port'
p1306
asbag68
(g89
g70
NtRp1307
(dp1308
g73
(dp1309
g100
g101
ssg82
g1298
sg75
(lp1310
S':'
asbag68
(g89
g70
NtRp1311
(dp1312
g73
(dp1313
sg82
g1298
sg75
(lp1314
g68
(g69
g70
NtRp1315
(dp1316
g73
(dp1317
g81
I4
ssg82
g1311
sg75
(lp1318
S'45045'
p1319
asbasbasbag68
(g84
g70
NtRp1320
(dp1321
g73
(dp1322
sg82
g833
sg75
(lp1323
g68
(g89
g70
NtRp1324
(dp1325
g73
(dp1326
g93
g94
ssg82
g1320
sg75
(lp1327
S'request_method'
p1328
asbag68
(g89
g70
NtRp1329
(dp1330
g73
(dp1331
g100
g101
ssg82
g1320
sg75
(lp1332
S':'
asbag68
(g89
g70
NtRp1333
(dp1334
g73
(dp1335
sg82
g1320
sg75
(lp1336
g68
(g69
g70
NtRp1337
(dp1338
g73
(dp1339
g81
I4
ssg82
g1333
sg75
(lp1340
S'GET'
p1341
asbasbasbag68
(g84
g70
NtRp1342
(dp1343
g73
(dp1344
sg82
g833
sg75
(lp1345
g68
(g89
g70
NtRp1346
(dp1347
g73
(dp1348
g93
g94
ssg82
g1342
sg75
(lp1349
S'script_name'
p1350
asbag68
(g89
g70
NtRp1351
(dp1352
g73
(dp1353
g100
g101
ssg82
g1342
sg75
(lp1354
S':'
asbag68
(g89
g70
NtRp1355
(dp1356
g73
(dp1357
sg82
g1342
sg75
(lp1358
g68
(g69
g70
NtRp1359
(dp1360
g73
(dp1361
g81
I4
ssg82
g1355
sg75
(lp1362
S''
asbasbasbag68
(g84
g70
NtRp1363
(dp1364
g73
(dp1365
sg82
g833
sg75
(lp1366
g68
(g89
g70
NtRp1367
(dp1368
g73
(dp1369
g93
g94
ssg82
g1363
sg75
(lp1370
S'server_name'
p1371
asbag68
(g89
g70
NtRp1372
(dp1373
g73
(dp1374
g100
g101
ssg82
g1363
sg75
(lp1375
S':'
asbag68
(g89
g70
NtRp1376
(dp1377
g73
(dp1378
sg82
g1363
sg75
(lp1379
g68
(g69
g70
NtRp1380
(dp1381
g73
(dp1382
g81
I4
ssg82
g1376
sg75
(lp1383
S'Master-Fish'
p1384
asbasbasbag68
(g84
g70
NtRp1385
(dp1386
g73
(dp1387
sg82
g833
sg75
(lp1388
g68
(g89
g70
NtRp1389
(dp1390
g73
(dp1391
g93
g94
ssg82
g1385
sg75
(lp1392
S'server_port'
p1393
asbag68
(g89
g70
NtRp1394
(dp1395
g73
(dp1396
g100
g101
ssg82
g1385
sg75
(lp1397
S':'
asbag68
(g89
g70
NtRp1398
(dp1399
g73
(dp1400
sg82
g1385
sg75
(lp1401
g68
(g69
g70
NtRp1402
(dp1403
g73
(dp1404
g81
I4
ssg82
g1398
sg75
(lp1405
S'8000'
p1406
asbasbasbag68
(g84
g70
NtRp1407
(dp1408
g73
(dp1409
sg82
g833
sg75
(lp1410
g68
(g89
g70
NtRp1411
(dp1412
g73
(dp1413
g93
g94
ssg82
g1407
sg75
(lp1414
S'server_protocol'
p1415
asbag68
(g89
g70
NtRp1416
(dp1417
g73
(dp1418
g100
g101
ssg82
g1407
sg75
(lp1419
S':'
asbag68
(g89
g70
NtRp1420
(dp1421
g73
(dp1422
sg82
g1407
sg75
(lp1423
g68
(g69
g70
NtRp1424
(dp1425
g73
(dp1426
g81
I4
ssg82
g1420
sg75
(lp1427
S'HTTP/1.1'
p1428
asbasbasbag68
(g84
g70
NtRp1429
(dp1430
g73
(dp1431
sg82
g833
sg75
(lp1432
g68
(g89
g70
NtRp1433
(dp1434
g73
(dp1435
g93
g94
ssg82
g1429
sg75
(lp1436
S'server_software'
p1437
asbag68
(g89
g70
NtRp1438
(dp1439
g73
(dp1440
g100
g101
ssg82
g1429
sg75
(lp1441
S':'
asbag68
(g89
g70
NtRp1442
(dp1443
g73
(dp1444
sg82
g1429
sg75
(lp1445
g68
(g69
g70
NtRp1446
(dp1447
g73
(dp1448
g81
I4
ssg82
g1442
sg75
(lp1449
S'Rocket 1.2.4'
p1450
asbasbasbag68
(g84
g70
NtRp1451
(dp1452
g73
(dp1453
sg82
g833
sg75
(lp1454
g68
(g89
g70
NtRp1455
(dp1456
g73
(dp1457
g93
g94
ssg82
g1451
sg75
(lp1458
S'web2py_crontype'
p1459
asbag68
(g89
g70
NtRp1460
(dp1461
g73
(dp1462
g100
g101
ssg82
g1451
sg75
(lp1463
S':'
asbag68
(g89
g70
NtRp1464
(dp1465
g73
(dp1466
sg82
g1451
sg75
(lp1467
g68
(g69
g70
NtRp1468
(dp1469
g73
(dp1470
g81
I4
ssg82
g1464
sg75
(lp1471
S'hard'
p1472
asbasbasbag68
(g84
g70
NtRp1473
(dp1474
g73
(dp1475
sg82
g833
sg75
(lp1476
g68
(g89
g70
NtRp1477
(dp1478
g73
(dp1479
g93
g94
ssg82
g1473
sg75
(lp1480
S'web2py_path'
p1481
asbag68
(g89
g70
NtRp1482
(dp1483
g73
(dp1484
g100
g101
ssg82
g1473
sg75
(lp1485
S':'
asbag68
(g89
g70
NtRp1486
(dp1487
g73
(dp1488
sg82
g1473
sg75
(lp1489
g68
(g69
g70
NtRp1490
(dp1491
g73
(dp1492
g81
I4
ssg82
g1486
sg75
(lp1493
g880
asbasbasbag68
(g84
g70
NtRp1494
(dp1495
g73
(dp1496
sg82
g833
sg75
(lp1497
g68
(g89
g70
NtRp1498
(dp1499
g73
(dp1500
g93
g94
ssg82
g1494
sg75
(lp1501
S'web2py_version'
p1502
asbag68
(g89
g70
NtRp1503
(dp1504
g73
(dp1505
g100
g101
ssg82
g1494
sg75
(lp1506
S':'
asbag68
(g89
g70
NtRp1507
(dp1508
g73
(dp1509
sg82
g1494
sg75
(lp1510
g68
(g69
g70
NtRp1511
(dp1512
g73
(dp1513
g81
I4
ssg82
g1507
sg75
(lp1514
g68
(g77
g70
NtRp1515
(dp1516
g73
(dp1517
g81
I3
ssg82
Nsg75
(lp1518
g68
(g84
g70
NtRp1519
(dp1520
g73
(dp1521
sg82
g1515
sg75
(lp1522
g68
(g89
g70
NtRp1523
(dp1524
g73
(dp1525
sg82
g1519
sg75
(lp1526
g68
(g69
g70
NtRp1527
(dp1528
g73
(dp1529
g81
I3
ssg82
g1523
sg75
(lp1530
S'1'
asbasbasbag68
(g84
g70
NtRp1531
(dp1532
g73
(dp1533
sg82
g1515
sg75
(lp1534
g68
(g89
g70
NtRp1535
(dp1536
g73
(dp1537
sg82
g1531
sg75
(lp1538
g68
(g69
g70
NtRp1539
(dp1540
g73
(dp1541
g81
I3
ssg82
g1535
sg75
(lp1542
S'99'
p1543
asbasbasbag68
(g84
g70
NtRp1544
(dp1545
g73
(dp1546
sg82
g1515
sg75
(lp1547
g68
(g89
g70
NtRp1548
(dp1549
g73
(dp1550
sg82
g1544
sg75
(lp1551
g68
(g69
g70
NtRp1552
(dp1553
g73
(dp1554
g81
I3
ssg82
g1548
sg75
(lp1555
S'7'
asbasbasbag68
(g84
g70
NtRp1556
(dp1557
g73
(dp1558
sg82
g1515
sg75
(lp1559
g68
(g89
g70
NtRp1560
(dp1561
g73
(dp1562
sg82
g1556
sg75
(lp1563
g68
(g69
g70
NtRp1564
(dp1565
g73
(dp1566
g81
I3
ssg82
g1560
sg75
(lp1567
S'datetime.datetime(2012, 3, 4, 22, 12, 8)'
p1568
asbasbasbag68
(g84
g70
NtRp1569
(dp1570
g73
(dp1571
sg82
g1515
sg75
(lp1572
g68
(g89
g70
NtRp1573
(dp1574
g73
(dp1575
sg82
g1569
sg75
(lp1576
g68
(g69
g70
NtRp1577
(dp1578
g73
(dp1579
g81
I3
ssg82
g1573
sg75
(lp1580
S'stable'
p1581
asbasbasbasbasbasbasbag68
(g84
g70
NtRp1582
(dp1583
g73
(dp1584
sg82
g833
sg75
(lp1585
g68
(g89
g70
NtRp1586
(dp1587
g73
(dp1588
g93
g94
ssg82
g1582
sg75
(lp1589
S'wsgi_errors'
p1590
asbag68
(g89
g70
NtRp1591
(dp1592
g73
(dp1593
g100
g101
ssg82
g1582
sg75
(lp1594
S':'
asbag68
(g89
g70
NtRp1595
(dp1596
g73
(dp1597
sg82
g1582
sg75
(lp1598
g68
(g69
g70
NtRp1599
(dp1600
g73
(dp1601
g81
I4
ssg82
g1595
sg75
(lp1602
S"<open file '<stderr>', mode 'w' at 0x7ff96880b270>"
p1603
asbasbasbag68
(g84
g70
NtRp1604
(dp1605
g73
(dp1606
sg82
g833
sg75
(lp1607
g68
(g89
g70
NtRp1608
(dp1609
g73
(dp1610
g93
g94
ssg82
g1604
sg75
(lp1611
S'wsgi_file_wrapper'
p1612
asbag68
(g89
g70
NtRp1613
(dp1614
g73
(dp1615
g100
g101
ssg82
g1604
sg75
(lp1616
S':'
asbag68
(g89
g70
NtRp1617
(dp1618
g73
(dp1619
sg82
g1604
sg75
(lp1620
g68
(g69
g70
NtRp1621
(dp1622
g73
(dp1623
g81
I4
ssg82
g1617
sg75
(lp1624
S'<class wsgiref.util.FileWrapper at 0x1f13870>'
p1625
asbasbasbag68
(g84
g70
NtRp1626
(dp1627
g73
(dp1628
sg82
g833
sg75
(lp1629
g68
(g89
g70
NtRp1630
(dp1631
g73
(dp1632
g93
g94
ssg82
g1626
sg75
(lp1633
S'wsgi_input'
p1634
asbag68
(g89
g70
NtRp1635
(dp1636
g73
(dp1637
g100
g101
ssg82
g1626
sg75
(lp1638
S':'
asbag68
(g89
g70
NtRp1639
(dp1640
g73
(dp1641
sg82
g1626
sg75
(lp1642
g68
(g69
g70
NtRp1643
(dp1644
g73
(dp1645
g81
I4
ssg82
g1639
sg75
(lp1646
S'<socket._fileobject object at 0x266b7d0>'
p1647
asbasbasbag68
(g84
g70
NtRp1648
(dp1649
g73
(dp1650
sg82
g833
sg75
(lp1651
g68
(g89
g70
NtRp1652
(dp1653
g73
(dp1654
g93
g94
ssg82
g1648
sg75
(lp1655
S'wsgi_multiprocess'
p1656
asbag68
(g89
g70
NtRp1657
(dp1658
g73
(dp1659
g100
g101
ssg82
g1648
sg75
(lp1660
S':'
asbag68
(g89
g70
NtRp1661
(dp1662
g73
(dp1663
sg82
g1648
sg75
(lp1664
g68
(g69
g70
NtRp1665
(dp1666
g73
(dp1667
g81
I4
ssg82
g1661
sg75
(lp1668
g111
asbasbasbag68
(g84
g70
NtRp1669
(dp1670
g73
(dp1671
sg82
g833
sg75
(lp1672
g68
(g89
g70
NtRp1673
(dp1674
g73
(dp1675
g93
g94
ssg82
g1669
sg75
(lp1676
S'wsgi_multithread'
p1677
asbag68
(g89
g70
NtRp1678
(dp1679
g73
(dp1680
g100
g101
ssg82
g1669
sg75
(lp1681
S':'
asbag68
(g89
g70
NtRp1682
(dp1683
g73
(dp1684
sg82
g1669
sg75
(lp1685
g68
(g69
g70
NtRp1686
(dp1687
g73
(dp1688
g81
I4
ssg82
g1682
sg75
(lp1689
g971
asbasbasbag68
(g84
g70
NtRp1690
(dp1691
g73
(dp1692
sg82
g833
sg75
(lp1693
g68
(g89
g70
NtRp1694
(dp1695
g73
(dp1696
g93
g94
ssg82
g1690
sg75
(lp1697
S'wsgi_run_once'
p1698
asbag68
(g89
g70
NtRp1699
(dp1700
g73
(dp1701
g100
g101
ssg82
g1690
sg75
(lp1702
S':'
asbag68
(g89
g70
NtRp1703
(dp1704
g73
(dp1705
sg82
g1690
sg75
(lp1706
g68
(g69
g70
NtRp1707
(dp1708
g73
(dp1709
g81
I4
ssg82
g1703
sg75
(lp1710
g111
asbasbasbag68
(g84
g70
NtRp1711
(dp1712
g73
(dp1713
sg82
g833
sg75
(lp1714
g68
(g89
g70
NtRp1715
(dp1716
g73
(dp1717
g93
g94
ssg82
g1711
sg75
(lp1718
S'wsgi_url_scheme'
p1719
asbag68
(g89
g70
NtRp1720
(dp1721
g73
(dp1722
g100
g101
ssg82
g1711
sg75
(lp1723
S':'
asbag68
(g89
g70
NtRp1724
(dp1725
g73
(dp1726
sg82
g1711
sg75
(lp1727
g68
(g69
g70
NtRp1728
(dp1729
g73
(dp1730
g81
I4
ssg82
g1724
sg75
(lp1731
S'http'
p1732
asbasbasbag68
(g84
g70
NtRp1733
(dp1734
g73
(dp1735
sg82
g833
sg75
(lp1736
g68
(g89
g70
NtRp1737
(dp1738
g73
(dp1739
g93
g94
ssg82
g1733
sg75
(lp1740
S'wsgi_version'
p1741
asbag68
(g89
g70
NtRp1742
(dp1743
g73
(dp1744
g100
g101
ssg82
g1733
sg75
(lp1745
S':'
asbag68
(g89
g70
NtRp1746
(dp1747
g73
(dp1748
sg82
g1733
sg75
(lp1749
g68
(g69
g70
NtRp1750
(dp1751
g73
(dp1752
g81
I4
ssg82
g1746
sg75
(lp1753
g68
(g77
g70
NtRp1754
(dp1755
g73
(dp1756
g81
I3
ssg82
Nsg75
(lp1757
g68
(g84
g70
NtRp1758
(dp1759
g73
(dp1760
sg82
g1754
sg75
(lp1761
g68
(g89
g70
NtRp1762
(dp1763
g73
(dp1764
sg82
g1758
sg75
(lp1765
g68
(g69
g70
NtRp1766
(dp1767
g73
(dp1768
g81
I3
ssg82
g1762
sg75
(lp1769
S'1'
asbasbasbag68
(g84
g70
NtRp1770
(dp1771
g73
(dp1772
sg82
g1754
sg75
(lp1773
g68
(g89
g70
NtRp1774
(dp1775
g73
(dp1776
sg82
g1770
sg75
(lp1777
g68
(g69
g70
NtRp1778
(dp1779
g73
(dp1780
g81
I3
ssg82
g1774
sg75
(lp1781
S'0'
asbasbasbasbasbasbasbasbasbasbasbag68
(g84
g70
NtRp1782
(dp1783
g73
(dp1784
sg82
g78
sg75
(lp1785
g68
(g89
g70
NtRp1786
(dp1787
g73
(dp1788
g93
g94
ssg82
g1782
sg75
(lp1789
S'extension'
p1790
asbag68
(g89
g70
NtRp1791
(dp1792
g73
(dp1793
g100
g101
ssg82
g1782
sg75
(lp1794
S':'
asbag68
(g89
g70
NtRp1795
(dp1796
g73
(dp1797
sg82
g1782
sg75
(lp1798
g68
(g69
g70
NtRp1799
(dp1800
g73
(dp1801
g81
I5
ssg82
g1795
sg75
(lp1802
S'html'
p1803
asbasbasbag68
(g84
g70
NtRp1804
(dp1805
g73
(dp1806
sg82
g78
sg75
(lp1807
g68
(g89
g70
NtRp1808
(dp1809
g73
(dp1810
g93
g94
ssg82
g1804
sg75
(lp1811
S'folder'
p1812
asbag68
(g89
g70
NtRp1813
(dp1814
g73
(dp1815
g100
g101
ssg82
g1804
sg75
(lp1816
S':'
asbag68
(g89
g70
NtRp1817
(dp1818
g73
(dp1819
sg82
g1804
sg75
(lp1820
g68
(g69
g70
NtRp1821
(dp1822
g73
(dp1823
g81
I5
ssg82
g1817
sg75
(lp1824
S'/home/fish/Desktop/web2py/applications/vsalad/'
p1825
asbasbasbag68
(g84
g70
NtRp1826
(dp1827
g73
(dp1828
sg82
g78
sg75
(lp1829
g68
(g89
g70
NtRp1830
(dp1831
g73
(dp1832
g93
g94
ssg82
g1826
sg75
(lp1833
S'function'
p1834
asbag68
(g89
g70
NtRp1835
(dp1836
g73
(dp1837
g100
g101
ssg82
g1826
sg75
(lp1838
S':'
asbag68
(g89
g70
NtRp1839
(dp1840
g73
(dp1841
sg82
g1826
sg75
(lp1842
g68
(g69
g70
NtRp1843
(dp1844
g73
(dp1845
g81
I5
ssg82
g1839
sg75
(lp1846
S'comments'
p1847
asbasbasbag68
(g84
g70
NtRp1848
(dp1849
g73
(dp1850
sg82
g78
sg75
(lp1851
g68
(g89
g70
NtRp1852
(dp1853
g73
(dp1854
g93
g94
ssg82
g1848
sg75
(lp1855
S'get_vars'
p1856
asbag68
(g89
g70
NtRp1857
(dp1858
g73
(dp1859
g100
g101
ssg82
g1848
sg75
(lp1860
S':'
asbag68
(g89
g70
NtRp1861
(dp1862
g73
(dp1863
sg82
g1848
sg75
(lp1864
g68
(g69
g70
NtRp1865
(dp1866
g73
(dp1867
g81
I5
ssg82
g1861
sg75
(lp1868
g68
(g77
g70
NtRp1869
(dp1870
g73
(dp1871
g81
I4
ssg82
Nsg75
(lp1872
sbasbasbasbag68
(g84
g70
NtRp1873
(dp1874
g73
(dp1875
sg82
g78
sg75
(lp1876
g68
(g89
g70
NtRp1877
(dp1878
g73
(dp1879
g93
g94
ssg82
g1873
sg75
(lp1880
S'global_settings'
p1881
asbag68
(g89
g70
NtRp1882
(dp1883
g73
(dp1884
g100
g101
ssg82
g1873
sg75
(lp1885
S':'
asbag68
(g89
g70
NtRp1886
(dp1887
g73
(dp1888
sg82
g1873
sg75
(lp1889
g68
(g69
g70
NtRp1890
(dp1891
g73
(dp1892
g81
I5
ssg82
g1886
sg75
(lp1893
g68
(g77
g70
NtRp1894
(dp1895
g73
(dp1896
g81
I4
ssg82
Nsg75
(lp1897
g68
(g84
g70
NtRp1898
(dp1899
g73
(dp1900
sg82
g1894
sg75
(lp1901
g68
(g89
g70
NtRp1902
(dp1903
g73
(dp1904
g93
g94
ssg82
g1898
sg75
(lp1905
g845
asbag68
(g89
g70
NtRp1906
(dp1907
g73
(dp1908
g100
g101
ssg82
g1898
sg75
(lp1909
S':'
asbag68
(g89
g70
NtRp1910
(dp1911
g73
(dp1912
sg82
g1898
sg75
(lp1913
g68
(g69
g70
NtRp1914
(dp1915
g73
(dp1916
g81
I4
ssg82
g1910
sg75
(lp1917
S"set(['/home/fish/Desktop/web2py/applications/admin/', '/home/fish/Desktop/web2py/applications/welcome/', '/home/fish/Desktop/web2py/applications/vsalad/'])"
p1918
asbasbasbag68
(g84
g70
NtRp1919
(dp1920
g73
(dp1921
sg82
g1894
sg75
(lp1922
g68
(g89
g70
NtRp1923
(dp1924
g73
(dp1925
g93
g94
ssg82
g1919
sg75
(lp1926
g867
asbag68
(g89
g70
NtRp1927
(dp1928
g73
(dp1929
g100
g101
ssg82
g1919
sg75
(lp1930
S':'
asbag68
(g89
g70
NtRp1931
(dp1932
g73
(dp1933
sg82
g1919
sg75
(lp1934
g68
(g69
g70
NtRp1935
(dp1936
g73
(dp1937
g81
I4
ssg82
g1931
sg75
(lp1938
g880
asbasbasbag68
(g84
g70
NtRp1939
(dp1940
g73
(dp1941
sg82
g1894
sg75
(lp1942
g68
(g89
g70
NtRp1943
(dp1944
g73
(dp1945
g93
g94
ssg82
g1939
sg75
(lp1946
g889
asbag68
(g89
g70
NtRp1947
(dp1948
g73
(dp1949
g100
g101
ssg82
g1939
sg75
(lp1950
S':'
asbag68
(g89
g70
NtRp1951
(dp1952
g73
(dp1953
sg82
g1939
sg75
(lp1954
g68
(g69
g70
NtRp1955
(dp1956
g73
(dp1957
g81
I4
ssg82
g1951
sg75
(lp1958
g68
(g77
g70
NtRp1959
(dp1960
g73
(dp1961
g81
I3
ssg82
Nsg75
(lp1962
sbasbasbasbag68
(g84
g70
NtRp1963
(dp1964
g73
(dp1965
sg82
g1894
sg75
(lp1966
g68
(g89
g70
NtRp1967
(dp1968
g73
(dp1969
g93
g94
ssg82
g1963
sg75
(lp1970
g914
asbag68
(g89
g70
NtRp1971
(dp1972
g73
(dp1973
g100
g101
ssg82
g1963
sg75
(lp1974
S':'
asbag68
(g89
g70
NtRp1975
(dp1976
g73
(dp1977
sg82
g1963
sg75
(lp1978
g68
(g69
g70
NtRp1979
(dp1980
g73
(dp1981
g81
I4
ssg82
g1975
sg75
(lp1982
S"<Values at 0x20375a8: {'verbose': False, 'ip': '127.0.0.1', 'shutdown_timeout': 5, 'taskbar': False, 'nocron': False, 'pid_filename': 'httpserver.pid', 'maxthreads': None, 'softcron': False, 'server_name': 'Master-Fish', 'bpython': False, 'nogui': False, 'port': 8000, 'extcron': False, 'debuglevel': 30, 'test': None, 'folder': '/home/fish/Desktop/web2py', 'config': '', 'import_models': False, 'winservice': '', 'shell': None, 'run': '', 'log_filename': 'httpserver.log', 'args': [''], 'socket_timeout': 5, 'ssl_ca_certificate': None, 'scheduler': None, 'profiler_filename': None, 'ssl_private_key': '', 'password': '<ask>', 'request_queue_size': 5, 'ssl_certificate': '', 'cronjob': False, 'numthreads': None, 'quiet': False, 'interfaces': None, 'minthreads': None, 'timeout': 10, 'plain': False, 'nobanner': False}>"
p1983
asbasbasbag68
(g84
g70
NtRp1984
(dp1985
g73
(dp1986
sg82
g1894
sg75
(lp1987
g68
(g89
g70
NtRp1988
(dp1989
g73
(dp1990
g93
g94
ssg82
g1984
sg75
(lp1991
g936
asbag68
(g89
g70
NtRp1992
(dp1993
g73
(dp1994
g100
g101
ssg82
g1984
sg75
(lp1995
S':'
asbag68
(g89
g70
NtRp1996
(dp1997
g73
(dp1998
sg82
g1984
sg75
(lp1999
g68
(g69
g70
NtRp2000
(dp2001
g73
(dp2002
g81
I4
ssg82
g1996
sg75
(lp2003
S'set([])'
p2004
asbasbasbag68
(g84
g70
NtRp2005
(dp2006
g73
(dp2007
sg82
g1894
sg75
(lp2008
g68
(g89
g70
NtRp2009
(dp2010
g73
(dp2011
g93
g94
ssg82
g2005
sg75
(lp2012
g958
asbag68
(g89
g70
NtRp2013
(dp2014
g73
(dp2015
g100
g101
ssg82
g2005
sg75
(lp2016
S':'
asbag68
(g89
g70
NtRp2017
(dp2018
g73
(dp2019
sg82
g2005
sg75
(lp2020
g68
(g69
g70
NtRp2021
(dp2022
g73
(dp2023
g81
I4
ssg82
g2017
sg75
(lp2024
g971
asbasbasbag68
(g84
g70
NtRp2025
(dp2026
g73
(dp2027
sg82
g1894
sg75
(lp2028
g68
(g89
g70
NtRp2029
(dp2030
g73
(dp2031
g93
g94
ssg82
g2025
sg75
(lp2032
g980
asbag68
(g89
g70
NtRp2033
(dp2034
g73
(dp2035
g100
g101
ssg82
g2025
sg75
(lp2036
S':'
asbag68
(g89
g70
NtRp2037
(dp2038
g73
(dp2039
sg82
g2025
sg75
(lp2040
g68
(g69
g70
NtRp2041
(dp2042
g73
(dp2043
g81
I4
ssg82
g2037
sg75
(lp2044
g993
asbasbasbag68
(g84
g70
NtRp2045
(dp2046
g73
(dp2047
sg82
g1894
sg75
(lp2048
g68
(g89
g70
NtRp2049
(dp2050
g73
(dp2051
g93
g94
ssg82
g2045
sg75
(lp2052
g1200
asbag68
(g89
g70
NtRp2053
(dp2054
g73
(dp2055
g100
g101
ssg82
g2045
sg75
(lp2056
S':'
asbag68
(g89
g70
NtRp2057
(dp2058
g73
(dp2059
sg82
g2045
sg75
(lp2060
g68
(g69
g70
NtRp2061
(dp2062
g73
(dp2063
g81
I4
ssg82
g2057
sg75
(lp2064
g111
asbasbasbag68
(g84
g70
NtRp2065
(dp2066
g73
(dp2067
sg82
g1894
sg75
(lp2068
g68
(g89
g70
NtRp2069
(dp2070
g73
(dp2071
g93
g94
ssg82
g2065
sg75
(lp2072
g1221
asbag68
(g89
g70
NtRp2073
(dp2074
g73
(dp2075
g100
g101
ssg82
g2065
sg75
(lp2076
S':'
asbag68
(g89
g70
NtRp2077
(dp2078
g73
(dp2079
sg82
g2065
sg75
(lp2080
g68
(g69
g70
NtRp2081
(dp2082
g73
(dp2083
g81
I4
ssg82
g2077
sg75
(lp2084
g111
asbasbasbag68
(g84
g70
NtRp2085
(dp2086
g73
(dp2087
sg82
g1894
sg75
(lp2088
g68
(g89
g70
NtRp2089
(dp2090
g73
(dp2091
g93
g94
ssg82
g2085
sg75
(lp2092
g1459
asbag68
(g89
g70
NtRp2093
(dp2094
g73
(dp2095
g100
g101
ssg82
g2085
sg75
(lp2096
S':'
asbag68
(g89
g70
NtRp2097
(dp2098
g73
(dp2099
sg82
g2085
sg75
(lp2100
g68
(g69
g70
NtRp2101
(dp2102
g73
(dp2103
g81
I4
ssg82
g2097
sg75
(lp2104
g1472
asbasbasbag68
(g84
g70
NtRp2105
(dp2106
g73
(dp2107
sg82
g1894
sg75
(lp2108
g68
(g89
g70
NtRp2109
(dp2110
g73
(dp2111
g93
g94
ssg82
g2105
sg75
(lp2112
g1502
asbag68
(g89
g70
NtRp2113
(dp2114
g73
(dp2115
g100
g101
ssg82
g2105
sg75
(lp2116
S':'
asbag68
(g89
g70
NtRp2117
(dp2118
g73
(dp2119
sg82
g2105
sg75
(lp2120
g68
(g69
g70
NtRp2121
(dp2122
g73
(dp2123
g81
I4
ssg82
g2117
sg75
(lp2124
g68
(g77
g70
NtRp2125
(dp2126
g73
(dp2127
g81
I3
ssg82
Nsg75
(lp2128
g68
(g84
g70
NtRp2129
(dp2130
g73
(dp2131
sg82
g2125
sg75
(lp2132
g68
(g89
g70
NtRp2133
(dp2134
g73
(dp2135
sg82
g2129
sg75
(lp2136
g68
(g69
g70
NtRp2137
(dp2138
g73
(dp2139
g81
I3
ssg82
g2133
sg75
(lp2140
S'1'
asbasbasbag68
(g84
g70
NtRp2141
(dp2142
g73
(dp2143
sg82
g2125
sg75
(lp2144
g68
(g89
g70
NtRp2145
(dp2146
g73
(dp2147
sg82
g2141
sg75
(lp2148
g68
(g69
g70
NtRp2149
(dp2150
g73
(dp2151
g81
I3
ssg82
g2145
sg75
(lp2152
S'99'
p2153
asbasbasbag68
(g84
g70
NtRp2154
(dp2155
g73
(dp2156
sg82
g2125
sg75
(lp2157
g68
(g89
g70
NtRp2158
(dp2159
g73
(dp2160
sg82
g2154
sg75
(lp2161
g68
(g69
g70
NtRp2162
(dp2163
g73
(dp2164
g81
I3
ssg82
g2158
sg75
(lp2165
S'7'
asbasbasbag68
(g84
g70
NtRp2166
(dp2167
g73
(dp2168
sg82
g2125
sg75
(lp2169
g68
(g89
g70
NtRp2170
(dp2171
g73
(dp2172
sg82
g2166
sg75
(lp2173
g68
(g69
g70
NtRp2174
(dp2175
g73
(dp2176
g81
I3
ssg82
g2170
sg75
(lp2177
S'datetime.datetime(2012, 3, 4, 22, 12, 8)'
p2178
asbasbasbag68
(g84
g70
NtRp2179
(dp2180
g73
(dp2181
sg82
g2125
sg75
(lp2182
g68
(g89
g70
NtRp2183
(dp2184
g73
(dp2185
sg82
g2179
sg75
(lp2186
g68
(g69
g70
NtRp2187
(dp2188
g73
(dp2189
g81
I3
ssg82
g2183
sg75
(lp2190
g1581
asbasbasbasbasbasbasbasbasbasbasbag68
(g84
g70
NtRp2191
(dp2192
g73
(dp2193
sg82
g78
sg75
(lp2194
g68
(g89
g70
NtRp2195
(dp2196
g73
(dp2197
g93
g94
ssg82
g2191
sg75
(lp2198
S'is_https'
p2199
asbag68
(g89
g70
NtRp2200
(dp2201
g73
(dp2202
g100
g101
ssg82
g2191
sg75
(lp2203
S':'
asbag68
(g89
g70
NtRp2204
(dp2205
g73
(dp2206
sg82
g2191
sg75
(lp2207
g68
(g69
g70
NtRp2208
(dp2209
g73
(dp2210
g81
I5
ssg82
g2204
sg75
(lp2211
g111
asbasbasbag68
(g84
g70
NtRp2212
(dp2213
g73
(dp2214
sg82
g78
sg75
(lp2215
g68
(g89
g70
NtRp2216
(dp2217
g73
(dp2218
g93
g94
ssg82
g2212
sg75
(lp2219
S'is_local'
p2220
asbag68
(g89
g70
NtRp2221
(dp2222
g73
(dp2223
g100
g101
ssg82
g2212
sg75
(lp2224
S':'
asbag68
(g89
g70
NtRp2225
(dp2226
g73
(dp2227
sg82
g2212
sg75
(lp2228
g68
(g69
g70
NtRp2229
(dp2230
g73
(dp2231
g81
I5
ssg82
g2225
sg75
(lp2232
g971
asbasbasbag68
(g84
g70
NtRp2233
(dp2234
g73
(dp2235
sg82
g78
sg75
(lp2236
g68
(g89
g70
NtRp2237
(dp2238
g73
(dp2239
g93
g94
ssg82
g2233
sg75
(lp2240
S'is_restful'
p2241
asbag68
(g89
g70
NtRp2242
(dp2243
g73
(dp2244
g100
g101
ssg82
g2233
sg75
(lp2245
S':'
asbag68
(g89
g70
NtRp2246
(dp2247
g73
(dp2248
sg82
g2233
sg75
(lp2249
g68
(g69
g70
NtRp2250
(dp2251
g73
(dp2252
g81
I5
ssg82
g2246
sg75
(lp2253
g111
asbasbasbag68
(g84
g70
NtRp2254
(dp2255
g73
(dp2256
sg82
g78
sg75
(lp2257
g68
(g89
g70
NtRp2258
(dp2259
g73
(dp2260
g93
g94
ssg82
g2254
sg75
(lp2261
S'now'
p2262
asbag68
(g89
g70
NtRp2263
(dp2264
g73
(dp2265
g100
g101
ssg82
g2254
sg75
(lp2266
S':'
asbag68
(g89
g70
NtRp2267
(dp2268
g73
(dp2269
sg82
g2254
sg75
(lp2270
g68
(g69
g70
NtRp2271
(dp2272
g73
(dp2273
g81
I5
ssg82
g2267
sg75
(lp2274
S'datetime.datetime(2012, 4, 10, 0, 24, 45, 812346)'
p2275
asbasbasbag68
(g84
g70
NtRp2276
(dp2277
g73
(dp2278
sg82
g78
sg75
(lp2279
g68
(g89
g70
NtRp2280
(dp2281
g73
(dp2282
g93
g94
ssg82
g2276
sg75
(lp2283
S'post_vars'
p2284
asbag68
(g89
g70
NtRp2285
(dp2286
g73
(dp2287
g100
g101
ssg82
g2276
sg75
(lp2288
S':'
asbag68
(g89
g70
NtRp2289
(dp2290
g73
(dp2291
sg82
g2276
sg75
(lp2292
g68
(g69
g70
NtRp2293
(dp2294
g73
(dp2295
g81
I5
ssg82
g2289
sg75
(lp2296
g68
(g77
g70
NtRp2297
(dp2298
g73
(dp2299
g81
I4
ssg82
Nsg75
(lp2300
sbasbasbasbag68
(g84
g70
NtRp2301
(dp2302
g73
(dp2303
sg82
g78
sg75
(lp2304
g68
(g89
g70
NtRp2305
(dp2306
g73
(dp2307
g93
g94
ssg82
g2301
sg75
(lp2308
S'url'
p2309
asbag68
(g89
g70
NtRp2310
(dp2311
g73
(dp2312
g100
g101
ssg82
g2301
sg75
(lp2313
S':'
asbag68
(g89
g70
NtRp2314
(dp2315
g73
(dp2316
sg82
g2301
sg75
(lp2317
g68
(g69
g70
NtRp2318
(dp2319
g73
(dp2320
g81
I5
ssg82
g2314
sg75
(lp2321
S'/vsalad/action/comments'
p2322
asbasbasbag68
(g84
g70
NtRp2323
(dp2324
g73
(dp2325
sg82
g78
sg75
(lp2326
g68
(g89
g70
NtRp2327
(dp2328
g73
(dp2329
g93
g94
ssg82
g2323
sg75
(lp2330
S'utcnow'
p2331
asbag68
(g89
g70
NtRp2332
(dp2333
g73
(dp2334
g100
g101
ssg82
g2323
sg75
(lp2335
S':'
asbag68
(g89
g70
NtRp2336
(dp2337
g73
(dp2338
sg82
g2323
sg75
(lp2339
g68
(g69
g70
NtRp2340
(dp2341
g73
(dp2342
g81
I5
ssg82
g2336
sg75
(lp2343
S'datetime.datetime(2012, 4, 9, 20, 24, 45, 812369)'
p2344
asbasbasbag68
(g84
g70
NtRp2345
(dp2346
g73
(dp2347
sg82
g78
sg75
(lp2348
g68
(g89
g70
NtRp2349
(dp2350
g73
(dp2351
g93
g94
ssg82
g2345
sg75
(lp2352
S'uuid'
p2353
asbag68
(g89
g70
NtRp2354
(dp2355
g73
(dp2356
g100
g101
ssg82
g2345
sg75
(lp2357
S':'
asbag68
(g89
g70
NtRp2358
(dp2359
g73
(dp2360
sg82
g2345
sg75
(lp2361
g68
(g69
g70
NtRp2362
(dp2363
g73
(dp2364
g81
I5
ssg82
g2358
sg75
(lp2365
S'vsalad/127.0.0.1.2012-04-10.00-24-45.5e356260-e17e-442f-ad86-22588d5c4c21'
p2366
asbasbasbag68
(g84
g70
NtRp2367
(dp2368
g73
(dp2369
sg82
g78
sg75
(lp2370
g68
(g89
g70
NtRp2371
(dp2372
g73
(dp2373
g93
g94
ssg82
g2367
sg75
(lp2374
S'vars'
p2375
asbag68
(g89
g70
NtRp2376
(dp2377
g73
(dp2378
g100
g101
ssg82
g2367
sg75
(lp2379
S':'
asbag68
(g89
g70
NtRp2380
(dp2381
g73
(dp2382
sg82
g2367
sg75
(lp2383
g68
(g69
g70
NtRp2384
(dp2385
g73
(dp2386
g81
I5
ssg82
g2380
sg75
(lp2387
g68
(g77
g70
NtRp2388
(dp2389
g73
(dp2390
g81
I4
ssg82
Nsg75
(lp2391
sbasbasbasbag68
(g84
g70
NtRp2392
(dp2393
g73
(dp2394
sg82
g78
sg75
(lp2395
g68
(g89
g70
NtRp2396
(dp2397
g73
(dp2398
g93
g94
ssg82
g2392
sg75
(lp2399
S'wsgi'
p2400
asbag68
(g89
g70
NtRp2401
(dp2402
g73
(dp2403
g100
g101
ssg82
g2392
sg75
(lp2404
S':'
asbag68
(g89
g70
NtRp2405
(dp2406
g73
(dp2407
sg82
g2392
sg75
(lp2408
g68
(g69
g70
NtRp2409
(dp2410
g73
(dp2411
g81
I5
ssg82
g2405
sg75
(lp2412
g68
(g77
g70
NtRp2413
(dp2414
g73
(dp2415
g81
I4
ssg82
Nsg75
(lp2416
g68
(g84
g70
NtRp2417
(dp2418
g73
(dp2419
sg82
g2413
sg75
(lp2420
g68
(g89
g70
NtRp2421
(dp2422
g73
(dp2423
g93
g94
ssg82
g2417
sg75
(lp2424
S'environ'
p2425
asbag68
(g89
g70
NtRp2426
(dp2427
g73
(dp2428
g100
g101
ssg82
g2417
sg75
(lp2429
S':'
asbag68
(g89
g70
NtRp2430
(dp2431
g73
(dp2432
sg82
g2417
sg75
(lp2433
g68
(g69
g70
NtRp2434
(dp2435
g73
(dp2436
g81
I4
ssg82
g2430
sg75
(lp2437
g68
(g77
g70
NtRp2438
(dp2439
g73
(dp2440
g81
I3
ssg82
Nsg75
(lp2441
g68
(g84
g70
NtRp2442
(dp2443
g73
(dp2444
sg82
g2438
sg75
(lp2445
g68
(g89
g70
NtRp2446
(dp2447
g73
(dp2448
g93
g94
ssg82
g2442
sg75
(lp2449
S'HTTP_ACCEPT'
p2450
asbag68
(g89
g70
NtRp2451
(dp2452
g73
(dp2453
g100
g101
ssg82
g2442
sg75
(lp2454
S':'
asbag68
(g89
g70
NtRp2455
(dp2456
g73
(dp2457
sg82
g2442
sg75
(lp2458
g68
(g69
g70
NtRp2459
(dp2460
g73
(dp2461
g81
I3
ssg82
g2455
sg75
(lp2462
g1015
asbasbasbag68
(g84
g70
NtRp2463
(dp2464
g73
(dp2465
sg82
g2438
sg75
(lp2466
g68
(g89
g70
NtRp2467
(dp2468
g73
(dp2469
g93
g94
ssg82
g2463
sg75
(lp2470
S'HTTP_ACCEPT_CHARSET'
p2471
asbag68
(g89
g70
NtRp2472
(dp2473
g73
(dp2474
g100
g101
ssg82
g2463
sg75
(lp2475
S':'
asbag68
(g89
g70
NtRp2476
(dp2477
g73
(dp2478
sg82
g2463
sg75
(lp2479
g68
(g69
g70
NtRp2480
(dp2481
g73
(dp2482
g81
I3
ssg82
g2476
sg75
(lp2483
g1037
asbasbasbag68
(g84
g70
NtRp2484
(dp2485
g73
(dp2486
sg82
g2438
sg75
(lp2487
g68
(g89
g70
NtRp2488
(dp2489
g73
(dp2490
g93
g94
ssg82
g2484
sg75
(lp2491
S'HTTP_ACCEPT_ENCODING'
p2492
asbag68
(g89
g70
NtRp2493
(dp2494
g73
(dp2495
g100
g101
ssg82
g2484
sg75
(lp2496
S':'
asbag68
(g89
g70
NtRp2497
(dp2498
g73
(dp2499
sg82
g2484
sg75
(lp2500
g68
(g69
g70
NtRp2501
(dp2502
g73
(dp2503
g81
I3
ssg82
g2497
sg75
(lp2504
g1059
asbasbasbag68
(g84
g70
NtRp2505
(dp2506
g73
(dp2507
sg82
g2438
sg75
(lp2508
g68
(g89
g70
NtRp2509
(dp2510
g73
(dp2511
g93
g94
ssg82
g2505
sg75
(lp2512
S'HTTP_ACCEPT_LANGUAGE'
p2513
asbag68
(g89
g70
NtRp2514
(dp2515
g73
(dp2516
g100
g101
ssg82
g2505
sg75
(lp2517
S':'
asbag68
(g89
g70
NtRp2518
(dp2519
g73
(dp2520
sg82
g2505
sg75
(lp2521
g68
(g69
g70
NtRp2522
(dp2523
g73
(dp2524
g81
I3
ssg82
g2518
sg75
(lp2525
g1081
asbasbasbag68
(g84
g70
NtRp2526
(dp2527
g73
(dp2528
sg82
g2438
sg75
(lp2529
g68
(g89
g70
NtRp2530
(dp2531
g73
(dp2532
g93
g94
ssg82
g2526
sg75
(lp2533
S'HTTP_CACHE_CONTROL'
p2534
asbag68
(g89
g70
NtRp2535
(dp2536
g73
(dp2537
g100
g101
ssg82
g2526
sg75
(lp2538
S':'
asbag68
(g89
g70
NtRp2539
(dp2540
g73
(dp2541
sg82
g2526
sg75
(lp2542
g68
(g69
g70
NtRp2543
(dp2544
g73
(dp2545
g81
I3
ssg82
g2539
sg75
(lp2546
g1103
asbasbasbag68
(g84
g70
NtRp2547
(dp2548
g73
(dp2549
sg82
g2438
sg75
(lp2550
g68
(g89
g70
NtRp2551
(dp2552
g73
(dp2553
g93
g94
ssg82
g2547
sg75
(lp2554
S'HTTP_CONNECTION'
p2555
asbag68
(g89
g70
NtRp2556
(dp2557
g73
(dp2558
g100
g101
ssg82
g2547
sg75
(lp2559
S':'
asbag68
(g89
g70
NtRp2560
(dp2561
g73
(dp2562
sg82
g2547
sg75
(lp2563
g68
(g69
g70
NtRp2564
(dp2565
g73
(dp2566
g81
I3
ssg82
g2560
sg75
(lp2567
g1125
asbasbasbag68
(g84
g70
NtRp2568
(dp2569
g73
(dp2570
sg82
g2438
sg75
(lp2571
g68
(g89
g70
NtRp2572
(dp2573
g73
(dp2574
g93
g94
ssg82
g2568
sg75
(lp2575
S'HTTP_COOKIE'
p2576
asbag68
(g89
g70
NtRp2577
(dp2578
g73
(dp2579
g100
g101
ssg82
g2568
sg75
(lp2580
S':'
asbag68
(g89
g70
NtRp2581
(dp2582
g73
(dp2583
sg82
g2568
sg75
(lp2584
g68
(g69
g70
NtRp2585
(dp2586
g73
(dp2587
g81
I3
ssg82
g2581
sg75
(lp2588
g1147
asbasbasbag68
(g84
g70
NtRp2589
(dp2590
g73
(dp2591
sg82
g2438
sg75
(lp2592
g68
(g89
g70
NtRp2593
(dp2594
g73
(dp2595
g93
g94
ssg82
g2589
sg75
(lp2596
S'HTTP_HOST'
p2597
asbag68
(g89
g70
NtRp2598
(dp2599
g73
(dp2600
g100
g101
ssg82
g2589
sg75
(lp2601
S':'
asbag68
(g89
g70
NtRp2602
(dp2603
g73
(dp2604
sg82
g2589
sg75
(lp2605
g68
(g69
g70
NtRp2606
(dp2607
g73
(dp2608
g81
I3
ssg82
g2602
sg75
(lp2609
g1169
asbasbasbag68
(g84
g70
NtRp2610
(dp2611
g73
(dp2612
sg82
g2438
sg75
(lp2613
g68
(g89
g70
NtRp2614
(dp2615
g73
(dp2616
g93
g94
ssg82
g2610
sg75
(lp2617
S'HTTP_USER_AGENT'
p2618
asbag68
(g89
g70
NtRp2619
(dp2620
g73
(dp2621
g100
g101
ssg82
g2610
sg75
(lp2622
S':'
asbag68
(g89
g70
NtRp2623
(dp2624
g73
(dp2625
sg82
g2610
sg75
(lp2626
g68
(g69
g70
NtRp2627
(dp2628
g73
(dp2629
g81
I3
ssg82
g2623
sg75
(lp2630
g1191
asbasbasbag68
(g84
g70
NtRp2631
(dp2632
g73
(dp2633
sg82
g2438
sg75
(lp2634
g68
(g89
g70
NtRp2635
(dp2636
g73
(dp2637
g93
g94
ssg82
g2631
sg75
(lp2638
S'PATH_INFO'
p2639
asbag68
(g89
g70
NtRp2640
(dp2641
g73
(dp2642
g100
g101
ssg82
g2631
sg75
(lp2643
S':'
asbag68
(g89
g70
NtRp2644
(dp2645
g73
(dp2646
sg82
g2631
sg75
(lp2647
g68
(g69
g70
NtRp2648
(dp2649
g73
(dp2650
g81
I3
ssg82
g2644
sg75
(lp2651
g1255
asbasbasbag68
(g84
g70
NtRp2652
(dp2653
g73
(dp2654
sg82
g2438
sg75
(lp2655
g68
(g89
g70
NtRp2656
(dp2657
g73
(dp2658
g93
g94
ssg82
g2652
sg75
(lp2659
S'QUERY_STRING'
p2660
asbag68
(g89
g70
NtRp2661
(dp2662
g73
(dp2663
g100
g101
ssg82
g2652
sg75
(lp2664
S':'
asbag68
(g89
g70
NtRp2665
(dp2666
g73
(dp2667
sg82
g2652
sg75
(lp2668
g68
(g69
g70
NtRp2669
(dp2670
g73
(dp2671
g81
I3
ssg82
g2665
sg75
(lp2672
S''
asbasbasbag68
(g84
g70
NtRp2673
(dp2674
g73
(dp2675
sg82
g2438
sg75
(lp2676
g68
(g89
g70
NtRp2677
(dp2678
g73
(dp2679
g93
g94
ssg82
g2673
sg75
(lp2680
S'REMOTE_ADDR'
p2681
asbag68
(g89
g70
NtRp2682
(dp2683
g73
(dp2684
g100
g101
ssg82
g2673
sg75
(lp2685
S':'
asbag68
(g89
g70
NtRp2686
(dp2687
g73
(dp2688
sg82
g2673
sg75
(lp2689
g68
(g69
g70
NtRp2690
(dp2691
g73
(dp2692
g81
I3
ssg82
g2686
sg75
(lp2693
g201
asbasbasbag68
(g84
g70
NtRp2694
(dp2695
g73
(dp2696
sg82
g2438
sg75
(lp2697
g68
(g89
g70
NtRp2698
(dp2699
g73
(dp2700
g93
g94
ssg82
g2694
sg75
(lp2701
S'REMOTE_PORT'
p2702
asbag68
(g89
g70
NtRp2703
(dp2704
g73
(dp2705
g100
g101
ssg82
g2694
sg75
(lp2706
S':'
asbag68
(g89
g70
NtRp2707
(dp2708
g73
(dp2709
sg82
g2694
sg75
(lp2710
g68
(g69
g70
NtRp2711
(dp2712
g73
(dp2713
g81
I3
ssg82
g2707
sg75
(lp2714
g1319
asbasbasbag68
(g84
g70
NtRp2715
(dp2716
g73
(dp2717
sg82
g2438
sg75
(lp2718
g68
(g89
g70
NtRp2719
(dp2720
g73
(dp2721
g93
g94
ssg82
g2715
sg75
(lp2722
S'REQUEST_METHOD'
p2723
asbag68
(g89
g70
NtRp2724
(dp2725
g73
(dp2726
g100
g101
ssg82
g2715
sg75
(lp2727
S':'
asbag68
(g89
g70
NtRp2728
(dp2729
g73
(dp2730
sg82
g2715
sg75
(lp2731
g68
(g69
g70
NtRp2732
(dp2733
g73
(dp2734
g81
I3
ssg82
g2728
sg75
(lp2735
g1341
asbasbasbag68
(g84
g70
NtRp2736
(dp2737
g73
(dp2738
sg82
g2438
sg75
(lp2739
g68
(g89
g70
NtRp2740
(dp2741
g73
(dp2742
g93
g94
ssg82
g2736
sg75
(lp2743
S'SCRIPT_NAME'
p2744
asbag68
(g89
g70
NtRp2745
(dp2746
g73
(dp2747
g100
g101
ssg82
g2736
sg75
(lp2748
S':'
asbag68
(g89
g70
NtRp2749
(dp2750
g73
(dp2751
sg82
g2736
sg75
(lp2752
g68
(g69
g70
NtRp2753
(dp2754
g73
(dp2755
g81
I3
ssg82
g2749
sg75
(lp2756
S''
asbasbasbag68
(g84
g70
NtRp2757
(dp2758
g73
(dp2759
sg82
g2438
sg75
(lp2760
g68
(g89
g70
NtRp2761
(dp2762
g73
(dp2763
g93
g94
ssg82
g2757
sg75
(lp2764
S'SERVER_NAME'
p2765
asbag68
(g89
g70
NtRp2766
(dp2767
g73
(dp2768
g100
g101
ssg82
g2757
sg75
(lp2769
S':'
asbag68
(g89
g70
NtRp2770
(dp2771
g73
(dp2772
sg82
g2757
sg75
(lp2773
g68
(g69
g70
NtRp2774
(dp2775
g73
(dp2776
g81
I3
ssg82
g2770
sg75
(lp2777
g1384
asbasbasbag68
(g84
g70
NtRp2778
(dp2779
g73
(dp2780
sg82
g2438
sg75
(lp2781
g68
(g89
g70
NtRp2782
(dp2783
g73
(dp2784
g93
g94
ssg82
g2778
sg75
(lp2785
S'SERVER_PORT'
p2786
asbag68
(g89
g70
NtRp2787
(dp2788
g73
(dp2789
g100
g101
ssg82
g2778
sg75
(lp2790
S':'
asbag68
(g89
g70
NtRp2791
(dp2792
g73
(dp2793
sg82
g2778
sg75
(lp2794
g68
(g69
g70
NtRp2795
(dp2796
g73
(dp2797
g81
I3
ssg82
g2791
sg75
(lp2798
g1406
asbasbasbag68
(g84
g70
NtRp2799
(dp2800
g73
(dp2801
sg82
g2438
sg75
(lp2802
g68
(g89
g70
NtRp2803
(dp2804
g73
(dp2805
g93
g94
ssg82
g2799
sg75
(lp2806
S'SERVER_PROTOCOL'
p2807
asbag68
(g89
g70
NtRp2808
(dp2809
g73
(dp2810
g100
g101
ssg82
g2799
sg75
(lp2811
S':'
asbag68
(g89
g70
NtRp2812
(dp2813
g73
(dp2814
sg82
g2799
sg75
(lp2815
g68
(g69
g70
NtRp2816
(dp2817
g73
(dp2818
g81
I3
ssg82
g2812
sg75
(lp2819
g1428
asbasbasbag68
(g84
g70
NtRp2820
(dp2821
g73
(dp2822
sg82
g2438
sg75
(lp2823
g68
(g89
g70
NtRp2824
(dp2825
g73
(dp2826
g93
g94
ssg82
g2820
sg75
(lp2827
S'SERVER_SOFTWARE'
p2828
asbag68
(g89
g70
NtRp2829
(dp2830
g73
(dp2831
g100
g101
ssg82
g2820
sg75
(lp2832
S':'
asbag68
(g89
g70
NtRp2833
(dp2834
g73
(dp2835
sg82
g2820
sg75
(lp2836
g68
(g69
g70
NtRp2837
(dp2838
g73
(dp2839
g81
I3
ssg82
g2833
sg75
(lp2840
g1450
asbasbasbag68
(g84
g70
NtRp2841
(dp2842
g73
(dp2843
sg82
g2438
sg75
(lp2844
g68
(g89
g70
NtRp2845
(dp2846
g73
(dp2847
g93
g94
ssg82
g2841
sg75
(lp2848
S'wsgi.errors'
p2849
asbag68
(g89
g70
NtRp2850
(dp2851
g73
(dp2852
g100
g101
ssg82
g2841
sg75
(lp2853
S':'
asbag68
(g89
g70
NtRp2854
(dp2855
g73
(dp2856
sg82
g2841
sg75
(lp2857
g68
(g69
g70
NtRp2858
(dp2859
g73
(dp2860
g81
I3
ssg82
g2854
sg75
(lp2861
S"<open file '<stderr>', mode 'w' at 0x7ff96880b270>"
p2862
asbasbasbag68
(g84
g70
NtRp2863
(dp2864
g73
(dp2865
sg82
g2438
sg75
(lp2866
g68
(g89
g70
NtRp2867
(dp2868
g73
(dp2869
g93
g94
ssg82
g2863
sg75
(lp2870
S'wsgi.file_wrapper'
p2871
asbag68
(g89
g70
NtRp2872
(dp2873
g73
(dp2874
g100
g101
ssg82
g2863
sg75
(lp2875
S':'
asbag68
(g89
g70
NtRp2876
(dp2877
g73
(dp2878
sg82
g2863
sg75
(lp2879
g68
(g69
g70
NtRp2880
(dp2881
g73
(dp2882
g81
I3
ssg82
g2876
sg75
(lp2883
S'<class wsgiref.util.FileWrapper at 0x1f13870>'
p2884
asbasbasbag68
(g84
g70
NtRp2885
(dp2886
g73
(dp2887
sg82
g2438
sg75
(lp2888
g68
(g89
g70
NtRp2889
(dp2890
g73
(dp2891
g93
g94
ssg82
g2885
sg75
(lp2892
S'wsgi.input'
p2893
asbag68
(g89
g70
NtRp2894
(dp2895
g73
(dp2896
g100
g101
ssg82
g2885
sg75
(lp2897
S':'
asbag68
(g89
g70
NtRp2898
(dp2899
g73
(dp2900
sg82
g2885
sg75
(lp2901
g68
(g69
g70
NtRp2902
(dp2903
g73
(dp2904
g81
I3
ssg82
g2898
sg75
(lp2905
S'<cStringIO.StringO object at 0x2f2b848>'
p2906
asbasbasbag68
(g84
g70
NtRp2907
(dp2908
g73
(dp2909
sg82
g2438
sg75
(lp2910
g68
(g89
g70
NtRp2911
(dp2912
g73
(dp2913
g93
g94
ssg82
g2907
sg75
(lp2914
S'wsgi.multiprocess'
p2915
asbag68
(g89
g70
NtRp2916
(dp2917
g73
(dp2918
g100
g101
ssg82
g2907
sg75
(lp2919
S':'
asbag68
(g89
g70
NtRp2920
(dp2921
g73
(dp2922
sg82
g2907
sg75
(lp2923
g68
(g69
g70
NtRp2924
(dp2925
g73
(dp2926
g81
I3
ssg82
g2920
sg75
(lp2927
g111
asbasbasbag68
(g84
g70
NtRp2928
(dp2929
g73
(dp2930
sg82
g2438
sg75
(lp2931
g68
(g89
g70
NtRp2932
(dp2933
g73
(dp2934
g93
g94
ssg82
g2928
sg75
(lp2935
S'wsgi.multithread'
p2936
asbag68
(g89
g70
NtRp2937
(dp2938
g73
(dp2939
g100
g101
ssg82
g2928
sg75
(lp2940
S':'
asbag68
(g89
g70
NtRp2941
(dp2942
g73
(dp2943
sg82
g2928
sg75
(lp2944
g68
(g69
g70
NtRp2945
(dp2946
g73
(dp2947
g81
I3
ssg82
g2941
sg75
(lp2948
g971
asbasbasbag68
(g84
g70
NtRp2949
(dp2950
g73
(dp2951
sg82
g2438
sg75
(lp2952
g68
(g89
g70
NtRp2953
(dp2954
g73
(dp2955
g93
g94
ssg82
g2949
sg75
(lp2956
S'wsgi.run_once'
p2957
asbag68
(g89
g70
NtRp2958
(dp2959
g73
(dp2960
g100
g101
ssg82
g2949
sg75
(lp2961
S':'
asbag68
(g89
g70
NtRp2962
(dp2963
g73
(dp2964
sg82
g2949
sg75
(lp2965
g68
(g69
g70
NtRp2966
(dp2967
g73
(dp2968
g81
I3
ssg82
g2962
sg75
(lp2969
g111
asbasbasbag68
(g84
g70
NtRp2970
(dp2971
g73
(dp2972
sg82
g2438
sg75
(lp2973
g68
(g89
g70
NtRp2974
(dp2975
g73
(dp2976
g93
g94
ssg82
g2970
sg75
(lp2977
S'wsgi.url_scheme'
p2978
asbag68
(g89
g70
NtRp2979
(dp2980
g73
(dp2981
g100
g101
ssg82
g2970
sg75
(lp2982
S':'
asbag68
(g89
g70
NtRp2983
(dp2984
g73
(dp2985
sg82
g2970
sg75
(lp2986
g68
(g69
g70
NtRp2987
(dp2988
g73
(dp2989
g81
I3
ssg82
g2983
sg75
(lp2990
g1732
asbasbasbag68
(g84
g70
NtRp2991
(dp2992
g73
(dp2993
sg82
g2438
sg75
(lp2994
g68
(g89
g70
NtRp2995
(dp2996
g73
(dp2997
g93
g94
ssg82
g2991
sg75
(lp2998
S'wsgi.version'
p2999
asbag68
(g89
g70
NtRp3000
(dp3001
g73
(dp3002
g100
g101
ssg82
g2991
sg75
(lp3003
S':'
asbag68
(g89
g70
NtRp3004
(dp3005
g73
(dp3006
sg82
g2991
sg75
(lp3007
g68
(g69
g70
NtRp3008
(dp3009
g73
(dp3010
g81
I3
ssg82
g3004
sg75
(lp3011
S'1'
asbasbasbasbasbasbasbasbasbasbasbasbasbsS'frames'
p3012
(lp3013
(dp3014
S'file'
p3015
S'/home/fish/Desktop/web2py/gluon/restricted.py'
p3016
sS'dump'
p3017
(dp3018
S'code'
p3019
S'\'response.write(\\\'<html>\\\\n<head>\\\\n<script src="htt...ponse.write(\\\'\\\\n</body>\\\\n</html>\\\\n\\\', escape=False)\''
p3020
sS'layer'
p3021
S"'/home/fish/Desktop/web2py/applications/vsalad/views/action/comments.html'"
p3022
sS'global compile2'
p3023
S'<function compile2>'
p3024
sS'ccode'
p3025
S'undefined'
p3026
ssS'lnum'
p3027
I204
sS'lines'
p3028
(dp3029
I199
S"    environment['__name__'] = '__restricted__'"
p3030
sI200
S'    try:'
p3031
sI201
S'        if type(code) == types.CodeType:'
p3032
sI202
S'            ccode = code'
p3033
sI203
S'        else:'
p3034
sI204
S'            ccode = compile2(code,layer)'
p3035
sI205
S'        exec ccode in environment'
p3036
sI206
S'    except HTTP:'
p3037
sI207
S'        raise'
p3038
sI208
S'    except RestrictedError:'
p3039
ssS'call'
p3040
S'(code=\'response.write(\\\'<html>\\\\n<head>\\\\n<script src="htt...ponse.write(\\\'\\\\n</body>\\\\n</html>\\\\n\\\', escape=False)\', environment={\'A\': <class \'gluon.html.A\'>, \'Auth\': <class \'gluon.tools.Auth\'>, \'B\': <class \'gluon.html.B\'>, \'BEAUTIFY\': <class \'gluon.html.BEAUTIFY\'>, \'BODY\': <class \'gluon.html.BODY\'>, \'BR\': <class \'gluon.html.BR\'>, \'BUTTON\': <class \'gluon.html.BUTTON\'>, \'CAT\': <class \'gluon.html.CAT\'>, \'CENTER\': <class \'gluon.html.CENTER\'>, \'CLEANUP\': <class \'gluon.validators.CLEANUP\'>, ...}, layer=\'/home/fish/Desktop/web2py/applications/vsalad/views/action/comments.html\')'
p3041
sS'func'
p3042
S'restricted'
p3043
sa(dp3044
g3015
S'/home/fish/Desktop/web2py/gluon/restricted.py'
p3045
sg3017
(dp3046
S'builtincompile'
p3047
S'<built-in function compile>'
p3048
sS'code'
p3049
S'\'response.write(\\\'<html>\\\\n<head>\\\\n<script src="htt...ponse.write(\\\'\\\\n</body>\\\\n</html>\\\\n\\\', escape=False)\''
p3050
sS'code.rstrip'
p3051
S'<built-in method rstrip of str object>'
p3052
sS').replace'
p3053
g3026
sS'layer'
p3054
S"'/home/fish/Desktop/web2py/applications/vsalad/views/action/comments.html'"
p3055
ssg3027
I189
sg3028
(dp3056
I192
S'    """'
p3057
sI193
S'    runs code in environment and returns the output. if an exception occurs'
p3058
sI184
S''
sI185
S'def compile2(code,layer):'
p3059
sI186
S'    """'
p3060
sI187
S"    The +'\\n' is necessary else compile fails when code ends in a comment."
p3061
sI188
S'    """'
p3062
sI189
S"    return compile(code.rstrip().replace('\\r\\n','\\n')+'\\n', layer, 'exec')"
p3063
sI190
S''
sI191
S"def restricted(code, environment=None, layer='Unknown'):"
p3064
ssg3040
S'(code=\'response.write(\\\'<html>\\\\n<head>\\\\n<script src="htt...ponse.write(\\\'\\\\n</body>\\\\n</html>\\\\n\\\', escape=False)\', layer=\'/home/fish/Desktop/web2py/applications/vsalad/views/action/comments.html\')'
p3065
sg3042
S'compile2'
p3066
sasS'pyver'
p3067
S'Python 2.7.2+: /usr/bin/python'
p3068
sS'session'
p3069
g68
(g69
g70
NtRp3070
(dp3071
g73
(dp3072
sg75
(lp3073
g68
(g77
g70
NtRp3074
(dp3075
g73
(dp3076
g81
I5
ssg82
Nsg75
(lp3077
sbasbsS'etype'
p3078
S"<type 'exceptions.SyntaxError'>"
p3079
sS'date'
p3080
S'Tue Apr 10 00:24:45 2012'
p3081
sS'response'
p3082
g68
(g69
g70
NtRp3083
(dp3084
g73
(dp3085
sg75
(lp3086
g68
(g77
g70
NtRp3087
(dp3088
g73
(dp3089
g81
I5
ssg82
Nsg75
(lp3090
g68
(g84
g70
NtRp3091
(dp3092
g73
(dp3093
sg82
g3087
sg75
(lp3094
g68
(g89
g70
NtRp3095
(dp3096
g73
(dp3097
g93
g94
ssg82
g3091
sg75
(lp3098
g166
asbag68
(g89
g70
NtRp3099
(dp3100
g73
(dp3101
g100
g101
ssg82
g3091
sg75
(lp3102
S':'
asbag68
(g89
g70
NtRp3103
(dp3104
g73
(dp3105
sg82
g3091
sg75
(lp3106
g68
(g69
g70
NtRp3107
(dp3108
g73
(dp3109
g81
I5
ssg82
g3103
sg75
(lp3110
S'<cStringIO.StringO object at 0x2cddae8>'
p3111
asbasbasbag68
(g84
g70
NtRp3112
(dp3113
g73
(dp3114
sg82
g3087
sg75
(lp3115
g68
(g89
g70
NtRp3116
(dp3117
g73
(dp3118
g93
g94
ssg82
g3112
sg75
(lp3119
g232
asbag68
(g89
g70
NtRp3120
(dp3121
g73
(dp3122
g100
g101
ssg82
g3112
sg75
(lp3123
S':'
asbag68
(g89
g70
NtRp3124
(dp3125
g73
(dp3126
sg82
g3112
sg75
(lp3127
g68
(g69
g70
NtRp3128
(dp3129
g73
(dp3130
g81
I5
ssg82
g3124
sg75
(lp3131
g68
(g77
g70
NtRp3132
(dp3133
g73
(dp3134
g81
I4
ssg82
Nsg75
(lp3135
g68
(g84
g70
NtRp3136
(dp3137
g73
(dp3138
sg82
g3132
sg75
(lp3139
g68
(g89
g70
NtRp3140
(dp3141
g73
(dp3142
g93
g94
ssg82
g3136
sg75
(lp3143
S'session_id_vsalad'
p3144
asbag68
(g89
g70
NtRp3145
(dp3146
g73
(dp3147
g100
g101
ssg82
g3136
sg75
(lp3148
S':'
asbag68
(g89
g70
NtRp3149
(dp3150
g73
(dp3151
sg82
g3136
sg75
(lp3152
g68
(g69
g70
NtRp3153
(dp3154
g73
(dp3155
g81
I4
ssg82
g3149
sg75
(lp3156
g68
(g77
g70
NtRp3157
(dp3158
g73
(dp3159
g81
I3
ssg82
Nsg75
(lp3160
g68
(g84
g70
NtRp3161
(dp3162
g73
(dp3163
sg82
g3157
sg75
(lp3164
g68
(g89
g70
NtRp3165
(dp3166
g73
(dp3167
g93
g94
ssg82
g3161
sg75
(lp3168
g282
asbag68
(g89
g70
NtRp3169
(dp3170
g73
(dp3171
g100
g101
ssg82
g3161
sg75
(lp3172
S':'
asbag68
(g89
g70
NtRp3173
(dp3174
g73
(dp3175
sg82
g3161
sg75
(lp3176
g68
(g69
g70
NtRp3177
(dp3178
g73
(dp3179
g81
I3
ssg82
g3173
sg75
(lp3180
S''
asbasbasbag68
(g84
g70
NtRp3181
(dp3182
g73
(dp3183
sg82
g3157
sg75
(lp3184
g68
(g89
g70
NtRp3185
(dp3186
g73
(dp3187
g93
g94
ssg82
g3181
sg75
(lp3188
g303
asbag68
(g89
g70
NtRp3189
(dp3190
g73
(dp3191
g100
g101
ssg82
g3181
sg75
(lp3192
S':'
asbag68
(g89
g70
NtRp3193
(dp3194
g73
(dp3195
sg82
g3181
sg75
(lp3196
g68
(g69
g70
NtRp3197
(dp3198
g73
(dp3199
g81
I3
ssg82
g3193
sg75
(lp3200
S''
asbasbasbag68
(g84
g70
NtRp3201
(dp3202
g73
(dp3203
sg82
g3157
sg75
(lp3204
g68
(g89
g70
NtRp3205
(dp3206
g73
(dp3207
g93
g94
ssg82
g3201
sg75
(lp3208
g324
asbag68
(g89
g70
NtRp3209
(dp3210
g73
(dp3211
g100
g101
ssg82
g3201
sg75
(lp3212
S':'
asbag68
(g89
g70
NtRp3213
(dp3214
g73
(dp3215
sg82
g3201
sg75
(lp3216
g68
(g69
g70
NtRp3217
(dp3218
g73
(dp3219
g81
I3
ssg82
g3213
sg75
(lp3220
S''
asbasbasbag68
(g84
g70
NtRp3221
(dp3222
g73
(dp3223
sg82
g3157
sg75
(lp3224
g68
(g89
g70
NtRp3225
(dp3226
g73
(dp3227
g93
g94
ssg82
g3221
sg75
(lp3228
g345
asbag68
(g89
g70
NtRp3229
(dp3230
g73
(dp3231
g100
g101
ssg82
g3221
sg75
(lp3232
S':'
asbag68
(g89
g70
NtRp3233
(dp3234
g73
(dp3235
sg82
g3221
sg75
(lp3236
g68
(g69
g70
NtRp3237
(dp3238
g73
(dp3239
g81
I3
ssg82
g3233
sg75
(lp3240
S''
asbasbasbag68
(g84
g70
NtRp3241
(dp3242
g73
(dp3243
sg82
g3157
sg75
(lp3244
g68
(g89
g70
NtRp3245
(dp3246
g73
(dp3247
g93
g94
ssg82
g3241
sg75
(lp3248
g366
asbag68
(g89
g70
NtRp3249
(dp3250
g73
(dp3251
g100
g101
ssg82
g3241
sg75
(lp3252
S':'
asbag68
(g89
g70
NtRp3253
(dp3254
g73
(dp3255
sg82
g3241
sg75
(lp3256
g68
(g69
g70
NtRp3257
(dp3258
g73
(dp3259
g81
I3
ssg82
g3253
sg75
(lp3260
S''
asbasbasbag68
(g84
g70
NtRp3261
(dp3262
g73
(dp3263
sg82
g3157
sg75
(lp3264
g68
(g89
g70
NtRp3265
(dp3266
g73
(dp3267
g93
g94
ssg82
g3261
sg75
(lp3268
g387
asbag68
(g89
g70
NtRp3269
(dp3270
g73
(dp3271
g100
g101
ssg82
g3261
sg75
(lp3272
S':'
asbag68
(g89
g70
NtRp3273
(dp3274
g73
(dp3275
sg82
g3261
sg75
(lp3276
g68
(g69
g70
NtRp3277
(dp3278
g73
(dp3279
g81
I3
ssg82
g3273
sg75
(lp3280
S'/'
asbasbasbag68
(g84
g70
NtRp3281
(dp3282
g73
(dp3283
sg82
g3157
sg75
(lp3284
g68
(g89
g70
NtRp3285
(dp3286
g73
(dp3287
g93
g94
ssg82
g3281
sg75
(lp3288
g408
asbag68
(g89
g70
NtRp3289
(dp3290
g73
(dp3291
g100
g101
ssg82
g3281
sg75
(lp3292
S':'
asbag68
(g89
g70
NtRp3293
(dp3294
g73
(dp3295
sg82
g3281
sg75
(lp3296
g68
(g69
g70
NtRp3297
(dp3298
g73
(dp3299
g81
I3
ssg82
g3293
sg75
(lp3300
S''
asbasbasbag68
(g84
g70
NtRp3301
(dp3302
g73
(dp3303
sg82
g3157
sg75
(lp3304
g68
(g89
g70
NtRp3305
(dp3306
g73
(dp3307
g93
g94
ssg82
g3301
sg75
(lp3308
g429
asbag68
(g89
g70
NtRp3309
(dp3310
g73
(dp3311
g100
g101
ssg82
g3301
sg75
(lp3312
S':'
asbag68
(g89
g70
NtRp3313
(dp3314
g73
(dp3315
sg82
g3301
sg75
(lp3316
g68
(g69
g70
NtRp3317
(dp3318
g73
(dp3319
g81
I3
ssg82
g3313
sg75
(lp3320
S''
asbasbasbasbasbasbasbasbasbasbasbag68
(g84
g70
NtRp3321
(dp3322
g73
(dp3323
sg82
g3087
sg75
(lp3324
g68
(g89
g70
NtRp3325
(dp3326
g73
(dp3327
g93
g94
ssg82
g3321
sg75
(lp3328
S'delimiters'
p3329
asbag68
(g89
g70
NtRp3330
(dp3331
g73
(dp3332
g100
g101
ssg82
g3321
sg75
(lp3333
S':'
asbag68
(g89
g70
NtRp3334
(dp3335
g73
(dp3336
sg82
g3321
sg75
(lp3337
g68
(g69
g70
NtRp3338
(dp3339
g73
(dp3340
g81
I5
ssg82
g3334
sg75
(lp3341
g68
(g77
g70
NtRp3342
(dp3343
g73
(dp3344
g81
I4
ssg82
Nsg75
(lp3345
g68
(g84
g70
NtRp3346
(dp3347
g73
(dp3348
sg82
g3342
sg75
(lp3349
g68
(g89
g70
NtRp3350
(dp3351
g73
(dp3352
sg82
g3346
sg75
(lp3353
g68
(g69
g70
NtRp3354
(dp3355
g73
(dp3356
g81
I4
ssg82
g3350
sg75
(lp3357
S'{{'
p3358
asbasbasbag68
(g84
g70
NtRp3359
(dp3360
g73
(dp3361
sg82
g3342
sg75
(lp3362
g68
(g89
g70
NtRp3363
(dp3364
g73
(dp3365
sg82
g3359
sg75
(lp3366
g68
(g69
g70
NtRp3367
(dp3368
g73
(dp3369
g81
I4
ssg82
g3363
sg75
(lp3370
S'}}'
p3371
asbasbasbasbasbasbasbag68
(g84
g70
NtRp3372
(dp3373
g73
(dp3374
sg82
g3087
sg75
(lp3375
g68
(g89
g70
NtRp3376
(dp3377
g73
(dp3378
g93
g94
ssg82
g3372
sg75
(lp3379
S'files'
p3380
asbag68
(g89
g70
NtRp3381
(dp3382
g73
(dp3383
g100
g101
ssg82
g3372
sg75
(lp3384
S':'
asbag68
(g89
g70
NtRp3385
(dp3386
g73
(dp3387
sg82
g3372
sg75
(lp3388
g68
(g69
g70
NtRp3389
(dp3390
g73
(dp3391
g81
I5
ssg82
g3385
sg75
(lp3392
g68
(g77
g70
NtRp3393
(dp3394
g73
(dp3395
g81
I4
ssg82
Nsg75
(lp3396
sbasbasbasbag68
(g84
g70
NtRp3397
(dp3398
g73
(dp3399
sg82
g3087
sg75
(lp3400
g68
(g89
g70
NtRp3401
(dp3402
g73
(dp3403
g93
g94
ssg82
g3397
sg75
(lp3404
S'flash'
p3405
asbag68
(g89
g70
NtRp3406
(dp3407
g73
(dp3408
g100
g101
ssg82
g3397
sg75
(lp3409
S':'
asbag68
(g89
g70
NtRp3410
(dp3411
g73
(dp3412
sg82
g3397
sg75
(lp3413
g68
(g69
g70
NtRp3414
(dp3415
g73
(dp3416
g81
I5
ssg82
g3410
sg75
(lp3417
S''
asbasbasbag68
(g84
g70
NtRp3418
(dp3419
g73
(dp3420
sg82
g3087
sg75
(lp3421
g68
(g89
g70
NtRp3422
(dp3423
g73
(dp3424
g93
g94
ssg82
g3418
sg75
(lp3425
S'generic_patterns'
p3426
asbag68
(g89
g70
NtRp3427
(dp3428
g73
(dp3429
g100
g101
ssg82
g3418
sg75
(lp3430
S':'
asbag68
(g89
g70
NtRp3431
(dp3432
g73
(dp3433
sg82
g3418
sg75
(lp3434
g68
(g69
g70
NtRp3435
(dp3436
g73
(dp3437
g81
I5
ssg82
g3431
sg75
(lp3438
g68
(g77
g70
NtRp3439
(dp3440
g73
(dp3441
g81
I4
ssg82
Nsg75
(lp3442
g68
(g84
g70
NtRp3443
(dp3444
g73
(dp3445
sg82
g3439
sg75
(lp3446
g68
(g89
g70
NtRp3447
(dp3448
g73
(dp3449
sg82
g3443
sg75
(lp3450
g68
(g69
g70
NtRp3451
(dp3452
g73
(dp3453
g81
I4
ssg82
g3447
sg75
(lp3454
S'*'
asbasbasbasbasbasbasbag68
(g84
g70
NtRp3455
(dp3456
g73
(dp3457
sg82
g3087
sg75
(lp3458
g68
(g89
g70
NtRp3459
(dp3460
g73
(dp3461
g93
g94
ssg82
g3455
sg75
(lp3462
S'headers'
p3463
asbag68
(g89
g70
NtRp3464
(dp3465
g73
(dp3466
g100
g101
ssg82
g3455
sg75
(lp3467
S':'
asbag68
(g89
g70
NtRp3468
(dp3469
g73
(dp3470
sg82
g3455
sg75
(lp3471
g68
(g69
g70
NtRp3472
(dp3473
g73
(dp3474
g81
I5
ssg82
g3468
sg75
(lp3475
g68
(g77
g70
NtRp3476
(dp3477
g73
(dp3478
g81
I4
ssg82
Nsg75
(lp3479
g68
(g84
g70
NtRp3480
(dp3481
g73
(dp3482
sg82
g3476
sg75
(lp3483
g68
(g89
g70
NtRp3484
(dp3485
g73
(dp3486
g93
g94
ssg82
g3480
sg75
(lp3487
S'Cache-Control'
p3488
asbag68
(g89
g70
NtRp3489
(dp3490
g73
(dp3491
g100
g101
ssg82
g3480
sg75
(lp3492
S':'
asbag68
(g89
g70
NtRp3493
(dp3494
g73
(dp3495
sg82
g3480
sg75
(lp3496
g68
(g69
g70
NtRp3497
(dp3498
g73
(dp3499
g81
I4
ssg82
g3493
sg75
(lp3500
S'no-store, no-cache, must-revalidate, post-check=0, pre-check=0'
p3501
asbasbasbag68
(g84
g70
NtRp3502
(dp3503
g73
(dp3504
sg82
g3476
sg75
(lp3505
g68
(g89
g70
NtRp3506
(dp3507
g73
(dp3508
g93
g94
ssg82
g3502
sg75
(lp3509
S'Content-Type'
p3510
asbag68
(g89
g70
NtRp3511
(dp3512
g73
(dp3513
g100
g101
ssg82
g3502
sg75
(lp3514
S':'
asbag68
(g89
g70
NtRp3515
(dp3516
g73
(dp3517
sg82
g3502
sg75
(lp3518
g68
(g69
g70
NtRp3519
(dp3520
g73
(dp3521
g81
I4
ssg82
g3515
sg75
(lp3522
S'text/html; charset=utf-8'
p3523
asbasbasbag68
(g84
g70
NtRp3524
(dp3525
g73
(dp3526
sg82
g3476
sg75
(lp3527
g68
(g89
g70
NtRp3528
(dp3529
g73
(dp3530
g93
g94
ssg82
g3524
sg75
(lp3531
S'Expires'
p3532
asbag68
(g89
g70
NtRp3533
(dp3534
g73
(dp3535
g100
g101
ssg82
g3524
sg75
(lp3536
S':'
asbag68
(g89
g70
NtRp3537
(dp3538
g73
(dp3539
sg82
g3524
sg75
(lp3540
g68
(g69
g70
NtRp3541
(dp3542
g73
(dp3543
g81
I4
ssg82
g3537
sg75
(lp3544
S'Mon, 09 Apr 2012 20:24:45 GMT'
p3545
asbasbasbag68
(g84
g70
NtRp3546
(dp3547
g73
(dp3548
sg82
g3476
sg75
(lp3549
g68
(g89
g70
NtRp3550
(dp3551
g73
(dp3552
g93
g94
ssg82
g3546
sg75
(lp3553
S'Pragma'
p3554
asbag68
(g89
g70
NtRp3555
(dp3556
g73
(dp3557
g100
g101
ssg82
g3546
sg75
(lp3558
S':'
asbag68
(g89
g70
NtRp3559
(dp3560
g73
(dp3561
sg82
g3546
sg75
(lp3562
g68
(g69
g70
NtRp3563
(dp3564
g73
(dp3565
g81
I4
ssg82
g3559
sg75
(lp3566
S'no-cache'
p3567
asbasbasbag68
(g84
g70
NtRp3568
(dp3569
g73
(dp3570
sg82
g3476
sg75
(lp3571
g68
(g89
g70
NtRp3572
(dp3573
g73
(dp3574
g93
g94
ssg82
g3568
sg75
(lp3575
S'X-Powered-By'
p3576
asbag68
(g89
g70
NtRp3577
(dp3578
g73
(dp3579
g100
g101
ssg82
g3568
sg75
(lp3580
S':'
asbag68
(g89
g70
NtRp3581
(dp3582
g73
(dp3583
sg82
g3568
sg75
(lp3584
g68
(g69
g70
NtRp3585
(dp3586
g73
(dp3587
g81
I4
ssg82
g3581
sg75
(lp3588
S'web2py'
p3589
asbasbasbasbasbasbasbag68
(g84
g70
NtRp3590
(dp3591
g73
(dp3592
sg82
g3087
sg75
(lp3593
g68
(g89
g70
NtRp3594
(dp3595
g73
(dp3596
g93
g94
ssg82
g3590
sg75
(lp3597
S'menu'
p3598
asbag68
(g89
g70
NtRp3599
(dp3600
g73
(dp3601
g100
g101
ssg82
g3590
sg75
(lp3602
S':'
asbag68
(g89
g70
NtRp3603
(dp3604
g73
(dp3605
sg82
g3590
sg75
(lp3606
g68
(g69
g70
NtRp3607
(dp3608
g73
(dp3609
g81
I5
ssg82
g3603
sg75
(lp3610
g68
(g77
g70
NtRp3611
(dp3612
g73
(dp3613
g81
I4
ssg82
Nsg75
(lp3614
g68
(g84
g70
NtRp3615
(dp3616
g73
(dp3617
sg82
g3611
sg75
(lp3618
g68
(g89
g70
NtRp3619
(dp3620
g73
(dp3621
sg82
g3615
sg75
(lp3622
g68
(g69
g70
NtRp3623
(dp3624
g73
(dp3625
g81
I4
ssg82
g3619
sg75
(lp3626
g68
(g77
g70
NtRp3627
(dp3628
g73
(dp3629
g81
I3
ssg82
Nsg75
(lp3630
g68
(g84
g70
NtRp3631
(dp3632
g73
(dp3633
sg82
g3627
sg75
(lp3634
g68
(g89
g70
NtRp3635
(dp3636
g73
(dp3637
sg82
g3631
sg75
(lp3638
g68
(g69
g70
NtRp3639
(dp3640
g73
(dp3641
g81
I3
ssg82
g3635
sg75
(lp3642
cgluon.languages
lazyT_unpickle
p3643
(S't\x04\x00\x00\x00Home'
tRp3644
asbasbasbag68
(g84
g70
NtRp3645
(dp3646
g73
(dp3647
sg82
g3627
sg75
(lp3648
g68
(g89
g70
NtRp3649
(dp3650
g73
(dp3651
sg82
g3645
sg75
(lp3652
g68
(g69
g70
NtRp3653
(dp3654
g73
(dp3655
g81
I3
ssg82
g3649
sg75
(lp3656
g111
asbasbasbag68
(g84
g70
NtRp3657
(dp3658
g73
(dp3659
sg82
g3627
sg75
(lp3660
g68
(g89
g70
NtRp3661
(dp3662
g73
(dp3663
sg82
g3657
sg75
(lp3664
g68
(g69
g70
NtRp3665
(dp3666
g73
(dp3667
g81
I3
ssg82
g3661
sg75
(lp3668
S'/vsalad/default/index'
p3669
asbasbasbag68
(g84
g70
NtRp3670
(dp3671
g73
(dp3672
sg82
g3627
sg75
(lp3673
g68
(g89
g70
NtRp3674
(dp3675
g73
(dp3676
sg82
g3670
sg75
(lp3677
g68
(g69
g70
NtRp3678
(dp3679
g73
(dp3680
g81
I3
ssg82
g3674
sg75
(lp3681
g68
(g77
g70
NtRp3682
(dp3683
g73
(dp3684
g81
I2
ssg82
Nsg75
(lp3685
sbasbasbasbasbasbasbasbag68
(g84
g70
NtRp3686
(dp3687
g73
(dp3688
sg82
g3611
sg75
(lp3689
g68
(g89
g70
NtRp3690
(dp3691
g73
(dp3692
sg82
g3686
sg75
(lp3693
g68
(g69
g70
NtRp3694
(dp3695
g73
(dp3696
g81
I4
ssg82
g3690
sg75
(lp3697
g68
(g77
g70
NtRp3698
(dp3699
g73
(dp3700
g81
I3
ssg82
Nsg75
(lp3701
g68
(g84
g70
NtRp3702
(dp3703
g73
(dp3704
sg82
g3698
sg75
(lp3705
g68
(g89
g70
NtRp3706
(dp3707
g73
(dp3708
sg82
g3702
sg75
(lp3709
g68
(g69
g70
NtRp3710
(dp3711
g73
(dp3712
g81
I3
ssg82
g3706
sg75
(lp3713
g68
(cgluon.html
SPAN
p3714
g70
NtRp3715
(dp3716
g73
(dp3717
g93
S'color:yellow'
p3718
ssg82
Nsg75
(lp3719
g3589
asbasbasbasbag68
(g84
g70
NtRp3720
(dp3721
g73
(dp3722
sg82
g3698
sg75
(lp3723
g68
(g89
g70
NtRp3724
(dp3725
g73
(dp3726
sg82
g3720
sg75
(lp3727
g68
(g69
g70
NtRp3728
(dp3729
g73
(dp3730
g81
I3
ssg82
g3724
sg75
(lp3731
g111
asbasbasbag68
(g84
g70
NtRp3732
(dp3733
g73
(dp3734
sg82
g3698
sg75
(lp3735
g68
(g89
g70
NtRp3736
(dp3737
g73
(dp3738
sg82
g3732
sg75
(lp3739
g68
(g69
g70
NtRp3740
(dp3741
g73
(dp3742
g81
I3
ssg82
g3736
sg75
(lp3743
S'None'
p3744
asbasbasbag68
(g84
g70
NtRp3745
(dp3746
g73
(dp3747
sg82
g3698
sg75
(lp3748
g68
(g89
g70
NtRp3749
(dp3750
g73
(dp3751
sg82
g3745
sg75
(lp3752
g68
(g69
g70
NtRp3753
(dp3754
g73
(dp3755
g81
I3
ssg82
g3749
sg75
(lp3756
g68
(g77
g70
NtRp3757
(dp3758
g73
(dp3759
g81
I2
ssg82
Nsg75
(lp3760
g68
(g84
g70
NtRp3761
(dp3762
g73
(dp3763
sg82
g3757
sg75
(lp3764
g68
(g89
g70
NtRp3765
(dp3766
g73
(dp3767
sg82
g3761
sg75
(lp3768
g68
(g69
g70
NtRp3769
(dp3770
g73
(dp3771
g81
I2
ssg82
g3765
sg75
(lp3772
g68
(g77
g70
NtRp3773
(dp3774
g73
(dp3775
g81
I1
ssg82
Nsg75
(lp3776
g68
(g84
g70
NtRp3777
(dp3778
g73
(dp3779
sg82
g3773
sg75
(lp3780
g68
(g89
g70
NtRp3781
(dp3782
g73
(dp3783
sg82
g3777
sg75
(lp3784
g68
(g69
g70
NtRp3785
(dp3786
g73
(dp3787
g81
I1
ssg82
g3781
sg75
(lp3788
g3643
(S's\x08\x00\x00\x00My Sites'
tRp3789
asbasbasbag68
(g84
g70
NtRp3790
(dp3791
g73
(dp3792
sg82
g3773
sg75
(lp3793
g68
(g89
g70
NtRp3794
(dp3795
g73
(dp3796
sg82
g3790
sg75
(lp3797
g68
(g69
g70
NtRp3798
(dp3799
g73
(dp3800
g81
I1
ssg82
g3794
sg75
(lp3801
I00
asbasbasbag68
(g84
g70
NtRp3802
(dp3803
g73
(dp3804
sg82
g3773
sg75
(lp3805
g68
(g89
g70
NtRp3806
(dp3807
g73
(dp3808
sg82
g3802
sg75
(lp3809
g68
(g69
g70
NtRp3810
(dp3811
g73
(dp3812
g81
I1
ssg82
g3806
sg75
(lp3813
S'/admin/default/site'
p3814
asbasbasbasbasbasbasbag68
(g84
g70
NtRp3815
(dp3816
g73
(dp3817
sg82
g3757
sg75
(lp3818
g68
(g89
g70
NtRp3819
(dp3820
g73
(dp3821
sg82
g3815
sg75
(lp3822
g68
(g69
g70
NtRp3823
(dp3824
g73
(dp3825
g81
I2
ssg82
g3819
sg75
(lp3826
g68
(g77
g70
NtRp3827
(dp3828
g73
(dp3829
g81
I1
ssg82
Nsg75
(lp3830
g68
(g84
g70
NtRp3831
(dp3832
g73
(dp3833
sg82
g3827
sg75
(lp3834
g68
(g89
g70
NtRp3835
(dp3836
g73
(dp3837
sg82
g3831
sg75
(lp3838
g68
(g69
g70
NtRp3839
(dp3840
g73
(dp3841
g81
I1
ssg82
g3835
sg75
(lp3842
g3643
(S's\x08\x00\x00\x00This App'
tRp3843
asbasbasbag68
(g84
g70
NtRp3844
(dp3845
g73
(dp3846
sg82
g3827
sg75
(lp3847
g68
(g89
g70
NtRp3848
(dp3849
g73
(dp3850
sg82
g3844
sg75
(lp3851
g68
(g69
g70
NtRp3852
(dp3853
g73
(dp3854
g81
I1
ssg82
g3848
sg75
(lp3855
I00
asbasbasbag68
(g84
g70
NtRp3856
(dp3857
g73
(dp3858
sg82
g3827
sg75
(lp3859
g68
(g89
g70
NtRp3860
(dp3861
g73
(dp3862
sg82
g3856
sg75
(lp3863
g68
(g69
g70
NtRp3864
(dp3865
g73
(dp3866
g81
I1
ssg82
g3860
sg75
(lp3867
S'/admin/default/design/vsalad'
p3868
asbasbasbag68
(g84
g70
NtRp3869
(dp3870
g73
(dp3871
sg82
g3827
sg75
(lp3872
g68
(g89
g70
NtRp3873
(dp3874
g73
(dp3875
sg82
g3869
sg75
(lp3876
g68
(g69
g70
NtRp3877
(dp3878
g73
(dp3879
g81
I1
ssg82
g3873
sg75
(lp3880
(lp3881
(g3643
(S't\n\x00\x00\x00Controller'
tRp3882
I00
S'/admin/default/edit/vsalad/controllers/action.py'
tp3883
a(g3643
(S't\x04\x00\x00\x00View'
tRp3884
I00
S'/admin/default/edit/vsalad/views/action/comments.html'
tp3885
a(g3643
(S't\x06\x00\x00\x00Layout'
tRp3886
I00
S'/admin/default/edit/vsalad/views/layout.html'
tp3887
a(g3643
(S't\n\x00\x00\x00Stylesheet'
tRp3888
I00
S'/admin/default/edit/vsalad/static/css/web2py.css'
tp3889
a(g3643
(S's\x08\x00\x00\x00DB Model'
tRp3890
I00
S'/admin/default/edit/vsalad/models/db.py'
tp3891
a(g3643
(S's\n\x00\x00\x00Menu Model'
tRp3892
I00
S'/admin/default/edit/vsalad/models/menu.py'
tp3893
a(g3643
(S't\x08\x00\x00\x00Database'
tRp3894
I00
S'/vsalad/appadmin/index'
tp3895
a(g3643
(S't\x06\x00\x00\x00Errors'
tRp3896
I00
S'/admin/default/errors/vsalad'
tp3897
a(g3643
(S't\x05\x00\x00\x00About'
tRp3898
I00
S'/admin/default/about/vsalad'
tp3899
aasbasbasbasbasbasbasbag68
(g84
g70
NtRp3900
(dp3901
g73
(dp3902
sg82
g3757
sg75
(lp3903
g68
(g89
g70
NtRp3904
(dp3905
g73
(dp3906
sg82
g3900
sg75
(lp3907
g68
(g69
g70
NtRp3908
(dp3909
g73
(dp3910
g81
I2
ssg82
g3904
sg75
(lp3911
g68
(g77
g70
NtRp3912
(dp3913
g73
(dp3914
g81
I1
ssg82
Nsg75
(lp3915
g68
(g84
g70
NtRp3916
(dp3917
g73
(dp3918
sg82
g3912
sg75
(lp3919
g68
(g89
g70
NtRp3920
(dp3921
g73
(dp3922
sg82
g3916
sg75
(lp3923
g68
(g69
g70
NtRp3924
(dp3925
g73
(dp3926
g81
I1
ssg82
g3920
sg75
(lp3927
S'web2py.com'
p3928
asbasbasbag68
(g84
g70
NtRp3929
(dp3930
g73
(dp3931
sg82
g3912
sg75
(lp3932
g68
(g89
g70
NtRp3933
(dp3934
g73
(dp3935
sg82
g3929
sg75
(lp3936
g68
(g69
g70
NtRp3937
(dp3938
g73
(dp3939
g81
I1
ssg82
g3933
sg75
(lp3940
I00
asbasbasbag68
(g84
g70
NtRp3941
(dp3942
g73
(dp3943
sg82
g3912
sg75
(lp3944
g68
(g89
g70
NtRp3945
(dp3946
g73
(dp3947
sg82
g3941
sg75
(lp3948
g68
(g69
g70
NtRp3949
(dp3950
g73
(dp3951
g81
I1
ssg82
g3945
sg75
(lp3952
S'http://www.web2py.com'
p3953
asbasbasbag68
(g84
g70
NtRp3954
(dp3955
g73
(dp3956
sg82
g3912
sg75
(lp3957
g68
(g89
g70
NtRp3958
(dp3959
g73
(dp3960
sg82
g3954
sg75
(lp3961
g68
(g69
g70
NtRp3962
(dp3963
g73
(dp3964
g81
I1
ssg82
g3958
sg75
(lp3965
(lp3966
(g3643
(S't\x08\x00\x00\x00Download'
tRp3967
I00
S'http://www.web2py.com/examples/default/download'
p3968
tp3969
a(g3643
(S't\x07\x00\x00\x00Support'
tRp3970
I00
S'http://www.web2py.com/examples/default/support'
p3971
tp3972
a(g3643
(S't\x04\x00\x00\x00Demo'
tRp3973
I00
S'http://web2py.com/demo_admin'
p3974
tp3975
a(g3643
(S's\x0e\x00\x00\x00Quick Examples'
tRp3976
I00
S'http://web2py.com/examples/default/examples'
p3977
tp3978
a(g3643
(S't\x03\x00\x00\x00FAQ'
tRp3979
I00
S'http://web2py.com/AlterEgo'
p3980
tp3981
a(g3643
(S't\x06\x00\x00\x00Videos'
tRp3982
I00
S'http://www.web2py.com/examples/default/videos/'
p3983
tp3984
a(g3643
(S's\x11\x00\x00\x00Free Applications'
tRp3985
I00
S'http://web2py.com/appliances'
p3986
tp3987
a(g3643
(S't\x07\x00\x00\x00Plugins'
tRp3988
I00
S'http://web2py.com/plugins'
p3989
tp3990
a(g3643
(S't\x07\x00\x00\x00Layouts'
tRp3991
I00
S'http://web2py.com/layouts'
p3992
tp3993
a(g3643
(S't\x07\x00\x00\x00Recipes'
tRp3994
I00
S'http://web2pyslices.com/'
p3995
tp3996
a(g3643
(S't\x08\x00\x00\x00Semantic'
tRp3997
I00
S'http://web2py.com/semantic'
p3998
tp3999
aasbasbasbasbasbasbasbag68
(g84
g70
NtRp4000
(dp4001
g73
(dp4002
sg82
g3757
sg75
(lp4003
g68
(g89
g70
NtRp4004
(dp4005
g73
(dp4006
sg82
g4000
sg75
(lp4007
g68
(g69
g70
NtRp4008
(dp4009
g73
(dp4010
g81
I2
ssg82
g4004
sg75
(lp4011
g68
(g77
g70
NtRp4012
(dp4013
g73
(dp4014
g81
I1
ssg82
Nsg75
(lp4015
g68
(g84
g70
NtRp4016
(dp4017
g73
(dp4018
sg82
g4012
sg75
(lp4019
g68
(g89
g70
NtRp4020
(dp4021
g73
(dp4022
sg82
g4016
sg75
(lp4023
g68
(g69
g70
NtRp4024
(dp4025
g73
(dp4026
g81
I1
ssg82
g4020
sg75
(lp4027
g3643
(S't\r\x00\x00\x00Documentation'
tRp4028
asbasbasbag68
(g84
g70
NtRp4029
(dp4030
g73
(dp4031
sg82
g4012
sg75
(lp4032
g68
(g89
g70
NtRp4033
(dp4034
g73
(dp4035
sg82
g4029
sg75
(lp4036
g68
(g69
g70
NtRp4037
(dp4038
g73
(dp4039
g81
I1
ssg82
g4033
sg75
(lp4040
I00
asbasbasbag68
(g84
g70
NtRp4041
(dp4042
g73
(dp4043
sg82
g4012
sg75
(lp4044
g68
(g89
g70
NtRp4045
(dp4046
g73
(dp4047
sg82
g4041
sg75
(lp4048
g68
(g69
g70
NtRp4049
(dp4050
g73
(dp4051
g81
I1
ssg82
g4045
sg75
(lp4052
S'http://www.web2py.com/book'
p4053
asbasbasbag68
(g84
g70
NtRp4054
(dp4055
g73
(dp4056
sg82
g4012
sg75
(lp4057
g68
(g89
g70
NtRp4058
(dp4059
g73
(dp4060
sg82
g4054
sg75
(lp4061
g68
(g69
g70
NtRp4062
(dp4063
g73
(dp4064
g81
I1
ssg82
g4058
sg75
(lp4065
(lp4066
(g3643
(S't\x07\x00\x00\x00Preface'
tRp4067
I00
S'http://www.web2py.com/book/default/chapter/00'
p4068
tp4069
a(g3643
(S't\x0c\x00\x00\x00Introduction'
tRp4070
I00
S'http://www.web2py.com/book/default/chapter/01'
p4071
tp4072
a(g3643
(S't\x06\x00\x00\x00Python'
tRp4073
I00
S'http://www.web2py.com/book/default/chapter/02'
p4074
tp4075
a(g3643
(S't\x08\x00\x00\x00Overview'
tRp4076
I00
S'http://www.web2py.com/book/default/chapter/03'
p4077
tp4078
a(g3643
(S's\x08\x00\x00\x00The Core'
tRp4079
I00
S'http://www.web2py.com/book/default/chapter/04'
p4080
tp4081
a(g3643
(S's\t\x00\x00\x00The Views'
tRp4082
I00
S'http://www.web2py.com/book/default/chapter/05'
p4083
tp4084
a(g3643
(S't\x08\x00\x00\x00Database'
tRp4085
I00
S'http://www.web2py.com/book/default/chapter/06'
p4086
tp4087
a(g3643
(S's\x14\x00\x00\x00Forms and Validators'
tRp4088
I00
S'http://www.web2py.com/book/default/chapter/07'
p4089
tp4090
a(g3643
(S's\r\x00\x00\x00Email and SMS'
tRp4091
I00
S'http://www.web2py.com/book/default/chapter/08'
p4092
tp4093
a(g3643
(S's\x0e\x00\x00\x00Access Control'
tRp4094
I00
S'http://www.web2py.com/book/default/chapter/09'
p4095
tp4096
a(g3643
(S't\x08\x00\x00\x00Services'
tRp4097
I00
S'http://www.web2py.com/book/default/chapter/10'
p4098
tp4099
a(g3643
(S's\x0c\x00\x00\x00Ajax Recipes'
tRp4100
I00
S'http://www.web2py.com/book/default/chapter/11'
p4101
tp4102
a(g3643
(S's\x16\x00\x00\x00Components and Plugins'
tRp4103
I00
S'http://www.web2py.com/book/default/chapter/12'
p4104
tp4105
a(g3643
(S's\x12\x00\x00\x00Deployment Recipes'
tRp4106
I00
S'http://www.web2py.com/book/default/chapter/13'
p4107
tp4108
a(g3643
(S's\r\x00\x00\x00Other Recipes'
tRp4109
I00
S'http://www.web2py.com/book/default/chapter/14'
p4110
tp4111
a(g3643
(S's\r\x00\x00\x00Buy this book'
tRp4112
I00
S'http://stores.lulu.com/web2py'
p4113
tp4114
aasbasbasbasbasbasbasbag68
(g84
g70
NtRp4115
(dp4116
g73
(dp4117
sg82
g3757
sg75
(lp4118
g68
(g89
g70
NtRp4119
(dp4120
g73
(dp4121
sg82
g4115
sg75
(lp4122
g68
(g69
g70
NtRp4123
(dp4124
g73
(dp4125
g81
I2
ssg82
g4119
sg75
(lp4126
g68
(g77
g70
NtRp4127
(dp4128
g73
(dp4129
g81
I1
ssg82
Nsg75
(lp4130
g68
(g84
g70
NtRp4131
(dp4132
g73
(dp4133
sg82
g4127
sg75
(lp4134
g68
(g89
g70
NtRp4135
(dp4136
g73
(dp4137
sg82
g4131
sg75
(lp4138
g68
(g69
g70
NtRp4139
(dp4140
g73
(dp4141
g81
I1
ssg82
g4135
sg75
(lp4142
g3643
(S't\t\x00\x00\x00Community'
tRp4143
asbasbasbag68
(g84
g70
NtRp4144
(dp4145
g73
(dp4146
sg82
g4127
sg75
(lp4147
g68
(g89
g70
NtRp4148
(dp4149
g73
(dp4150
sg82
g4144
sg75
(lp4151
g68
(g69
g70
NtRp4152
(dp4153
g73
(dp4154
g81
I1
ssg82
g4148
sg75
(lp4155
I00
asbasbasbag68
(g84
g70
NtRp4156
(dp4157
g73
(dp4158
sg82
g4127
sg75
(lp4159
g68
(g89
g70
NtRp4160
(dp4161
g73
(dp4162
sg82
g4156
sg75
(lp4163
g68
(g69
g70
NtRp4164
(dp4165
g73
(dp4166
g81
I1
ssg82
g4160
sg75
(lp4167
Nasbasbasbag68
(g84
g70
NtRp4168
(dp4169
g73
(dp4170
sg82
g4127
sg75
(lp4171
g68
(g89
g70
NtRp4172
(dp4173
g73
(dp4174
sg82
g4168
sg75
(lp4175
g68
(g69
g70
NtRp4176
(dp4177
g73
(dp4178
g81
I1
ssg82
g4172
sg75
(lp4179
(lp4180
(g3643
(S't\x06\x00\x00\x00Groups'
tRp4181
I00
S'http://www.web2py.com/examples/default/usergroups'
p4182
tp4183
a(g3643
(S't\x07\x00\x00\x00Twitter'
tRp4184
I00
S'http://twitter.com/web2py'
p4185
tp4186
a(g3643
(S's\t\x00\x00\x00Live Chat'
tRp4187
I00
S'http://webchat.freenode.net/?channels=web2py'
p4188
tp4189
aasbasbasbasbasbasbasbag68
(g84
g70
NtRp4190
(dp4191
g73
(dp4192
sg82
g3757
sg75
(lp4193
g68
(g89
g70
NtRp4194
(dp4195
g73
(dp4196
sg82
g4190
sg75
(lp4197
g68
(g69
g70
NtRp4198
(dp4199
g73
(dp4200
g81
I2
ssg82
g4194
sg75
(lp4201
g68
(g77
g70
NtRp4202
(dp4203
g73
(dp4204
g81
I1
ssg82
Nsg75
(lp4205
g68
(g84
g70
NtRp4206
(dp4207
g73
(dp4208
sg82
g4202
sg75
(lp4209
g68
(g89
g70
NtRp4210
(dp4211
g73
(dp4212
sg82
g4206
sg75
(lp4213
g68
(g69
g70
NtRp4214
(dp4215
g73
(dp4216
g81
I1
ssg82
g4210
sg75
(lp4217
g3643
(S't\x07\x00\x00\x00Plugins'
tRp4218
asbasbasbag68
(g84
g70
NtRp4219
(dp4220
g73
(dp4221
sg82
g4202
sg75
(lp4222
g68
(g89
g70
NtRp4223
(dp4224
g73
(dp4225
sg82
g4219
sg75
(lp4226
g68
(g69
g70
NtRp4227
(dp4228
g73
(dp4229
g81
I1
ssg82
g4223
sg75
(lp4230
I00
asbasbasbag68
(g84
g70
NtRp4231
(dp4232
g73
(dp4233
sg82
g4202
sg75
(lp4234
g68
(g89
g70
NtRp4235
(dp4236
g73
(dp4237
sg82
g4231
sg75
(lp4238
g68
(g69
g70
NtRp4239
(dp4240
g73
(dp4241
g81
I1
ssg82
g4235
sg75
(lp4242
Nasbasbasbag68
(g84
g70
NtRp4243
(dp4244
g73
(dp4245
sg82
g4202
sg75
(lp4246
g68
(g89
g70
NtRp4247
(dp4248
g73
(dp4249
sg82
g4243
sg75
(lp4250
g68
(g69
g70
NtRp4251
(dp4252
g73
(dp4253
g81
I1
ssg82
g4247
sg75
(lp4254
(lp4255
(S'plugin_wiki'
p4256
I00
S'http://web2py.com/examples/default/download'
p4257
tp4258
a(g3643
(S's\r\x00\x00\x00Other Plugins'
tRp4259
I00
g3989
tp4260
a(g3643
(S's\x0e\x00\x00\x00Layout Plugins'
tRp4261
I00
g3992
tp4262
aasbasbasbasbasbasbasbasbasbasbasbasbasbasbasbasbasbasbasbag68
(g84
g70
NtRp4263
(dp4264
g73
(dp4265
sg82
g3087
sg75
(lp4266
g68
(g89
g70
NtRp4267
(dp4268
g73
(dp4269
g93
g94
ssg82
g4263
sg75
(lp4270
S'meta'
p4271
asbag68
(g89
g70
NtRp4272
(dp4273
g73
(dp4274
g100
g101
ssg82
g4263
sg75
(lp4275
S':'
asbag68
(g89
g70
NtRp4276
(dp4277
g73
(dp4278
sg82
g4263
sg75
(lp4279
g68
(g69
g70
NtRp4280
(dp4281
g73
(dp4282
g81
I5
ssg82
g4276
sg75
(lp4283
g68
(g77
g70
NtRp4284
(dp4285
g73
(dp4286
g81
I4
ssg82
Nsg75
(lp4287
g68
(g84
g70
NtRp4288
(dp4289
g73
(dp4290
sg82
g4284
sg75
(lp4291
g68
(g89
g70
NtRp4292
(dp4293
g73
(dp4294
g93
g94
ssg82
g4288
sg75
(lp4295
S'author'
p4296
asbag68
(g89
g70
NtRp4297
(dp4298
g73
(dp4299
g100
g101
ssg82
g4288
sg75
(lp4300
S':'
asbag68
(g89
g70
NtRp4301
(dp4302
g73
(dp4303
sg82
g4288
sg75
(lp4304
g68
(g69
g70
NtRp4305
(dp4306
g73
(dp4307
g81
I4
ssg82
g4301
sg75
(lp4308
S'Your Name <you@example.com>'
p4309
asbasbasbag68
(g84
g70
NtRp4310
(dp4311
g73
(dp4312
sg82
g4284
sg75
(lp4313
g68
(g89
g70
NtRp4314
(dp4315
g73
(dp4316
g93
g94
ssg82
g4310
sg75
(lp4317
S'copyright'
p4318
asbag68
(g89
g70
NtRp4319
(dp4320
g73
(dp4321
g100
g101
ssg82
g4310
sg75
(lp4322
S':'
asbag68
(g89
g70
NtRp4323
(dp4324
g73
(dp4325
sg82
g4310
sg75
(lp4326
g68
(g69
g70
NtRp4327
(dp4328
g73
(dp4329
g81
I4
ssg82
g4323
sg75
(lp4330
S'Copyright 2011'
p4331
asbasbasbag68
(g84
g70
NtRp4332
(dp4333
g73
(dp4334
sg82
g4284
sg75
(lp4335
g68
(g89
g70
NtRp4336
(dp4337
g73
(dp4338
g93
g94
ssg82
g4332
sg75
(lp4339
S'description'
p4340
asbag68
(g89
g70
NtRp4341
(dp4342
g73
(dp4343
g100
g101
ssg82
g4332
sg75
(lp4344
S':'
asbag68
(g89
g70
NtRp4345
(dp4346
g73
(dp4347
sg82
g4332
sg75
(lp4348
g68
(g69
g70
NtRp4349
(dp4350
g73
(dp4351
g81
I4
ssg82
g4345
sg75
(lp4352
S'a cool new app'
p4353
asbasbasbag68
(g84
g70
NtRp4354
(dp4355
g73
(dp4356
sg82
g4284
sg75
(lp4357
g68
(g89
g70
NtRp4358
(dp4359
g73
(dp4360
g93
g94
ssg82
g4354
sg75
(lp4361
S'generator'
p4362
asbag68
(g89
g70
NtRp4363
(dp4364
g73
(dp4365
g100
g101
ssg82
g4354
sg75
(lp4366
S':'
asbag68
(g89
g70
NtRp4367
(dp4368
g73
(dp4369
sg82
g4354
sg75
(lp4370
g68
(g69
g70
NtRp4371
(dp4372
g73
(dp4373
g81
I4
ssg82
g4367
sg75
(lp4374
S'Web2py Web Framework'
p4375
asbasbasbag68
(g84
g70
NtRp4376
(dp4377
g73
(dp4378
sg82
g4284
sg75
(lp4379
g68
(g89
g70
NtRp4380
(dp4381
g73
(dp4382
g93
g94
ssg82
g4376
sg75
(lp4383
S'keywords'
p4384
asbag68
(g89
g70
NtRp4385
(dp4386
g73
(dp4387
g100
g101
ssg82
g4376
sg75
(lp4388
S':'
asbag68
(g89
g70
NtRp4389
(dp4390
g73
(dp4391
sg82
g4376
sg75
(lp4392
g68
(g69
g70
NtRp4393
(dp4394
g73
(dp4395
g81
I4
ssg82
g4389
sg75
(lp4396
S'web2py, python, framework'
p4397
asbasbasbasbasbasbasbag68
(g84
g70
NtRp4398
(dp4399
g73
(dp4400
sg82
g3087
sg75
(lp4401
g68
(g89
g70
NtRp4402
(dp4403
g73
(dp4404
g93
g94
ssg82
g4398
sg75
(lp4405
S'postprocessing'
p4406
asbag68
(g89
g70
NtRp4407
(dp4408
g73
(dp4409
g100
g101
ssg82
g4398
sg75
(lp4410
S':'
asbag68
(g89
g70
NtRp4411
(dp4412
g73
(dp4413
sg82
g4398
sg75
(lp4414
g68
(g69
g70
NtRp4415
(dp4416
g73
(dp4417
g81
I5
ssg82
g4411
sg75
(lp4418
g68
(g77
g70
NtRp4419
(dp4420
g73
(dp4421
g81
I4
ssg82
Nsg75
(lp4422
sbasbasbasbag68
(g84
g70
NtRp4423
(dp4424
g73
(dp4425
sg82
g3087
sg75
(lp4426
g68
(g89
g70
NtRp4427
(dp4428
g73
(dp4429
g93
g94
ssg82
g4423
sg75
(lp4430
S'session_filename'
p4431
asbag68
(g89
g70
NtRp4432
(dp4433
g73
(dp4434
g100
g101
ssg82
g4423
sg75
(lp4435
S':'
asbag68
(g89
g70
NtRp4436
(dp4437
g73
(dp4438
sg82
g4423
sg75
(lp4439
g68
(g69
g70
NtRp4440
(dp4441
g73
(dp4442
g81
I5
ssg82
g4436
sg75
(lp4443
S'/home/fish/Desktop/web2py/applications/vsalad/sessions/127.0.0.1-712ea7b6-e500-4a85-ade8-ab9d0ccab17a'
p4444
asbasbasbag68
(g84
g70
NtRp4445
(dp4446
g73
(dp4447
sg82
g3087
sg75
(lp4448
g68
(g89
g70
NtRp4449
(dp4450
g73
(dp4451
g93
g94
ssg82
g4445
sg75
(lp4452
S'session_id'
p4453
asbag68
(g89
g70
NtRp4454
(dp4455
g73
(dp4456
g100
g101
ssg82
g4445
sg75
(lp4457
S':'
asbag68
(g89
g70
NtRp4458
(dp4459
g73
(dp4460
sg82
g4445
sg75
(lp4461
g68
(g69
g70
NtRp4462
(dp4463
g73
(dp4464
g81
I5
ssg82
g4458
sg75
(lp4465
S'127.0.0.1-712ea7b6-e500-4a85-ade8-ab9d0ccab17a'
p4466
asbasbasbag68
(g84
g70
NtRp4467
(dp4468
g73
(dp4469
sg82
g3087
sg75
(lp4470
g68
(g89
g70
NtRp4471
(dp4472
g73
(dp4473
g93
g94
ssg82
g4467
sg75
(lp4474
S'session_id_name'
p4475
asbag68
(g89
g70
NtRp4476
(dp4477
g73
(dp4478
g100
g101
ssg82
g4467
sg75
(lp4479
S':'
asbag68
(g89
g70
NtRp4480
(dp4481
g73
(dp4482
sg82
g4467
sg75
(lp4483
g68
(g69
g70
NtRp4484
(dp4485
g73
(dp4486
g81
I5
ssg82
g4480
sg75
(lp4487
g3144
asbasbasbag68
(g84
g70
NtRp4488
(dp4489
g73
(dp4490
sg82
g3087
sg75
(lp4491
g68
(g89
g70
NtRp4492
(dp4493
g73
(dp4494
g93
g94
ssg82
g4488
sg75
(lp4495
S'session_new'
p4496
asbag68
(g89
g70
NtRp4497
(dp4498
g73
(dp4499
g100
g101
ssg82
g4488
sg75
(lp4500
S':'
asbag68
(g89
g70
NtRp4501
(dp4502
g73
(dp4503
sg82
g4488
sg75
(lp4504
g68
(g69
g70
NtRp4505
(dp4506
g73
(dp4507
g81
I5
ssg82
g4501
sg75
(lp4508
g971
asbasbasbag68
(g84
g70
NtRp4509
(dp4510
g73
(dp4511
sg82
g3087
sg75
(lp4512
g68
(g89
g70
NtRp4513
(dp4514
g73
(dp4515
g93
g94
ssg82
g4509
sg75
(lp4516
S'status'
p4517
asbag68
(g89
g70
NtRp4518
(dp4519
g73
(dp4520
g100
g101
ssg82
g4509
sg75
(lp4521
S':'
asbag68
(g89
g70
NtRp4522
(dp4523
g73
(dp4524
sg82
g4509
sg75
(lp4525
g68
(g69
g70
NtRp4526
(dp4527
g73
(dp4528
g81
I5
ssg82
g4522
sg75
(lp4529
S'200'
p4530
asbasbasbag68
(g84
g70
NtRp4531
(dp4532
g73
(dp4533
sg82
g3087
sg75
(lp4534
g68
(g89
g70
NtRp4535
(dp4536
g73
(dp4537
g93
g94
ssg82
g4531
sg75
(lp4538
S'subtitle'
p4539
asbag68
(g89
g70
NtRp4540
(dp4541
g73
(dp4542
g100
g101
ssg82
g4531
sg75
(lp4543
S':'
asbag68
(g89
g70
NtRp4544
(dp4545
g73
(dp4546
sg82
g4531
sg75
(lp4547
g68
(g69
g70
NtRp4548
(dp4549
g73
(dp4550
g81
I5
ssg82
g4544
sg75
(lp4551
g3643
(S's\r\x00\x00\x00customize me!'
tRp4552
asbasbasbag68
(g84
g70
NtRp4553
(dp4554
g73
(dp4555
sg82
g3087
sg75
(lp4556
g68
(g89
g70
NtRp4557
(dp4558
g73
(dp4559
g93
g94
ssg82
g4553
sg75
(lp4560
S'title'
p4561
asbag68
(g89
g70
NtRp4562
(dp4563
g73
(dp4564
g100
g101
ssg82
g4553
sg75
(lp4565
S':'
asbag68
(g89
g70
NtRp4566
(dp4567
g73
(dp4568
sg82
g4553
sg75
(lp4569
g68
(g69
g70
NtRp4570
(dp4571
g73
(dp4572
g81
I5
ssg82
g4566
sg75
(lp4573
S'Vsalad'
p4574
asbasbasbag68
(g84
g70
NtRp4575
(dp4576
g73
(dp4577
sg82
g3087
sg75
(lp4578
g68
(g89
g70
NtRp4579
(dp4580
g73
(dp4581
g93
g94
ssg82
g4575
sg75
(lp4582
g2353
asbag68
(g89
g70
NtRp4583
(dp4584
g73
(dp4585
g100
g101
ssg82
g4575
sg75
(lp4586
S':'
asbag68
(g89
g70
NtRp4587
(dp4588
g73
(dp4589
sg82
g4575
sg75
(lp4590
g68
(g69
g70
NtRp4591
(dp4592
g73
(dp4593
g81
I5
ssg82
g4587
sg75
(lp4594
g2366
asbasbasbag68
(g84
g70
NtRp4595
(dp4596
g73
(dp4597
sg82
g3087
sg75
(lp4598
g68
(g89
g70
NtRp4599
(dp4600
g73
(dp4601
g93
g94
ssg82
g4595
sg75
(lp4602
S'view'
p4603
asbag68
(g89
g70
NtRp4604
(dp4605
g73
(dp4606
g100
g101
ssg82
g4595
sg75
(lp4607
S':'
asbag68
(g89
g70
NtRp4608
(dp4609
g73
(dp4610
sg82
g4595
sg75
(lp4611
g68
(g69
g70
NtRp4612
(dp4613
g73
(dp4614
g81
I5
ssg82
g4608
sg75
(lp4615
S'action/comments.html'
p4616
asbasbasbasbasbsS'locals'
p4617
(dp4618
g4
S"'/home/fish/Desktop/web2py/applications/vsalad/views/action/comments.html'"
p4619
sg6
S'\'response.write(\\\'<html>\\\\n<head>\\\\n<script src="htt...ponse.write(\\\'\\\\n</body>\\\\n</html>\\\\n\\\', escape=False)\''
p4620
sssS'traceback'
p4621
S'Traceback (most recent call last):\n  File "/home/fish/Desktop/web2py/gluon/restricted.py", line 204, in restricted\n    ccode = compile2(code,layer)\n  File "/home/fish/Desktop/web2py/gluon/restricted.py", line 189, in compile2\n    return compile(code.rstrip().replace(\'\\r\\n\',\'\\n\')+\'\\n\', layer, \'exec\')\n  File "/home/fish/Desktop/web2py/applications/vsalad/views/action/comments.html", line 6\n    {=x[\'body\']\n     ^\nSyntaxError: invalid syntax\n'
p4622
s.