(dp1
S'output'
p2
S"<type 'exceptions.SyntaxError'> not enough information to build the url"
p3
sS'layer'
p4
S'/home/fish/Desktop/web2py/applications/vsalad/views/action/comments.html'
p5
sS'code'
p6
S'response.write(\'<html lang="en">\\n<head>\\n    <script src="\', escape=False)\nresponse.write(URL(\'static\',\'js/jquery.js\'))\nresponse.write(\'"></script>\\n    <script src="\', escape=False)\nresponse.write(URL(\'static\',\'js/vsalad.js\'))\nresponse.write(\'"></script>\\n    <link rel="stylesheet" href="\', escape=False)\nresponse.write(URL(\'static\',\'css/vs.css\'))\nresponse.write(\'"></link>\\n    <meta charset="utf-8">\\n    <title>Voodoo Salad</title>\\n    <meta name="viewport" content="width=device-width, initial-scale=1.0">\\n    <meta name="description" content="">\\n    <meta name="author" content="">\\n\\n    <!-- Styles -->\\n    <link href="\', escape=False)\nresponse.write(URL(\'static\',\'css/bootstrap.css\'))\nresponse.write(\'" rel="stylesheet">\\n    <link href="\', escape=False)\nresponse.write(URL(\'static\',\'css/bootstrap-responsive.css\'))\nresponse.write(\'" rel="stylesheet">\\n\\n  \\n</head>\\n<body>\\n<div id="welcome-panel" class="hero-unit row">\\n            \\n\\n\\n        <div id="title">\\n         <a href=\', escape=False)\nresponse.write(URL(\'default\', \'/index\'))\nresponse.write(\'">\\n                <h1 class="voodoo span">V&#3232;&#3232;doo {</h1> \\n                <a class="span" href=""><img src="\', escape=False)\nresponse.write(URL(\'static\', \'images/vfish.jpg\'))\nresponse.write(\'"/></a>\\n                 <h1 class="tuna span">} Tuna</h1>\\n                 </a>\\n       </div>\\n    </div>\\n\\n\\n\', escape=False)\nresponse.write(\'\\n<div id="content" class="row">\\n\', escape=False)\nif request.args(0):\n    response.write("\\n  <div id=\'article\'>\\n    <h1>", escape=False)\n    response.write(article.title)\n    response.write(\' </h1>\\n    <p id="tagline"> submitted\\n        <a id="created_on" title="\', escape=False)\n    response.write(article.created_on)\n    response.write(\'"></a>\\n         by\\n        <a href="#" id="author">\', escape=False)\n    response.write(article.author)\n    response.write("</a>\\n      </p>\\n    </div>\\n    <div id=\'user-text\'>\\n    <p>", escape=False)\n    response.write(article.content)\n    response.write(\'</p>\\n    </div>\\n\', escape=False)\n    pass\nresponse.write(\'\\n</div>\\n\\n\\n    <style> \\n    \\n    body, input, textarea {\\ncolor: #373737;\\nfont: 13px "Helvetica Neue", Helvetica, Arial, sans-serif;\\nfont-weight: 300;\\nline-height: 1.625;\\n}\\n\\n     \\n    .comments .user-text {\\n    padding-left :15px;\\n    }\\n\\n    .children {padding-left: 10px;}\\n        \\n    .tagline {\\n    padding: 0;\\n    margin: 0;\\n    font-size: small;\\n    }\\n      \\n    .tagline a{\\n    margin-right: 1px;\\n    text-decoration:none;\\n    font-size: small;\\n    }\\n    \\n    .author {\\n    color: gray;\\n    font-weight: bold;\\n    }\\n    \\n    .flatlist {\\n    font-size: small;\\n    font-weight:bold;\\n    color: gray;\\n    }\\n    </style>\\n\\n\\n\', escape=False)\ndef show(t):\n    response.write(\'\\n    \', escape=False)\n    for x in t:\n        response.write(\'\\n        <div class="comment">\\n        <p class="tagline">\\n            <a class="expand" href="#">[-]</a>\\n            <a class="author" href="#">\', escape=False)\n        response.write(x[\'author\'])\n        response.write(\'</a>\\n            <a class="time" href="#" title="\', escape=False)\n        response.write(x[\'created_on\'])\n        response.write(\'">\', escape=False)\n        response.write(x[\'created_on\'])\n        response.write(\'</a>      \\n            </p>\\n          \\n        <div class="user-text">\', escape=False)\n        response.write(x[\'body\'])\n        response.write(\'</div>\\n        <div class="flatlist">\\n            <a class="reply">reply</a>\\n            </div>\\n        <div class="children">\\n        \', escape=False)\n        if x[\'children\'] != None:\n            response.write(\'\\n            \', escape=False)\n            show(x[\'children\'])\n            response.write(\'\\n            </div>\\n        \', escape=False)\n            pass\n        response.write(\'\\n        </div>\\n    \', escape=False)\n        pass\n    response.write(\'\\n    \', escape=False)\n    return\nresponse.write(\'\\n    \\n\', escape=False)\nshow(children)\nresponse.write(\'\\n\', escape=False)\nresponse.write(\'\\n</body>\\n</html>\\n\', escape=False)'
p7
sS'snapshot'
p8
(dp9
S'exception'
p10
(dp11
S'__getslice__'
p12
S"<method-wrapper '__getslice__' of exceptions.SyntaxError object>"
p13
sS'text'
p14
S'None'
p15
sS'__str__'
p16
S"<method-wrapper '__str__' of exceptions.SyntaxError object>"
p17
sS'__reduce__'
p18
S'<built-in method __reduce__ of exceptions.SyntaxError object>'
p19
sS'__dict__'
p20
S'{}'
p21
sS'__sizeof__'
p22
S'<built-in method __sizeof__ of exceptions.SyntaxError object>'
p23
sS'__init__'
p24
S"<method-wrapper '__init__' of exceptions.SyntaxError object>"
p25
sS'__setattr__'
p26
S"<method-wrapper '__setattr__' of exceptions.SyntaxError object>"
p27
sS'__reduce_ex__'
p28
S'<built-in method __reduce_ex__ of exceptions.SyntaxError object>'
p29
sS'__new__'
p30
S'<built-in method __new__ of type object>'
p31
sS'__format__'
p32
S'<built-in method __format__ of exceptions.SyntaxError object>'
p33
sS'__class__'
p34
S"<type 'exceptions.SyntaxError'>"
p35
sS'filename'
p36
S'None'
p37
sS'lineno'
p38
S'None'
p39
sS'msg'
p40
S"'not enough information to build the url'"
p41
sS'__doc__'
p42
S"'Invalid syntax.'"
p43
sS'__getitem__'
p44
S"<method-wrapper '__getitem__' of exceptions.SyntaxError object>"
p45
sS'__setstate__'
p46
S'<built-in method __setstate__ of exceptions.SyntaxError object>'
p47
sS'__getattribute__'
p48
S"<method-wrapper '__getattribute__' of exceptions.SyntaxError object>"
p49
sS'print_file_and_line'
p50
S'None'
p51
sS'args'
p52
S"('not enough information to build the url',)"
p53
sS'__subclasshook__'
p54
S'<built-in method __subclasshook__ of type object>'
p55
sS'offset'
p56
S'None'
p57
sS'__unicode__'
p58
S'<built-in method __unicode__ of exceptions.SyntaxError object>'
p59
sS'__delattr__'
p60
S"<method-wrapper '__delattr__' of exceptions.SyntaxError object>"
p61
sS'__repr__'
p62
S"<method-wrapper '__repr__' of exceptions.SyntaxError object>"
p63
sS'__hash__'
p64
S"<method-wrapper '__hash__' of exceptions.SyntaxError object>"
p65
ssS'evalue'
p66
S'not enough information to build the url'
p67
sS'request'
p68
ccopy_reg
_reconstructor
p69
(cgluon.html
BEAUTIFY
p70
c__builtin__
object
p71
NtRp72
(dp73
S'attributes'
p74
(dp75
sS'components'
p76
(lp77
g69
(cgluon.html
TABLE
p78
g71
NtRp79
(dp80
g74
(dp81
S'level'
p82
I5
ssS'parent'
p83
Nsg76
(lp84
g69
(cgluon.html
TR
p85
g71
NtRp86
(dp87
g74
(dp88
sg83
g79
sg76
(lp89
g69
(cgluon.html
TD
p90
g71
NtRp91
(dp92
g74
(dp93
S'_style'
p94
S'font-weight:bold;vertical-align:top'
p95
ssg83
g86
sg76
(lp96
S'ajax'
p97
asbag69
(g90
g71
NtRp98
(dp99
g74
(dp100
S'_valign'
p101
S'top'
p102
ssg83
g86
sg76
(lp103
S':'
asbag69
(g90
g71
NtRp104
(dp105
g74
(dp106
sg83
g86
sg76
(lp107
g69
(g70
g71
NtRp108
(dp109
g74
(dp110
g82
I5
ssg83
g104
sg76
(lp111
S'False'
p112
asbasbasbag69
(g85
g71
NtRp113
(dp114
g74
(dp115
sg83
g79
sg76
(lp116
g69
(g90
g71
NtRp117
(dp118
g74
(dp119
g94
g95
ssg83
g113
sg76
(lp120
S'application'
p121
asbag69
(g90
g71
NtRp122
(dp123
g74
(dp124
g101
g102
ssg83
g113
sg76
(lp125
S':'
asbag69
(g90
g71
NtRp126
(dp127
g74
(dp128
sg83
g113
sg76
(lp129
g69
(g70
g71
NtRp130
(dp131
g74
(dp132
g82
I5
ssg83
g126
sg76
(lp133
S'vsalad'
p134
asbasbasbag69
(g85
g71
NtRp135
(dp136
g74
(dp137
sg83
g79
sg76
(lp138
g69
(g90
g71
NtRp139
(dp140
g74
(dp141
g94
g95
ssg83
g135
sg76
(lp142
g52
asbag69
(g90
g71
NtRp143
(dp144
g74
(dp145
g101
g102
ssg83
g135
sg76
(lp146
S':'
asbag69
(g90
g71
NtRp147
(dp148
g74
(dp149
sg83
g135
sg76
(lp150
g69
(g70
g71
NtRp151
(dp152
g74
(dp153
g82
I5
ssg83
g147
sg76
(lp154
g69
(g78
g71
NtRp155
(dp156
g74
(dp157
g82
I4
ssg83
Nsg76
(lp158
g69
(g85
g71
NtRp159
(dp160
g74
(dp161
sg83
g155
sg76
(lp162
g69
(g90
g71
NtRp163
(dp164
g74
(dp165
sg83
g159
sg76
(lp166
g69
(g70
g71
NtRp167
(dp168
g74
(dp169
g82
I4
ssg83
g163
sg76
(lp170
S'4'
asbasbasbasbasbasbasbag69
(g85
g71
NtRp171
(dp172
g74
(dp173
sg83
g79
sg76
(lp174
g69
(g90
g71
NtRp175
(dp176
g74
(dp177
g94
g95
ssg83
g171
sg76
(lp178
S'body'
p179
asbag69
(g90
g71
NtRp180
(dp181
g74
(dp182
g101
g102
ssg83
g171
sg76
(lp183
S':'
asbag69
(g90
g71
NtRp184
(dp185
g74
(dp186
sg83
g171
sg76
(lp187
g69
(g70
g71
NtRp188
(dp189
g74
(dp190
g82
I5
ssg83
g184
sg76
(lp191
S'<cStringIO.StringO object at 0x2eb5f10>'
p192
asbasbasbag69
(g85
g71
NtRp193
(dp194
g74
(dp195
sg83
g79
sg76
(lp196
g69
(g90
g71
NtRp197
(dp198
g74
(dp199
g94
g95
ssg83
g193
sg76
(lp200
S'client'
p201
asbag69
(g90
g71
NtRp202
(dp203
g74
(dp204
g101
g102
ssg83
g193
sg76
(lp205
S':'
asbag69
(g90
g71
NtRp206
(dp207
g74
(dp208
sg83
g193
sg76
(lp209
g69
(g70
g71
NtRp210
(dp211
g74
(dp212
g82
I5
ssg83
g206
sg76
(lp213
S'127.0.0.1'
p214
asbasbasbag69
(g85
g71
NtRp215
(dp216
g74
(dp217
sg83
g79
sg76
(lp218
g69
(g90
g71
NtRp219
(dp220
g74
(dp221
g94
g95
ssg83
g215
sg76
(lp222
S'controller'
p223
asbag69
(g90
g71
NtRp224
(dp225
g74
(dp226
g101
g102
ssg83
g215
sg76
(lp227
S':'
asbag69
(g90
g71
NtRp228
(dp229
g74
(dp230
sg83
g215
sg76
(lp231
g69
(g70
g71
NtRp232
(dp233
g74
(dp234
g82
I5
ssg83
g228
sg76
(lp235
S'action'
p236
asbasbasbag69
(g85
g71
NtRp237
(dp238
g74
(dp239
sg83
g79
sg76
(lp240
g69
(g90
g71
NtRp241
(dp242
g74
(dp243
g94
g95
ssg83
g237
sg76
(lp244
S'cookies'
p245
asbag69
(g90
g71
NtRp246
(dp247
g74
(dp248
g101
g102
ssg83
g237
sg76
(lp249
S':'
asbag69
(g90
g71
NtRp250
(dp251
g74
(dp252
sg83
g237
sg76
(lp253
g69
(g70
g71
NtRp254
(dp255
g74
(dp256
g82
I5
ssg83
g250
sg76
(lp257
g69
(g78
g71
NtRp258
(dp259
g74
(dp260
g82
I4
ssg83
Nsg76
(lp261
g69
(g85
g71
NtRp262
(dp263
g74
(dp264
sg83
g258
sg76
(lp265
g69
(g90
g71
NtRp266
(dp267
g74
(dp268
g94
g95
ssg83
g262
sg76
(lp269
S'session_id_admin'
p270
asbag69
(g90
g71
NtRp271
(dp272
g74
(dp273
g101
g102
ssg83
g262
sg76
(lp274
S':'
asbag69
(g90
g71
NtRp275
(dp276
g74
(dp277
sg83
g262
sg76
(lp278
g69
(g70
g71
NtRp279
(dp280
g74
(dp281
g82
I4
ssg83
g275
sg76
(lp282
g69
(g78
g71
NtRp283
(dp284
g74
(dp285
g82
I3
ssg83
Nsg76
(lp286
g69
(g85
g71
NtRp287
(dp288
g74
(dp289
sg83
g283
sg76
(lp290
g69
(g90
g71
NtRp291
(dp292
g74
(dp293
g94
g95
ssg83
g287
sg76
(lp294
S'comment'
p295
asbag69
(g90
g71
NtRp296
(dp297
g74
(dp298
g101
g102
ssg83
g287
sg76
(lp299
S':'
asbag69
(g90
g71
NtRp300
(dp301
g74
(dp302
sg83
g287
sg76
(lp303
g69
(g70
g71
NtRp304
(dp305
g74
(dp306
g82
I3
ssg83
g300
sg76
(lp307
S''
asbasbasbag69
(g85
g71
NtRp308
(dp309
g74
(dp310
sg83
g283
sg76
(lp311
g69
(g90
g71
NtRp312
(dp313
g74
(dp314
g94
g95
ssg83
g308
sg76
(lp315
S'domain'
p316
asbag69
(g90
g71
NtRp317
(dp318
g74
(dp319
g101
g102
ssg83
g308
sg76
(lp320
S':'
asbag69
(g90
g71
NtRp321
(dp322
g74
(dp323
sg83
g308
sg76
(lp324
g69
(g70
g71
NtRp325
(dp326
g74
(dp327
g82
I3
ssg83
g321
sg76
(lp328
S''
asbasbasbag69
(g85
g71
NtRp329
(dp330
g74
(dp331
sg83
g283
sg76
(lp332
g69
(g90
g71
NtRp333
(dp334
g74
(dp335
g94
g95
ssg83
g329
sg76
(lp336
S'expires'
p337
asbag69
(g90
g71
NtRp338
(dp339
g74
(dp340
g101
g102
ssg83
g329
sg76
(lp341
S':'
asbag69
(g90
g71
NtRp342
(dp343
g74
(dp344
sg83
g329
sg76
(lp345
g69
(g70
g71
NtRp346
(dp347
g74
(dp348
g82
I3
ssg83
g342
sg76
(lp349
S''
asbasbasbag69
(g85
g71
NtRp350
(dp351
g74
(dp352
sg83
g283
sg76
(lp353
g69
(g90
g71
NtRp354
(dp355
g74
(dp356
g94
g95
ssg83
g350
sg76
(lp357
S'httponly'
p358
asbag69
(g90
g71
NtRp359
(dp360
g74
(dp361
g101
g102
ssg83
g350
sg76
(lp362
S':'
asbag69
(g90
g71
NtRp363
(dp364
g74
(dp365
sg83
g350
sg76
(lp366
g69
(g70
g71
NtRp367
(dp368
g74
(dp369
g82
I3
ssg83
g363
sg76
(lp370
S''
asbasbasbag69
(g85
g71
NtRp371
(dp372
g74
(dp373
sg83
g283
sg76
(lp374
g69
(g90
g71
NtRp375
(dp376
g74
(dp377
g94
g95
ssg83
g371
sg76
(lp378
S'max-age'
p379
asbag69
(g90
g71
NtRp380
(dp381
g74
(dp382
g101
g102
ssg83
g371
sg76
(lp383
S':'
asbag69
(g90
g71
NtRp384
(dp385
g74
(dp386
sg83
g371
sg76
(lp387
g69
(g70
g71
NtRp388
(dp389
g74
(dp390
g82
I3
ssg83
g384
sg76
(lp391
S''
asbasbasbag69
(g85
g71
NtRp392
(dp393
g74
(dp394
sg83
g283
sg76
(lp395
g69
(g90
g71
NtRp396
(dp397
g74
(dp398
g94
g95
ssg83
g392
sg76
(lp399
S'path'
p400
asbag69
(g90
g71
NtRp401
(dp402
g74
(dp403
g101
g102
ssg83
g392
sg76
(lp404
S':'
asbag69
(g90
g71
NtRp405
(dp406
g74
(dp407
sg83
g392
sg76
(lp408
g69
(g70
g71
NtRp409
(dp410
g74
(dp411
g82
I3
ssg83
g405
sg76
(lp412
S''
asbasbasbag69
(g85
g71
NtRp413
(dp414
g74
(dp415
sg83
g283
sg76
(lp416
g69
(g90
g71
NtRp417
(dp418
g74
(dp419
g94
g95
ssg83
g413
sg76
(lp420
S'secure'
p421
asbag69
(g90
g71
NtRp422
(dp423
g74
(dp424
g101
g102
ssg83
g413
sg76
(lp425
S':'
asbag69
(g90
g71
NtRp426
(dp427
g74
(dp428
sg83
g413
sg76
(lp429
g69
(g70
g71
NtRp430
(dp431
g74
(dp432
g82
I3
ssg83
g426
sg76
(lp433
S''
asbasbasbag69
(g85
g71
NtRp434
(dp435
g74
(dp436
sg83
g283
sg76
(lp437
g69
(g90
g71
NtRp438
(dp439
g74
(dp440
g94
g95
ssg83
g434
sg76
(lp441
S'version'
p442
asbag69
(g90
g71
NtRp443
(dp444
g74
(dp445
g101
g102
ssg83
g434
sg76
(lp446
S':'
asbag69
(g90
g71
NtRp447
(dp448
g74
(dp449
sg83
g434
sg76
(lp450
g69
(g70
g71
NtRp451
(dp452
g74
(dp453
g82
I3
ssg83
g447
sg76
(lp454
S''
asbasbasbasbasbasbasbag69
(g85
g71
NtRp455
(dp456
g74
(dp457
sg83
g258
sg76
(lp458
g69
(g90
g71
NtRp459
(dp460
g74
(dp461
g94
g95
ssg83
g455
sg76
(lp462
S'session_id_examples'
p463
asbag69
(g90
g71
NtRp464
(dp465
g74
(dp466
g101
g102
ssg83
g455
sg76
(lp467
S':'
asbag69
(g90
g71
NtRp468
(dp469
g74
(dp470
sg83
g455
sg76
(lp471
g69
(g70
g71
NtRp472
(dp473
g74
(dp474
g82
I4
ssg83
g468
sg76
(lp475
g69
(g78
g71
NtRp476
(dp477
g74
(dp478
g82
I3
ssg83
Nsg76
(lp479
g69
(g85
g71
NtRp480
(dp481
g74
(dp482
sg83
g476
sg76
(lp483
g69
(g90
g71
NtRp484
(dp485
g74
(dp486
g94
g95
ssg83
g480
sg76
(lp487
g295
asbag69
(g90
g71
NtRp488
(dp489
g74
(dp490
g101
g102
ssg83
g480
sg76
(lp491
S':'
asbag69
(g90
g71
NtRp492
(dp493
g74
(dp494
sg83
g480
sg76
(lp495
g69
(g70
g71
NtRp496
(dp497
g74
(dp498
g82
I3
ssg83
g492
sg76
(lp499
S''
asbasbasbag69
(g85
g71
NtRp500
(dp501
g74
(dp502
sg83
g476
sg76
(lp503
g69
(g90
g71
NtRp504
(dp505
g74
(dp506
g94
g95
ssg83
g500
sg76
(lp507
g316
asbag69
(g90
g71
NtRp508
(dp509
g74
(dp510
g101
g102
ssg83
g500
sg76
(lp511
S':'
asbag69
(g90
g71
NtRp512
(dp513
g74
(dp514
sg83
g500
sg76
(lp515
g69
(g70
g71
NtRp516
(dp517
g74
(dp518
g82
I3
ssg83
g512
sg76
(lp519
S''
asbasbasbag69
(g85
g71
NtRp520
(dp521
g74
(dp522
sg83
g476
sg76
(lp523
g69
(g90
g71
NtRp524
(dp525
g74
(dp526
g94
g95
ssg83
g520
sg76
(lp527
g337
asbag69
(g90
g71
NtRp528
(dp529
g74
(dp530
g101
g102
ssg83
g520
sg76
(lp531
S':'
asbag69
(g90
g71
NtRp532
(dp533
g74
(dp534
sg83
g520
sg76
(lp535
g69
(g70
g71
NtRp536
(dp537
g74
(dp538
g82
I3
ssg83
g532
sg76
(lp539
S''
asbasbasbag69
(g85
g71
NtRp540
(dp541
g74
(dp542
sg83
g476
sg76
(lp543
g69
(g90
g71
NtRp544
(dp545
g74
(dp546
g94
g95
ssg83
g540
sg76
(lp547
g358
asbag69
(g90
g71
NtRp548
(dp549
g74
(dp550
g101
g102
ssg83
g540
sg76
(lp551
S':'
asbag69
(g90
g71
NtRp552
(dp553
g74
(dp554
sg83
g540
sg76
(lp555
g69
(g70
g71
NtRp556
(dp557
g74
(dp558
g82
I3
ssg83
g552
sg76
(lp559
S''
asbasbasbag69
(g85
g71
NtRp560
(dp561
g74
(dp562
sg83
g476
sg76
(lp563
g69
(g90
g71
NtRp564
(dp565
g74
(dp566
g94
g95
ssg83
g560
sg76
(lp567
g379
asbag69
(g90
g71
NtRp568
(dp569
g74
(dp570
g101
g102
ssg83
g560
sg76
(lp571
S':'
asbag69
(g90
g71
NtRp572
(dp573
g74
(dp574
sg83
g560
sg76
(lp575
g69
(g70
g71
NtRp576
(dp577
g74
(dp578
g82
I3
ssg83
g572
sg76
(lp579
S''
asbasbasbag69
(g85
g71
NtRp580
(dp581
g74
(dp582
sg83
g476
sg76
(lp583
g69
(g90
g71
NtRp584
(dp585
g74
(dp586
g94
g95
ssg83
g580
sg76
(lp587
g400
asbag69
(g90
g71
NtRp588
(dp589
g74
(dp590
g101
g102
ssg83
g580
sg76
(lp591
S':'
asbag69
(g90
g71
NtRp592
(dp593
g74
(dp594
sg83
g580
sg76
(lp595
g69
(g70
g71
NtRp596
(dp597
g74
(dp598
g82
I3
ssg83
g592
sg76
(lp599
S''
asbasbasbag69
(g85
g71
NtRp600
(dp601
g74
(dp602
sg83
g476
sg76
(lp603
g69
(g90
g71
NtRp604
(dp605
g74
(dp606
g94
g95
ssg83
g600
sg76
(lp607
g421
asbag69
(g90
g71
NtRp608
(dp609
g74
(dp610
g101
g102
ssg83
g600
sg76
(lp611
S':'
asbag69
(g90
g71
NtRp612
(dp613
g74
(dp614
sg83
g600
sg76
(lp615
g69
(g70
g71
NtRp616
(dp617
g74
(dp618
g82
I3
ssg83
g612
sg76
(lp619
S''
asbasbasbag69
(g85
g71
NtRp620
(dp621
g74
(dp622
sg83
g476
sg76
(lp623
g69
(g90
g71
NtRp624
(dp625
g74
(dp626
g94
g95
ssg83
g620
sg76
(lp627
g442
asbag69
(g90
g71
NtRp628
(dp629
g74
(dp630
g101
g102
ssg83
g620
sg76
(lp631
S':'
asbag69
(g90
g71
NtRp632
(dp633
g74
(dp634
sg83
g620
sg76
(lp635
g69
(g70
g71
NtRp636
(dp637
g74
(dp638
g82
I3
ssg83
g632
sg76
(lp639
S''
asbasbasbasbasbasbasbag69
(g85
g71
NtRp640
(dp641
g74
(dp642
sg83
g258
sg76
(lp643
g69
(g90
g71
NtRp644
(dp645
g74
(dp646
g94
g95
ssg83
g640
sg76
(lp647
S'session_id_vsalad'
p648
asbag69
(g90
g71
NtRp649
(dp650
g74
(dp651
g101
g102
ssg83
g640
sg76
(lp652
S':'
asbag69
(g90
g71
NtRp653
(dp654
g74
(dp655
sg83
g640
sg76
(lp656
g69
(g70
g71
NtRp657
(dp658
g74
(dp659
g82
I4
ssg83
g653
sg76
(lp660
g69
(g78
g71
NtRp661
(dp662
g74
(dp663
g82
I3
ssg83
Nsg76
(lp664
g69
(g85
g71
NtRp665
(dp666
g74
(dp667
sg83
g661
sg76
(lp668
g69
(g90
g71
NtRp669
(dp670
g74
(dp671
g94
g95
ssg83
g665
sg76
(lp672
g295
asbag69
(g90
g71
NtRp673
(dp674
g74
(dp675
g101
g102
ssg83
g665
sg76
(lp676
S':'
asbag69
(g90
g71
NtRp677
(dp678
g74
(dp679
sg83
g665
sg76
(lp680
g69
(g70
g71
NtRp681
(dp682
g74
(dp683
g82
I3
ssg83
g677
sg76
(lp684
S''
asbasbasbag69
(g85
g71
NtRp685
(dp686
g74
(dp687
sg83
g661
sg76
(lp688
g69
(g90
g71
NtRp689
(dp690
g74
(dp691
g94
g95
ssg83
g685
sg76
(lp692
g316
asbag69
(g90
g71
NtRp693
(dp694
g74
(dp695
g101
g102
ssg83
g685
sg76
(lp696
S':'
asbag69
(g90
g71
NtRp697
(dp698
g74
(dp699
sg83
g685
sg76
(lp700
g69
(g70
g71
NtRp701
(dp702
g74
(dp703
g82
I3
ssg83
g697
sg76
(lp704
S''
asbasbasbag69
(g85
g71
NtRp705
(dp706
g74
(dp707
sg83
g661
sg76
(lp708
g69
(g90
g71
NtRp709
(dp710
g74
(dp711
g94
g95
ssg83
g705
sg76
(lp712
g337
asbag69
(g90
g71
NtRp713
(dp714
g74
(dp715
g101
g102
ssg83
g705
sg76
(lp716
S':'
asbag69
(g90
g71
NtRp717
(dp718
g74
(dp719
sg83
g705
sg76
(lp720
g69
(g70
g71
NtRp721
(dp722
g74
(dp723
g82
I3
ssg83
g717
sg76
(lp724
S''
asbasbasbag69
(g85
g71
NtRp725
(dp726
g74
(dp727
sg83
g661
sg76
(lp728
g69
(g90
g71
NtRp729
(dp730
g74
(dp731
g94
g95
ssg83
g725
sg76
(lp732
g358
asbag69
(g90
g71
NtRp733
(dp734
g74
(dp735
g101
g102
ssg83
g725
sg76
(lp736
S':'
asbag69
(g90
g71
NtRp737
(dp738
g74
(dp739
sg83
g725
sg76
(lp740
g69
(g70
g71
NtRp741
(dp742
g74
(dp743
g82
I3
ssg83
g737
sg76
(lp744
S''
asbasbasbag69
(g85
g71
NtRp745
(dp746
g74
(dp747
sg83
g661
sg76
(lp748
g69
(g90
g71
NtRp749
(dp750
g74
(dp751
g94
g95
ssg83
g745
sg76
(lp752
g379
asbag69
(g90
g71
NtRp753
(dp754
g74
(dp755
g101
g102
ssg83
g745
sg76
(lp756
S':'
asbag69
(g90
g71
NtRp757
(dp758
g74
(dp759
sg83
g745
sg76
(lp760
g69
(g70
g71
NtRp761
(dp762
g74
(dp763
g82
I3
ssg83
g757
sg76
(lp764
S''
asbasbasbag69
(g85
g71
NtRp765
(dp766
g74
(dp767
sg83
g661
sg76
(lp768
g69
(g90
g71
NtRp769
(dp770
g74
(dp771
g94
g95
ssg83
g765
sg76
(lp772
g400
asbag69
(g90
g71
NtRp773
(dp774
g74
(dp775
g101
g102
ssg83
g765
sg76
(lp776
S':'
asbag69
(g90
g71
NtRp777
(dp778
g74
(dp779
sg83
g765
sg76
(lp780
g69
(g70
g71
NtRp781
(dp782
g74
(dp783
g82
I3
ssg83
g777
sg76
(lp784
S''
asbasbasbag69
(g85
g71
NtRp785
(dp786
g74
(dp787
sg83
g661
sg76
(lp788
g69
(g90
g71
NtRp789
(dp790
g74
(dp791
g94
g95
ssg83
g785
sg76
(lp792
g421
asbag69
(g90
g71
NtRp793
(dp794
g74
(dp795
g101
g102
ssg83
g785
sg76
(lp796
S':'
asbag69
(g90
g71
NtRp797
(dp798
g74
(dp799
sg83
g785
sg76
(lp800
g69
(g70
g71
NtRp801
(dp802
g74
(dp803
g82
I3
ssg83
g797
sg76
(lp804
S''
asbasbasbag69
(g85
g71
NtRp805
(dp806
g74
(dp807
sg83
g661
sg76
(lp808
g69
(g90
g71
NtRp809
(dp810
g74
(dp811
g94
g95
ssg83
g805
sg76
(lp812
g442
asbag69
(g90
g71
NtRp813
(dp814
g74
(dp815
g101
g102
ssg83
g805
sg76
(lp816
S':'
asbag69
(g90
g71
NtRp817
(dp818
g74
(dp819
sg83
g805
sg76
(lp820
g69
(g70
g71
NtRp821
(dp822
g74
(dp823
g82
I3
ssg83
g817
sg76
(lp824
S''
asbasbasbasbasbasbasbag69
(g85
g71
NtRp825
(dp826
g74
(dp827
sg83
g258
sg76
(lp828
g69
(g90
g71
NtRp829
(dp830
g74
(dp831
g94
g95
ssg83
g825
sg76
(lp832
S'session_id_welcome'
p833
asbag69
(g90
g71
NtRp834
(dp835
g74
(dp836
g101
g102
ssg83
g825
sg76
(lp837
S':'
asbag69
(g90
g71
NtRp838
(dp839
g74
(dp840
sg83
g825
sg76
(lp841
g69
(g70
g71
NtRp842
(dp843
g74
(dp844
g82
I4
ssg83
g838
sg76
(lp845
g69
(g78
g71
NtRp846
(dp847
g74
(dp848
g82
I3
ssg83
Nsg76
(lp849
g69
(g85
g71
NtRp850
(dp851
g74
(dp852
sg83
g846
sg76
(lp853
g69
(g90
g71
NtRp854
(dp855
g74
(dp856
g94
g95
ssg83
g850
sg76
(lp857
g295
asbag69
(g90
g71
NtRp858
(dp859
g74
(dp860
g101
g102
ssg83
g850
sg76
(lp861
S':'
asbag69
(g90
g71
NtRp862
(dp863
g74
(dp864
sg83
g850
sg76
(lp865
g69
(g70
g71
NtRp866
(dp867
g74
(dp868
g82
I3
ssg83
g862
sg76
(lp869
S''
asbasbasbag69
(g85
g71
NtRp870
(dp871
g74
(dp872
sg83
g846
sg76
(lp873
g69
(g90
g71
NtRp874
(dp875
g74
(dp876
g94
g95
ssg83
g870
sg76
(lp877
g316
asbag69
(g90
g71
NtRp878
(dp879
g74
(dp880
g101
g102
ssg83
g870
sg76
(lp881
S':'
asbag69
(g90
g71
NtRp882
(dp883
g74
(dp884
sg83
g870
sg76
(lp885
g69
(g70
g71
NtRp886
(dp887
g74
(dp888
g82
I3
ssg83
g882
sg76
(lp889
S''
asbasbasbag69
(g85
g71
NtRp890
(dp891
g74
(dp892
sg83
g846
sg76
(lp893
g69
(g90
g71
NtRp894
(dp895
g74
(dp896
g94
g95
ssg83
g890
sg76
(lp897
g337
asbag69
(g90
g71
NtRp898
(dp899
g74
(dp900
g101
g102
ssg83
g890
sg76
(lp901
S':'
asbag69
(g90
g71
NtRp902
(dp903
g74
(dp904
sg83
g890
sg76
(lp905
g69
(g70
g71
NtRp906
(dp907
g74
(dp908
g82
I3
ssg83
g902
sg76
(lp909
S''
asbasbasbag69
(g85
g71
NtRp910
(dp911
g74
(dp912
sg83
g846
sg76
(lp913
g69
(g90
g71
NtRp914
(dp915
g74
(dp916
g94
g95
ssg83
g910
sg76
(lp917
g358
asbag69
(g90
g71
NtRp918
(dp919
g74
(dp920
g101
g102
ssg83
g910
sg76
(lp921
S':'
asbag69
(g90
g71
NtRp922
(dp923
g74
(dp924
sg83
g910
sg76
(lp925
g69
(g70
g71
NtRp926
(dp927
g74
(dp928
g82
I3
ssg83
g922
sg76
(lp929
S''
asbasbasbag69
(g85
g71
NtRp930
(dp931
g74
(dp932
sg83
g846
sg76
(lp933
g69
(g90
g71
NtRp934
(dp935
g74
(dp936
g94
g95
ssg83
g930
sg76
(lp937
g379
asbag69
(g90
g71
NtRp938
(dp939
g74
(dp940
g101
g102
ssg83
g930
sg76
(lp941
S':'
asbag69
(g90
g71
NtRp942
(dp943
g74
(dp944
sg83
g930
sg76
(lp945
g69
(g70
g71
NtRp946
(dp947
g74
(dp948
g82
I3
ssg83
g942
sg76
(lp949
S''
asbasbasbag69
(g85
g71
NtRp950
(dp951
g74
(dp952
sg83
g846
sg76
(lp953
g69
(g90
g71
NtRp954
(dp955
g74
(dp956
g94
g95
ssg83
g950
sg76
(lp957
g400
asbag69
(g90
g71
NtRp958
(dp959
g74
(dp960
g101
g102
ssg83
g950
sg76
(lp961
S':'
asbag69
(g90
g71
NtRp962
(dp963
g74
(dp964
sg83
g950
sg76
(lp965
g69
(g70
g71
NtRp966
(dp967
g74
(dp968
g82
I3
ssg83
g962
sg76
(lp969
S''
asbasbasbag69
(g85
g71
NtRp970
(dp971
g74
(dp972
sg83
g846
sg76
(lp973
g69
(g90
g71
NtRp974
(dp975
g74
(dp976
g94
g95
ssg83
g970
sg76
(lp977
g421
asbag69
(g90
g71
NtRp978
(dp979
g74
(dp980
g101
g102
ssg83
g970
sg76
(lp981
S':'
asbag69
(g90
g71
NtRp982
(dp983
g74
(dp984
sg83
g970
sg76
(lp985
g69
(g70
g71
NtRp986
(dp987
g74
(dp988
g82
I3
ssg83
g982
sg76
(lp989
S''
asbasbasbag69
(g85
g71
NtRp990
(dp991
g74
(dp992
sg83
g846
sg76
(lp993
g69
(g90
g71
NtRp994
(dp995
g74
(dp996
g94
g95
ssg83
g990
sg76
(lp997
g442
asbag69
(g90
g71
NtRp998
(dp999
g74
(dp1000
g101
g102
ssg83
g990
sg76
(lp1001
S':'
asbag69
(g90
g71
NtRp1002
(dp1003
g74
(dp1004
sg83
g990
sg76
(lp1005
g69
(g70
g71
NtRp1006
(dp1007
g74
(dp1008
g82
I3
ssg83
g1002
sg76
(lp1009
S''
asbasbasbasbasbasbasbasbasbasbasbag69
(g85
g71
NtRp1010
(dp1011
g74
(dp1012
sg83
g79
sg76
(lp1013
g69
(g90
g71
NtRp1014
(dp1015
g74
(dp1016
g94
g95
ssg83
g1010
sg76
(lp1017
S'env'
p1018
asbag69
(g90
g71
NtRp1019
(dp1020
g74
(dp1021
g101
g102
ssg83
g1010
sg76
(lp1022
S':'
asbag69
(g90
g71
NtRp1023
(dp1024
g74
(dp1025
sg83
g1010
sg76
(lp1026
g69
(g70
g71
NtRp1027
(dp1028
g74
(dp1029
g82
I5
ssg83
g1023
sg76
(lp1030
g69
(g78
g71
NtRp1031
(dp1032
g74
(dp1033
g82
I4
ssg83
Nsg76
(lp1034
g69
(g85
g71
NtRp1035
(dp1036
g74
(dp1037
sg83
g1031
sg76
(lp1038
g69
(g90
g71
NtRp1039
(dp1040
g74
(dp1041
g94
g95
ssg83
g1035
sg76
(lp1042
S'app_folders'
p1043
asbag69
(g90
g71
NtRp1044
(dp1045
g74
(dp1046
g101
g102
ssg83
g1035
sg76
(lp1047
S':'
asbag69
(g90
g71
NtRp1048
(dp1049
g74
(dp1050
sg83
g1035
sg76
(lp1051
g69
(g70
g71
NtRp1052
(dp1053
g74
(dp1054
g82
I4
ssg83
g1048
sg76
(lp1055
S"set(['/home/fish/Desktop/web2py/applications/admin/', '/home/fish/Desktop/web2py/applications/welcome/', '/home/fish/Desktop/web2py/applications/vsalad/', '/home/fish/Desktop/web2py/applications/examples/'])"
p1056
asbasbasbag69
(g85
g71
NtRp1057
(dp1058
g74
(dp1059
sg83
g1031
sg76
(lp1060
g69
(g90
g71
NtRp1061
(dp1062
g74
(dp1063
g94
g95
ssg83
g1057
sg76
(lp1064
S'applications_parent'
p1065
asbag69
(g90
g71
NtRp1066
(dp1067
g74
(dp1068
g101
g102
ssg83
g1057
sg76
(lp1069
S':'
asbag69
(g90
g71
NtRp1070
(dp1071
g74
(dp1072
sg83
g1057
sg76
(lp1073
g69
(g70
g71
NtRp1074
(dp1075
g74
(dp1076
g82
I4
ssg83
g1070
sg76
(lp1077
S'/home/fish/Desktop/web2py'
p1078
asbasbasbag69
(g85
g71
NtRp1079
(dp1080
g74
(dp1081
sg83
g1031
sg76
(lp1082
g69
(g90
g71
NtRp1083
(dp1084
g74
(dp1085
g94
g95
ssg83
g1079
sg76
(lp1086
S'cmd_args'
p1087
asbag69
(g90
g71
NtRp1088
(dp1089
g74
(dp1090
g101
g102
ssg83
g1079
sg76
(lp1091
S':'
asbag69
(g90
g71
NtRp1092
(dp1093
g74
(dp1094
sg83
g1079
sg76
(lp1095
g69
(g70
g71
NtRp1096
(dp1097
g74
(dp1098
g82
I4
ssg83
g1092
sg76
(lp1099
g69
(g78
g71
NtRp1100
(dp1101
g74
(dp1102
g82
I3
ssg83
Nsg76
(lp1103
sbasbasbasbag69
(g85
g71
NtRp1104
(dp1105
g74
(dp1106
sg83
g1031
sg76
(lp1107
g69
(g90
g71
NtRp1108
(dp1109
g74
(dp1110
g94
g95
ssg83
g1104
sg76
(lp1111
S'cmd_options'
p1112
asbag69
(g90
g71
NtRp1113
(dp1114
g74
(dp1115
g101
g102
ssg83
g1104
sg76
(lp1116
S':'
asbag69
(g90
g71
NtRp1117
(dp1118
g74
(dp1119
sg83
g1104
sg76
(lp1120
g69
(g70
g71
NtRp1121
(dp1122
g74
(dp1123
g82
I4
ssg83
g1117
sg76
(lp1124
S"<Values at 0x255e518: {'verbose': False, 'ip': '127.0.0.1', 'shutdown_timeout': 5, 'taskbar': False, 'nocron': False, 'pid_filename': 'httpserver.pid', 'maxthreads': None, 'softcron': False, 'server_name': 'Master-Fish', 'bpython': False, 'nogui': False, 'port': 8000, 'extcron': False, 'debuglevel': 30, 'test': None, 'folder': '/home/fish/Desktop/web2py', 'config': '', 'import_models': False, 'winservice': '', 'shell': None, 'run': '', 'log_filename': 'httpserver.log', 'args': [''], 'socket_timeout': 5, 'ssl_ca_certificate': None, 'scheduler': None, 'profiler_filename': None, 'ssl_private_key': '', 'password': '<ask>', 'request_queue_size': 5, 'ssl_certificate': '', 'cronjob': False, 'numthreads': None, 'quiet': False, 'interfaces': None, 'minthreads': None, 'timeout': 10, 'plain': False, 'nobanner': False}>"
p1125
asbasbasbag69
(g85
g71
NtRp1126
(dp1127
g74
(dp1128
sg83
g1031
sg76
(lp1129
g69
(g90
g71
NtRp1130
(dp1131
g74
(dp1132
g94
g95
ssg83
g1126
sg76
(lp1133
S'db_sessions'
p1134
asbag69
(g90
g71
NtRp1135
(dp1136
g74
(dp1137
g101
g102
ssg83
g1126
sg76
(lp1138
S':'
asbag69
(g90
g71
NtRp1139
(dp1140
g74
(dp1141
sg83
g1126
sg76
(lp1142
g69
(g70
g71
NtRp1143
(dp1144
g74
(dp1145
g82
I4
ssg83
g1139
sg76
(lp1146
S'set([])'
p1147
asbasbasbag69
(g85
g71
NtRp1148
(dp1149
g74
(dp1150
sg83
g1031
sg76
(lp1151
g69
(g90
g71
NtRp1152
(dp1153
g74
(dp1154
g94
g95
ssg83
g1148
sg76
(lp1155
S'debugging'
p1156
asbag69
(g90
g71
NtRp1157
(dp1158
g74
(dp1159
g101
g102
ssg83
g1148
sg76
(lp1160
S':'
asbag69
(g90
g71
NtRp1161
(dp1162
g74
(dp1163
sg83
g1148
sg76
(lp1164
g69
(g70
g71
NtRp1165
(dp1166
g74
(dp1167
g82
I4
ssg83
g1161
sg76
(lp1168
g112
asbasbasbag69
(g85
g71
NtRp1169
(dp1170
g74
(dp1171
sg83
g1031
sg76
(lp1172
g69
(g90
g71
NtRp1173
(dp1174
g74
(dp1175
g94
g95
ssg83
g1169
sg76
(lp1176
S'gluon_parent'
p1177
asbag69
(g90
g71
NtRp1178
(dp1179
g74
(dp1180
g101
g102
ssg83
g1169
sg76
(lp1181
S':'
asbag69
(g90
g71
NtRp1182
(dp1183
g74
(dp1184
sg83
g1169
sg76
(lp1185
g69
(g70
g71
NtRp1186
(dp1187
g74
(dp1188
g82
I4
ssg83
g1182
sg76
(lp1189
S'/home/fish/Desktop/web2py'
p1190
asbasbasbag69
(g85
g71
NtRp1191
(dp1192
g74
(dp1193
sg83
g1031
sg76
(lp1194
g69
(g90
g71
NtRp1195
(dp1196
g74
(dp1197
g94
g95
ssg83
g1191
sg76
(lp1198
S'http_accept'
p1199
asbag69
(g90
g71
NtRp1200
(dp1201
g74
(dp1202
g101
g102
ssg83
g1191
sg76
(lp1203
S':'
asbag69
(g90
g71
NtRp1204
(dp1205
g74
(dp1206
sg83
g1191
sg76
(lp1207
g69
(g70
g71
NtRp1208
(dp1209
g74
(dp1210
g82
I4
ssg83
g1204
sg76
(lp1211
S'text/html,application/xhtml+xml,application/xml;q=0.9,*/*;q=0.8'
p1212
asbasbasbag69
(g85
g71
NtRp1213
(dp1214
g74
(dp1215
sg83
g1031
sg76
(lp1216
g69
(g90
g71
NtRp1217
(dp1218
g74
(dp1219
g94
g95
ssg83
g1213
sg76
(lp1220
S'http_accept_charset'
p1221
asbag69
(g90
g71
NtRp1222
(dp1223
g74
(dp1224
g101
g102
ssg83
g1213
sg76
(lp1225
S':'
asbag69
(g90
g71
NtRp1226
(dp1227
g74
(dp1228
sg83
g1213
sg76
(lp1229
g69
(g70
g71
NtRp1230
(dp1231
g74
(dp1232
g82
I4
ssg83
g1226
sg76
(lp1233
S'ISO-8859-1,utf-8;q=0.7,*;q=0.3'
p1234
asbasbasbag69
(g85
g71
NtRp1235
(dp1236
g74
(dp1237
sg83
g1031
sg76
(lp1238
g69
(g90
g71
NtRp1239
(dp1240
g74
(dp1241
g94
g95
ssg83
g1235
sg76
(lp1242
S'http_accept_encoding'
p1243
asbag69
(g90
g71
NtRp1244
(dp1245
g74
(dp1246
g101
g102
ssg83
g1235
sg76
(lp1247
S':'
asbag69
(g90
g71
NtRp1248
(dp1249
g74
(dp1250
sg83
g1235
sg76
(lp1251
g69
(g70
g71
NtRp1252
(dp1253
g74
(dp1254
g82
I4
ssg83
g1248
sg76
(lp1255
S'gzip,deflate,sdch'
p1256
asbasbasbag69
(g85
g71
NtRp1257
(dp1258
g74
(dp1259
sg83
g1031
sg76
(lp1260
g69
(g90
g71
NtRp1261
(dp1262
g74
(dp1263
g94
g95
ssg83
g1257
sg76
(lp1264
S'http_accept_language'
p1265
asbag69
(g90
g71
NtRp1266
(dp1267
g74
(dp1268
g101
g102
ssg83
g1257
sg76
(lp1269
S':'
asbag69
(g90
g71
NtRp1270
(dp1271
g74
(dp1272
sg83
g1257
sg76
(lp1273
g69
(g70
g71
NtRp1274
(dp1275
g74
(dp1276
g82
I4
ssg83
g1270
sg76
(lp1277
S'en-US,en;q=0.8,fr;q=0.6'
p1278
asbasbasbag69
(g85
g71
NtRp1279
(dp1280
g74
(dp1281
sg83
g1031
sg76
(lp1282
g69
(g90
g71
NtRp1283
(dp1284
g74
(dp1285
g94
g95
ssg83
g1279
sg76
(lp1286
S'http_cache_control'
p1287
asbag69
(g90
g71
NtRp1288
(dp1289
g74
(dp1290
g101
g102
ssg83
g1279
sg76
(lp1291
S':'
asbag69
(g90
g71
NtRp1292
(dp1293
g74
(dp1294
sg83
g1279
sg76
(lp1295
g69
(g70
g71
NtRp1296
(dp1297
g74
(dp1298
g82
I4
ssg83
g1292
sg76
(lp1299
S'max-age=0'
p1300
asbasbasbag69
(g85
g71
NtRp1301
(dp1302
g74
(dp1303
sg83
g1031
sg76
(lp1304
g69
(g90
g71
NtRp1305
(dp1306
g74
(dp1307
g94
g95
ssg83
g1301
sg76
(lp1308
S'http_connection'
p1309
asbag69
(g90
g71
NtRp1310
(dp1311
g74
(dp1312
g101
g102
ssg83
g1301
sg76
(lp1313
S':'
asbag69
(g90
g71
NtRp1314
(dp1315
g74
(dp1316
sg83
g1301
sg76
(lp1317
g69
(g70
g71
NtRp1318
(dp1319
g74
(dp1320
g82
I4
ssg83
g1314
sg76
(lp1321
S'keep-alive'
p1322
asbasbasbag69
(g85
g71
NtRp1323
(dp1324
g74
(dp1325
sg83
g1031
sg76
(lp1326
g69
(g90
g71
NtRp1327
(dp1328
g74
(dp1329
g94
g95
ssg83
g1323
sg76
(lp1330
S'http_cookie'
p1331
asbag69
(g90
g71
NtRp1332
(dp1333
g74
(dp1334
g101
g102
ssg83
g1323
sg76
(lp1335
S':'
asbag69
(g90
g71
NtRp1336
(dp1337
g74
(dp1338
sg83
g1323
sg76
(lp1339
g69
(g70
g71
NtRp1340
(dp1341
g74
(dp1342
g82
I4
ssg83
g1336
sg76
(lp1343
S'session_id_welcome=127.0.0.1-ca03d1c8-fce4-40ec-877f-7a5659c560fd; session_id_examples=127.0.0.1-39c0e035-9b15-4494-a3f7-eb4541010ccc; session_id_vsalad=127.0.0.1-65c5fec7-9058-48a5-9599-65c6d4c50931; session_id_admin=127.0.0.1-dc074c73-6f98-4dc3-830d-e23ec66fde78'
p1344
asbasbasbag69
(g85
g71
NtRp1345
(dp1346
g74
(dp1347
sg83
g1031
sg76
(lp1348
g69
(g90
g71
NtRp1349
(dp1350
g74
(dp1351
g94
g95
ssg83
g1345
sg76
(lp1352
S'http_host'
p1353
asbag69
(g90
g71
NtRp1354
(dp1355
g74
(dp1356
g101
g102
ssg83
g1345
sg76
(lp1357
S':'
asbag69
(g90
g71
NtRp1358
(dp1359
g74
(dp1360
sg83
g1345
sg76
(lp1361
g69
(g70
g71
NtRp1362
(dp1363
g74
(dp1364
g82
I4
ssg83
g1358
sg76
(lp1365
S'127.0.0.1:8000'
p1366
asbasbasbag69
(g85
g71
NtRp1367
(dp1368
g74
(dp1369
sg83
g1031
sg76
(lp1370
g69
(g90
g71
NtRp1371
(dp1372
g74
(dp1373
g94
g95
ssg83
g1367
sg76
(lp1374
S'http_referer'
p1375
asbag69
(g90
g71
NtRp1376
(dp1377
g74
(dp1378
g101
g102
ssg83
g1367
sg76
(lp1379
S':'
asbag69
(g90
g71
NtRp1380
(dp1381
g74
(dp1382
sg83
g1367
sg76
(lp1383
g69
(g70
g71
NtRp1384
(dp1385
g74
(dp1386
g82
I4
ssg83
g1380
sg76
(lp1387
S'http://127.0.0.1:8000/vsalad/action/comments/4'
p1388
asbasbasbag69
(g85
g71
NtRp1389
(dp1390
g74
(dp1391
sg83
g1031
sg76
(lp1392
g69
(g90
g71
NtRp1393
(dp1394
g74
(dp1395
g94
g95
ssg83
g1389
sg76
(lp1396
S'http_user_agent'
p1397
asbag69
(g90
g71
NtRp1398
(dp1399
g74
(dp1400
g101
g102
ssg83
g1389
sg76
(lp1401
S':'
asbag69
(g90
g71
NtRp1402
(dp1403
g74
(dp1404
sg83
g1389
sg76
(lp1405
g69
(g70
g71
NtRp1406
(dp1407
g74
(dp1408
g82
I4
ssg83
g1402
sg76
(lp1409
S'Mozilla/5.0 (X11; Linux x86_64) AppleWebKit/535.19 (KHTML, like Gecko) Chrome/18.0.1025.162 Safari/535.19'
p1410
asbasbasbag69
(g85
g71
NtRp1411
(dp1412
g74
(dp1413
sg83
g1031
sg76
(lp1414
g69
(g90
g71
NtRp1415
(dp1416
g74
(dp1417
g94
g95
ssg83
g1411
sg76
(lp1418
S'is_jython'
p1419
asbag69
(g90
g71
NtRp1420
(dp1421
g74
(dp1422
g101
g102
ssg83
g1411
sg76
(lp1423
S':'
asbag69
(g90
g71
NtRp1424
(dp1425
g74
(dp1426
sg83
g1411
sg76
(lp1427
g69
(g70
g71
NtRp1428
(dp1429
g74
(dp1430
g82
I4
ssg83
g1424
sg76
(lp1431
g112
asbasbasbag69
(g85
g71
NtRp1432
(dp1433
g74
(dp1434
sg83
g1031
sg76
(lp1435
g69
(g90
g71
NtRp1436
(dp1437
g74
(dp1438
g94
g95
ssg83
g1432
sg76
(lp1439
S'is_pypy'
p1440
asbag69
(g90
g71
NtRp1441
(dp1442
g74
(dp1443
g101
g102
ssg83
g1432
sg76
(lp1444
S':'
asbag69
(g90
g71
NtRp1445
(dp1446
g74
(dp1447
sg83
g1432
sg76
(lp1448
g69
(g70
g71
NtRp1449
(dp1450
g74
(dp1451
g82
I4
ssg83
g1445
sg76
(lp1452
g112
asbasbasbag69
(g85
g71
NtRp1453
(dp1454
g74
(dp1455
sg83
g1031
sg76
(lp1456
g69
(g90
g71
NtRp1457
(dp1458
g74
(dp1459
g94
g95
ssg83
g1453
sg76
(lp1460
S'path_info'
p1461
asbag69
(g90
g71
NtRp1462
(dp1463
g74
(dp1464
g101
g102
ssg83
g1453
sg76
(lp1465
S':'
asbag69
(g90
g71
NtRp1466
(dp1467
g74
(dp1468
sg83
g1453
sg76
(lp1469
g69
(g70
g71
NtRp1470
(dp1471
g74
(dp1472
g82
I4
ssg83
g1466
sg76
(lp1473
S'/vsalad/action/comments/4'
p1474
asbasbasbag69
(g85
g71
NtRp1475
(dp1476
g74
(dp1477
sg83
g1031
sg76
(lp1478
g69
(g90
g71
NtRp1479
(dp1480
g74
(dp1481
g94
g95
ssg83
g1475
sg76
(lp1482
S'query_string'
p1483
asbag69
(g90
g71
NtRp1484
(dp1485
g74
(dp1486
g101
g102
ssg83
g1475
sg76
(lp1487
S':'
asbag69
(g90
g71
NtRp1488
(dp1489
g74
(dp1490
sg83
g1475
sg76
(lp1491
g69
(g70
g71
NtRp1492
(dp1493
g74
(dp1494
g82
I4
ssg83
g1488
sg76
(lp1495
S''
asbasbasbag69
(g85
g71
NtRp1496
(dp1497
g74
(dp1498
sg83
g1031
sg76
(lp1499
g69
(g90
g71
NtRp1500
(dp1501
g74
(dp1502
g94
g95
ssg83
g1496
sg76
(lp1503
S'remote_addr'
p1504
asbag69
(g90
g71
NtRp1505
(dp1506
g74
(dp1507
g101
g102
ssg83
g1496
sg76
(lp1508
S':'
asbag69
(g90
g71
NtRp1509
(dp1510
g74
(dp1511
sg83
g1496
sg76
(lp1512
g69
(g70
g71
NtRp1513
(dp1514
g74
(dp1515
g82
I4
ssg83
g1509
sg76
(lp1516
g214
asbasbasbag69
(g85
g71
NtRp1517
(dp1518
g74
(dp1519
sg83
g1031
sg76
(lp1520
g69
(g90
g71
NtRp1521
(dp1522
g74
(dp1523
g94
g95
ssg83
g1517
sg76
(lp1524
S'remote_port'
p1525
asbag69
(g90
g71
NtRp1526
(dp1527
g74
(dp1528
g101
g102
ssg83
g1517
sg76
(lp1529
S':'
asbag69
(g90
g71
NtRp1530
(dp1531
g74
(dp1532
sg83
g1517
sg76
(lp1533
g69
(g70
g71
NtRp1534
(dp1535
g74
(dp1536
g82
I4
ssg83
g1530
sg76
(lp1537
S'37477'
p1538
asbasbasbag69
(g85
g71
NtRp1539
(dp1540
g74
(dp1541
sg83
g1031
sg76
(lp1542
g69
(g90
g71
NtRp1543
(dp1544
g74
(dp1545
g94
g95
ssg83
g1539
sg76
(lp1546
S'request_method'
p1547
asbag69
(g90
g71
NtRp1548
(dp1549
g74
(dp1550
g101
g102
ssg83
g1539
sg76
(lp1551
S':'
asbag69
(g90
g71
NtRp1552
(dp1553
g74
(dp1554
sg83
g1539
sg76
(lp1555
g69
(g70
g71
NtRp1556
(dp1557
g74
(dp1558
g82
I4
ssg83
g1552
sg76
(lp1559
S'GET'
p1560
asbasbasbag69
(g85
g71
NtRp1561
(dp1562
g74
(dp1563
sg83
g1031
sg76
(lp1564
g69
(g90
g71
NtRp1565
(dp1566
g74
(dp1567
g94
g95
ssg83
g1561
sg76
(lp1568
S'script_name'
p1569
asbag69
(g90
g71
NtRp1570
(dp1571
g74
(dp1572
g101
g102
ssg83
g1561
sg76
(lp1573
S':'
asbag69
(g90
g71
NtRp1574
(dp1575
g74
(dp1576
sg83
g1561
sg76
(lp1577
g69
(g70
g71
NtRp1578
(dp1579
g74
(dp1580
g82
I4
ssg83
g1574
sg76
(lp1581
S''
asbasbasbag69
(g85
g71
NtRp1582
(dp1583
g74
(dp1584
sg83
g1031
sg76
(lp1585
g69
(g90
g71
NtRp1586
(dp1587
g74
(dp1588
g94
g95
ssg83
g1582
sg76
(lp1589
S'server_name'
p1590
asbag69
(g90
g71
NtRp1591
(dp1592
g74
(dp1593
g101
g102
ssg83
g1582
sg76
(lp1594
S':'
asbag69
(g90
g71
NtRp1595
(dp1596
g74
(dp1597
sg83
g1582
sg76
(lp1598
g69
(g70
g71
NtRp1599
(dp1600
g74
(dp1601
g82
I4
ssg83
g1595
sg76
(lp1602
S'Master-Fish'
p1603
asbasbasbag69
(g85
g71
NtRp1604
(dp1605
g74
(dp1606
sg83
g1031
sg76
(lp1607
g69
(g90
g71
NtRp1608
(dp1609
g74
(dp1610
g94
g95
ssg83
g1604
sg76
(lp1611
S'server_port'
p1612
asbag69
(g90
g71
NtRp1613
(dp1614
g74
(dp1615
g101
g102
ssg83
g1604
sg76
(lp1616
S':'
asbag69
(g90
g71
NtRp1617
(dp1618
g74
(dp1619
sg83
g1604
sg76
(lp1620
g69
(g70
g71
NtRp1621
(dp1622
g74
(dp1623
g82
I4
ssg83
g1617
sg76
(lp1624
S'8000'
p1625
asbasbasbag69
(g85
g71
NtRp1626
(dp1627
g74
(dp1628
sg83
g1031
sg76
(lp1629
g69
(g90
g71
NtRp1630
(dp1631
g74
(dp1632
g94
g95
ssg83
g1626
sg76
(lp1633
S'server_protocol'
p1634
asbag69
(g90
g71
NtRp1635
(dp1636
g74
(dp1637
g101
g102
ssg83
g1626
sg76
(lp1638
S':'
asbag69
(g90
g71
NtRp1639
(dp1640
g74
(dp1641
sg83
g1626
sg76
(lp1642
g69
(g70
g71
NtRp1643
(dp1644
g74
(dp1645
g82
I4
ssg83
g1639
sg76
(lp1646
S'HTTP/1.1'
p1647
asbasbasbag69
(g85
g71
NtRp1648
(dp1649
g74
(dp1650
sg83
g1031
sg76
(lp1651
g69
(g90
g71
NtRp1652
(dp1653
g74
(dp1654
g94
g95
ssg83
g1648
sg76
(lp1655
S'server_software'
p1656
asbag69
(g90
g71
NtRp1657
(dp1658
g74
(dp1659
g101
g102
ssg83
g1648
sg76
(lp1660
S':'
asbag69
(g90
g71
NtRp1661
(dp1662
g74
(dp1663
sg83
g1648
sg76
(lp1664
g69
(g70
g71
NtRp1665
(dp1666
g74
(dp1667
g82
I4
ssg83
g1661
sg76
(lp1668
S'Rocket 1.2.4'
p1669
asbasbasbag69
(g85
g71
NtRp1670
(dp1671
g74
(dp1672
sg83
g1031
sg76
(lp1673
g69
(g90
g71
NtRp1674
(dp1675
g74
(dp1676
g94
g95
ssg83
g1670
sg76
(lp1677
S'web2py_crontype'
p1678
asbag69
(g90
g71
NtRp1679
(dp1680
g74
(dp1681
g101
g102
ssg83
g1670
sg76
(lp1682
S':'
asbag69
(g90
g71
NtRp1683
(dp1684
g74
(dp1685
sg83
g1670
sg76
(lp1686
g69
(g70
g71
NtRp1687
(dp1688
g74
(dp1689
g82
I4
ssg83
g1683
sg76
(lp1690
S'hard'
p1691
asbasbasbag69
(g85
g71
NtRp1692
(dp1693
g74
(dp1694
sg83
g1031
sg76
(lp1695
g69
(g90
g71
NtRp1696
(dp1697
g74
(dp1698
g94
g95
ssg83
g1692
sg76
(lp1699
S'web2py_path'
p1700
asbag69
(g90
g71
NtRp1701
(dp1702
g74
(dp1703
g101
g102
ssg83
g1692
sg76
(lp1704
S':'
asbag69
(g90
g71
NtRp1705
(dp1706
g74
(dp1707
sg83
g1692
sg76
(lp1708
g69
(g70
g71
NtRp1709
(dp1710
g74
(dp1711
g82
I4
ssg83
g1705
sg76
(lp1712
g1078
asbasbasbag69
(g85
g71
NtRp1713
(dp1714
g74
(dp1715
sg83
g1031
sg76
(lp1716
g69
(g90
g71
NtRp1717
(dp1718
g74
(dp1719
g94
g95
ssg83
g1713
sg76
(lp1720
S'web2py_version'
p1721
asbag69
(g90
g71
NtRp1722
(dp1723
g74
(dp1724
g101
g102
ssg83
g1713
sg76
(lp1725
S':'
asbag69
(g90
g71
NtRp1726
(dp1727
g74
(dp1728
sg83
g1713
sg76
(lp1729
g69
(g70
g71
NtRp1730
(dp1731
g74
(dp1732
g82
I4
ssg83
g1726
sg76
(lp1733
g69
(g78
g71
NtRp1734
(dp1735
g74
(dp1736
g82
I3
ssg83
Nsg76
(lp1737
g69
(g85
g71
NtRp1738
(dp1739
g74
(dp1740
sg83
g1734
sg76
(lp1741
g69
(g90
g71
NtRp1742
(dp1743
g74
(dp1744
sg83
g1738
sg76
(lp1745
g69
(g70
g71
NtRp1746
(dp1747
g74
(dp1748
g82
I3
ssg83
g1742
sg76
(lp1749
S'1'
asbasbasbag69
(g85
g71
NtRp1750
(dp1751
g74
(dp1752
sg83
g1734
sg76
(lp1753
g69
(g90
g71
NtRp1754
(dp1755
g74
(dp1756
sg83
g1750
sg76
(lp1757
g69
(g70
g71
NtRp1758
(dp1759
g74
(dp1760
g82
I3
ssg83
g1754
sg76
(lp1761
S'99'
p1762
asbasbasbag69
(g85
g71
NtRp1763
(dp1764
g74
(dp1765
sg83
g1734
sg76
(lp1766
g69
(g90
g71
NtRp1767
(dp1768
g74
(dp1769
sg83
g1763
sg76
(lp1770
g69
(g70
g71
NtRp1771
(dp1772
g74
(dp1773
g82
I3
ssg83
g1767
sg76
(lp1774
S'7'
asbasbasbag69
(g85
g71
NtRp1775
(dp1776
g74
(dp1777
sg83
g1734
sg76
(lp1778
g69
(g90
g71
NtRp1779
(dp1780
g74
(dp1781
sg83
g1775
sg76
(lp1782
g69
(g70
g71
NtRp1783
(dp1784
g74
(dp1785
g82
I3
ssg83
g1779
sg76
(lp1786
S'datetime.datetime(2012, 3, 4, 22, 12, 8)'
p1787
asbasbasbag69
(g85
g71
NtRp1788
(dp1789
g74
(dp1790
sg83
g1734
sg76
(lp1791
g69
(g90
g71
NtRp1792
(dp1793
g74
(dp1794
sg83
g1788
sg76
(lp1795
g69
(g70
g71
NtRp1796
(dp1797
g74
(dp1798
g82
I3
ssg83
g1792
sg76
(lp1799
S'stable'
p1800
asbasbasbasbasbasbasbag69
(g85
g71
NtRp1801
(dp1802
g74
(dp1803
sg83
g1031
sg76
(lp1804
g69
(g90
g71
NtRp1805
(dp1806
g74
(dp1807
g94
g95
ssg83
g1801
sg76
(lp1808
S'wsgi_errors'
p1809
asbag69
(g90
g71
NtRp1810
(dp1811
g74
(dp1812
g101
g102
ssg83
g1801
sg76
(lp1813
S':'
asbag69
(g90
g71
NtRp1814
(dp1815
g74
(dp1816
sg83
g1801
sg76
(lp1817
g69
(g70
g71
NtRp1818
(dp1819
g74
(dp1820
g82
I4
ssg83
g1814
sg76
(lp1821
S"<open file '<stderr>', mode 'w' at 0x7f82c0a93270>"
p1822
asbasbasbag69
(g85
g71
NtRp1823
(dp1824
g74
(dp1825
sg83
g1031
sg76
(lp1826
g69
(g90
g71
NtRp1827
(dp1828
g74
(dp1829
g94
g95
ssg83
g1823
sg76
(lp1830
S'wsgi_file_wrapper'
p1831
asbag69
(g90
g71
NtRp1832
(dp1833
g74
(dp1834
g101
g102
ssg83
g1823
sg76
(lp1835
S':'
asbag69
(g90
g71
NtRp1836
(dp1837
g74
(dp1838
sg83
g1823
sg76
(lp1839
g69
(g70
g71
NtRp1840
(dp1841
g74
(dp1842
g82
I4
ssg83
g1836
sg76
(lp1843
S'<class wsgiref.util.FileWrapper at 0x2436870>'
p1844
asbasbasbag69
(g85
g71
NtRp1845
(dp1846
g74
(dp1847
sg83
g1031
sg76
(lp1848
g69
(g90
g71
NtRp1849
(dp1850
g74
(dp1851
g94
g95
ssg83
g1845
sg76
(lp1852
S'wsgi_input'
p1853
asbag69
(g90
g71
NtRp1854
(dp1855
g74
(dp1856
g101
g102
ssg83
g1845
sg76
(lp1857
S':'
asbag69
(g90
g71
NtRp1858
(dp1859
g74
(dp1860
sg83
g1845
sg76
(lp1861
g69
(g70
g71
NtRp1862
(dp1863
g74
(dp1864
g82
I4
ssg83
g1858
sg76
(lp1865
S'<socket._fileobject object at 0x2e791d0>'
p1866
asbasbasbag69
(g85
g71
NtRp1867
(dp1868
g74
(dp1869
sg83
g1031
sg76
(lp1870
g69
(g90
g71
NtRp1871
(dp1872
g74
(dp1873
g94
g95
ssg83
g1867
sg76
(lp1874
S'wsgi_multiprocess'
p1875
asbag69
(g90
g71
NtRp1876
(dp1877
g74
(dp1878
g101
g102
ssg83
g1867
sg76
(lp1879
S':'
asbag69
(g90
g71
NtRp1880
(dp1881
g74
(dp1882
sg83
g1867
sg76
(lp1883
g69
(g70
g71
NtRp1884
(dp1885
g74
(dp1886
g82
I4
ssg83
g1880
sg76
(lp1887
g112
asbasbasbag69
(g85
g71
NtRp1888
(dp1889
g74
(dp1890
sg83
g1031
sg76
(lp1891
g69
(g90
g71
NtRp1892
(dp1893
g74
(dp1894
g94
g95
ssg83
g1888
sg76
(lp1895
S'wsgi_multithread'
p1896
asbag69
(g90
g71
NtRp1897
(dp1898
g74
(dp1899
g101
g102
ssg83
g1888
sg76
(lp1900
S':'
asbag69
(g90
g71
NtRp1901
(dp1902
g74
(dp1903
sg83
g1888
sg76
(lp1904
g69
(g70
g71
NtRp1905
(dp1906
g74
(dp1907
g82
I4
ssg83
g1901
sg76
(lp1908
S'True'
p1909
asbasbasbag69
(g85
g71
NtRp1910
(dp1911
g74
(dp1912
sg83
g1031
sg76
(lp1913
g69
(g90
g71
NtRp1914
(dp1915
g74
(dp1916
g94
g95
ssg83
g1910
sg76
(lp1917
S'wsgi_run_once'
p1918
asbag69
(g90
g71
NtRp1919
(dp1920
g74
(dp1921
g101
g102
ssg83
g1910
sg76
(lp1922
S':'
asbag69
(g90
g71
NtRp1923
(dp1924
g74
(dp1925
sg83
g1910
sg76
(lp1926
g69
(g70
g71
NtRp1927
(dp1928
g74
(dp1929
g82
I4
ssg83
g1923
sg76
(lp1930
g112
asbasbasbag69
(g85
g71
NtRp1931
(dp1932
g74
(dp1933
sg83
g1031
sg76
(lp1934
g69
(g90
g71
NtRp1935
(dp1936
g74
(dp1937
g94
g95
ssg83
g1931
sg76
(lp1938
S'wsgi_url_scheme'
p1939
asbag69
(g90
g71
NtRp1940
(dp1941
g74
(dp1942
g101
g102
ssg83
g1931
sg76
(lp1943
S':'
asbag69
(g90
g71
NtRp1944
(dp1945
g74
(dp1946
sg83
g1931
sg76
(lp1947
g69
(g70
g71
NtRp1948
(dp1949
g74
(dp1950
g82
I4
ssg83
g1944
sg76
(lp1951
S'http'
p1952
asbasbasbag69
(g85
g71
NtRp1953
(dp1954
g74
(dp1955
sg83
g1031
sg76
(lp1956
g69
(g90
g71
NtRp1957
(dp1958
g74
(dp1959
g94
g95
ssg83
g1953
sg76
(lp1960
S'wsgi_version'
p1961
asbag69
(g90
g71
NtRp1962
(dp1963
g74
(dp1964
g101
g102
ssg83
g1953
sg76
(lp1965
S':'
asbag69
(g90
g71
NtRp1966
(dp1967
g74
(dp1968
sg83
g1953
sg76
(lp1969
g69
(g70
g71
NtRp1970
(dp1971
g74
(dp1972
g82
I4
ssg83
g1966
sg76
(lp1973
g69
(g78
g71
NtRp1974
(dp1975
g74
(dp1976
g82
I3
ssg83
Nsg76
(lp1977
g69
(g85
g71
NtRp1978
(dp1979
g74
(dp1980
sg83
g1974
sg76
(lp1981
g69
(g90
g71
NtRp1982
(dp1983
g74
(dp1984
sg83
g1978
sg76
(lp1985
g69
(g70
g71
NtRp1986
(dp1987
g74
(dp1988
g82
I3
ssg83
g1982
sg76
(lp1989
S'1'
asbasbasbag69
(g85
g71
NtRp1990
(dp1991
g74
(dp1992
sg83
g1974
sg76
(lp1993
g69
(g90
g71
NtRp1994
(dp1995
g74
(dp1996
sg83
g1990
sg76
(lp1997
g69
(g70
g71
NtRp1998
(dp1999
g74
(dp2000
g82
I3
ssg83
g1994
sg76
(lp2001
S'0'
asbasbasbasbasbasbasbasbasbasbasbag69
(g85
g71
NtRp2002
(dp2003
g74
(dp2004
sg83
g79
sg76
(lp2005
g69
(g90
g71
NtRp2006
(dp2007
g74
(dp2008
g94
g95
ssg83
g2002
sg76
(lp2009
S'extension'
p2010
asbag69
(g90
g71
NtRp2011
(dp2012
g74
(dp2013
g101
g102
ssg83
g2002
sg76
(lp2014
S':'
asbag69
(g90
g71
NtRp2015
(dp2016
g74
(dp2017
sg83
g2002
sg76
(lp2018
g69
(g70
g71
NtRp2019
(dp2020
g74
(dp2021
g82
I5
ssg83
g2015
sg76
(lp2022
S'html'
p2023
asbasbasbag69
(g85
g71
NtRp2024
(dp2025
g74
(dp2026
sg83
g79
sg76
(lp2027
g69
(g90
g71
NtRp2028
(dp2029
g74
(dp2030
g94
g95
ssg83
g2024
sg76
(lp2031
S'folder'
p2032
asbag69
(g90
g71
NtRp2033
(dp2034
g74
(dp2035
g101
g102
ssg83
g2024
sg76
(lp2036
S':'
asbag69
(g90
g71
NtRp2037
(dp2038
g74
(dp2039
sg83
g2024
sg76
(lp2040
g69
(g70
g71
NtRp2041
(dp2042
g74
(dp2043
g82
I5
ssg83
g2037
sg76
(lp2044
S'/home/fish/Desktop/web2py/applications/vsalad/'
p2045
asbasbasbag69
(g85
g71
NtRp2046
(dp2047
g74
(dp2048
sg83
g79
sg76
(lp2049
g69
(g90
g71
NtRp2050
(dp2051
g74
(dp2052
g94
g95
ssg83
g2046
sg76
(lp2053
S'function'
p2054
asbag69
(g90
g71
NtRp2055
(dp2056
g74
(dp2057
g101
g102
ssg83
g2046
sg76
(lp2058
S':'
asbag69
(g90
g71
NtRp2059
(dp2060
g74
(dp2061
sg83
g2046
sg76
(lp2062
g69
(g70
g71
NtRp2063
(dp2064
g74
(dp2065
g82
I5
ssg83
g2059
sg76
(lp2066
S'comments'
p2067
asbasbasbag69
(g85
g71
NtRp2068
(dp2069
g74
(dp2070
sg83
g79
sg76
(lp2071
g69
(g90
g71
NtRp2072
(dp2073
g74
(dp2074
g94
g95
ssg83
g2068
sg76
(lp2075
S'get_vars'
p2076
asbag69
(g90
g71
NtRp2077
(dp2078
g74
(dp2079
g101
g102
ssg83
g2068
sg76
(lp2080
S':'
asbag69
(g90
g71
NtRp2081
(dp2082
g74
(dp2083
sg83
g2068
sg76
(lp2084
g69
(g70
g71
NtRp2085
(dp2086
g74
(dp2087
g82
I5
ssg83
g2081
sg76
(lp2088
g69
(g78
g71
NtRp2089
(dp2090
g74
(dp2091
g82
I4
ssg83
Nsg76
(lp2092
sbasbasbasbag69
(g85
g71
NtRp2093
(dp2094
g74
(dp2095
sg83
g79
sg76
(lp2096
g69
(g90
g71
NtRp2097
(dp2098
g74
(dp2099
g94
g95
ssg83
g2093
sg76
(lp2100
S'global_settings'
p2101
asbag69
(g90
g71
NtRp2102
(dp2103
g74
(dp2104
g101
g102
ssg83
g2093
sg76
(lp2105
S':'
asbag69
(g90
g71
NtRp2106
(dp2107
g74
(dp2108
sg83
g2093
sg76
(lp2109
g69
(g70
g71
NtRp2110
(dp2111
g74
(dp2112
g82
I5
ssg83
g2106
sg76
(lp2113
g69
(g78
g71
NtRp2114
(dp2115
g74
(dp2116
g82
I4
ssg83
Nsg76
(lp2117
g69
(g85
g71
NtRp2118
(dp2119
g74
(dp2120
sg83
g2114
sg76
(lp2121
g69
(g90
g71
NtRp2122
(dp2123
g74
(dp2124
g94
g95
ssg83
g2118
sg76
(lp2125
g1043
asbag69
(g90
g71
NtRp2126
(dp2127
g74
(dp2128
g101
g102
ssg83
g2118
sg76
(lp2129
S':'
asbag69
(g90
g71
NtRp2130
(dp2131
g74
(dp2132
sg83
g2118
sg76
(lp2133
g69
(g70
g71
NtRp2134
(dp2135
g74
(dp2136
g82
I4
ssg83
g2130
sg76
(lp2137
S"set(['/home/fish/Desktop/web2py/applications/admin/', '/home/fish/Desktop/web2py/applications/welcome/', '/home/fish/Desktop/web2py/applications/vsalad/', '/home/fish/Desktop/web2py/applications/examples/'])"
p2138
asbasbasbag69
(g85
g71
NtRp2139
(dp2140
g74
(dp2141
sg83
g2114
sg76
(lp2142
g69
(g90
g71
NtRp2143
(dp2144
g74
(dp2145
g94
g95
ssg83
g2139
sg76
(lp2146
g1065
asbag69
(g90
g71
NtRp2147
(dp2148
g74
(dp2149
g101
g102
ssg83
g2139
sg76
(lp2150
S':'
asbag69
(g90
g71
NtRp2151
(dp2152
g74
(dp2153
sg83
g2139
sg76
(lp2154
g69
(g70
g71
NtRp2155
(dp2156
g74
(dp2157
g82
I4
ssg83
g2151
sg76
(lp2158
g1078
asbasbasbag69
(g85
g71
NtRp2159
(dp2160
g74
(dp2161
sg83
g2114
sg76
(lp2162
g69
(g90
g71
NtRp2163
(dp2164
g74
(dp2165
g94
g95
ssg83
g2159
sg76
(lp2166
g1087
asbag69
(g90
g71
NtRp2167
(dp2168
g74
(dp2169
g101
g102
ssg83
g2159
sg76
(lp2170
S':'
asbag69
(g90
g71
NtRp2171
(dp2172
g74
(dp2173
sg83
g2159
sg76
(lp2174
g69
(g70
g71
NtRp2175
(dp2176
g74
(dp2177
g82
I4
ssg83
g2171
sg76
(lp2178
g69
(g78
g71
NtRp2179
(dp2180
g74
(dp2181
g82
I3
ssg83
Nsg76
(lp2182
sbasbasbasbag69
(g85
g71
NtRp2183
(dp2184
g74
(dp2185
sg83
g2114
sg76
(lp2186
g69
(g90
g71
NtRp2187
(dp2188
g74
(dp2189
g94
g95
ssg83
g2183
sg76
(lp2190
g1112
asbag69
(g90
g71
NtRp2191
(dp2192
g74
(dp2193
g101
g102
ssg83
g2183
sg76
(lp2194
S':'
asbag69
(g90
g71
NtRp2195
(dp2196
g74
(dp2197
sg83
g2183
sg76
(lp2198
g69
(g70
g71
NtRp2199
(dp2200
g74
(dp2201
g82
I4
ssg83
g2195
sg76
(lp2202
S"<Values at 0x255e518: {'verbose': False, 'ip': '127.0.0.1', 'shutdown_timeout': 5, 'taskbar': False, 'nocron': False, 'pid_filename': 'httpserver.pid', 'maxthreads': None, 'softcron': False, 'server_name': 'Master-Fish', 'bpython': False, 'nogui': False, 'port': 8000, 'extcron': False, 'debuglevel': 30, 'test': None, 'folder': '/home/fish/Desktop/web2py', 'config': '', 'import_models': False, 'winservice': '', 'shell': None, 'run': '', 'log_filename': 'httpserver.log', 'args': [''], 'socket_timeout': 5, 'ssl_ca_certificate': None, 'scheduler': None, 'profiler_filename': None, 'ssl_private_key': '', 'password': '<ask>', 'request_queue_size': 5, 'ssl_certificate': '', 'cronjob': False, 'numthreads': None, 'quiet': False, 'interfaces': None, 'minthreads': None, 'timeout': 10, 'plain': False, 'nobanner': False}>"
p2203
asbasbasbag69
(g85
g71
NtRp2204
(dp2205
g74
(dp2206
sg83
g2114
sg76
(lp2207
g69
(g90
g71
NtRp2208
(dp2209
g74
(dp2210
g94
g95
ssg83
g2204
sg76
(lp2211
g1134
asbag69
(g90
g71
NtRp2212
(dp2213
g74
(dp2214
g101
g102
ssg83
g2204
sg76
(lp2215
S':'
asbag69
(g90
g71
NtRp2216
(dp2217
g74
(dp2218
sg83
g2204
sg76
(lp2219
g69
(g70
g71
NtRp2220
(dp2221
g74
(dp2222
g82
I4
ssg83
g2216
sg76
(lp2223
S'set([])'
p2224
asbasbasbag69
(g85
g71
NtRp2225
(dp2226
g74
(dp2227
sg83
g2114
sg76
(lp2228
g69
(g90
g71
NtRp2229
(dp2230
g74
(dp2231
g94
g95
ssg83
g2225
sg76
(lp2232
g1156
asbag69
(g90
g71
NtRp2233
(dp2234
g74
(dp2235
g101
g102
ssg83
g2225
sg76
(lp2236
S':'
asbag69
(g90
g71
NtRp2237
(dp2238
g74
(dp2239
sg83
g2225
sg76
(lp2240
g69
(g70
g71
NtRp2241
(dp2242
g74
(dp2243
g82
I4
ssg83
g2237
sg76
(lp2244
g112
asbasbasbag69
(g85
g71
NtRp2245
(dp2246
g74
(dp2247
sg83
g2114
sg76
(lp2248
g69
(g90
g71
NtRp2249
(dp2250
g74
(dp2251
g94
g95
ssg83
g2245
sg76
(lp2252
g1177
asbag69
(g90
g71
NtRp2253
(dp2254
g74
(dp2255
g101
g102
ssg83
g2245
sg76
(lp2256
S':'
asbag69
(g90
g71
NtRp2257
(dp2258
g74
(dp2259
sg83
g2245
sg76
(lp2260
g69
(g70
g71
NtRp2261
(dp2262
g74
(dp2263
g82
I4
ssg83
g2257
sg76
(lp2264
g1190
asbasbasbag69
(g85
g71
NtRp2265
(dp2266
g74
(dp2267
sg83
g2114
sg76
(lp2268
g69
(g90
g71
NtRp2269
(dp2270
g74
(dp2271
g94
g95
ssg83
g2265
sg76
(lp2272
g1419
asbag69
(g90
g71
NtRp2273
(dp2274
g74
(dp2275
g101
g102
ssg83
g2265
sg76
(lp2276
S':'
asbag69
(g90
g71
NtRp2277
(dp2278
g74
(dp2279
sg83
g2265
sg76
(lp2280
g69
(g70
g71
NtRp2281
(dp2282
g74
(dp2283
g82
I4
ssg83
g2277
sg76
(lp2284
g112
asbasbasbag69
(g85
g71
NtRp2285
(dp2286
g74
(dp2287
sg83
g2114
sg76
(lp2288
g69
(g90
g71
NtRp2289
(dp2290
g74
(dp2291
g94
g95
ssg83
g2285
sg76
(lp2292
g1440
asbag69
(g90
g71
NtRp2293
(dp2294
g74
(dp2295
g101
g102
ssg83
g2285
sg76
(lp2296
S':'
asbag69
(g90
g71
NtRp2297
(dp2298
g74
(dp2299
sg83
g2285
sg76
(lp2300
g69
(g70
g71
NtRp2301
(dp2302
g74
(dp2303
g82
I4
ssg83
g2297
sg76
(lp2304
g112
asbasbasbag69
(g85
g71
NtRp2305
(dp2306
g74
(dp2307
sg83
g2114
sg76
(lp2308
g69
(g90
g71
NtRp2309
(dp2310
g74
(dp2311
g94
g95
ssg83
g2305
sg76
(lp2312
g1678
asbag69
(g90
g71
NtRp2313
(dp2314
g74
(dp2315
g101
g102
ssg83
g2305
sg76
(lp2316
S':'
asbag69
(g90
g71
NtRp2317
(dp2318
g74
(dp2319
sg83
g2305
sg76
(lp2320
g69
(g70
g71
NtRp2321
(dp2322
g74
(dp2323
g82
I4
ssg83
g2317
sg76
(lp2324
g1691
asbasbasbag69
(g85
g71
NtRp2325
(dp2326
g74
(dp2327
sg83
g2114
sg76
(lp2328
g69
(g90
g71
NtRp2329
(dp2330
g74
(dp2331
g94
g95
ssg83
g2325
sg76
(lp2332
g1721
asbag69
(g90
g71
NtRp2333
(dp2334
g74
(dp2335
g101
g102
ssg83
g2325
sg76
(lp2336
S':'
asbag69
(g90
g71
NtRp2337
(dp2338
g74
(dp2339
sg83
g2325
sg76
(lp2340
g69
(g70
g71
NtRp2341
(dp2342
g74
(dp2343
g82
I4
ssg83
g2337
sg76
(lp2344
g69
(g78
g71
NtRp2345
(dp2346
g74
(dp2347
g82
I3
ssg83
Nsg76
(lp2348
g69
(g85
g71
NtRp2349
(dp2350
g74
(dp2351
sg83
g2345
sg76
(lp2352
g69
(g90
g71
NtRp2353
(dp2354
g74
(dp2355
sg83
g2349
sg76
(lp2356
g69
(g70
g71
NtRp2357
(dp2358
g74
(dp2359
g82
I3
ssg83
g2353
sg76
(lp2360
S'1'
asbasbasbag69
(g85
g71
NtRp2361
(dp2362
g74
(dp2363
sg83
g2345
sg76
(lp2364
g69
(g90
g71
NtRp2365
(dp2366
g74
(dp2367
sg83
g2361
sg76
(lp2368
g69
(g70
g71
NtRp2369
(dp2370
g74
(dp2371
g82
I3
ssg83
g2365
sg76
(lp2372
S'99'
p2373
asbasbasbag69
(g85
g71
NtRp2374
(dp2375
g74
(dp2376
sg83
g2345
sg76
(lp2377
g69
(g90
g71
NtRp2378
(dp2379
g74
(dp2380
sg83
g2374
sg76
(lp2381
g69
(g70
g71
NtRp2382
(dp2383
g74
(dp2384
g82
I3
ssg83
g2378
sg76
(lp2385
S'7'
asbasbasbag69
(g85
g71
NtRp2386
(dp2387
g74
(dp2388
sg83
g2345
sg76
(lp2389
g69
(g90
g71
NtRp2390
(dp2391
g74
(dp2392
sg83
g2386
sg76
(lp2393
g69
(g70
g71
NtRp2394
(dp2395
g74
(dp2396
g82
I3
ssg83
g2390
sg76
(lp2397
S'datetime.datetime(2012, 3, 4, 22, 12, 8)'
p2398
asbasbasbag69
(g85
g71
NtRp2399
(dp2400
g74
(dp2401
sg83
g2345
sg76
(lp2402
g69
(g90
g71
NtRp2403
(dp2404
g74
(dp2405
sg83
g2399
sg76
(lp2406
g69
(g70
g71
NtRp2407
(dp2408
g74
(dp2409
g82
I3
ssg83
g2403
sg76
(lp2410
g1800
asbasbasbasbasbasbasbasbasbasbasbag69
(g85
g71
NtRp2411
(dp2412
g74
(dp2413
sg83
g79
sg76
(lp2414
g69
(g90
g71
NtRp2415
(dp2416
g74
(dp2417
g94
g95
ssg83
g2411
sg76
(lp2418
S'is_https'
p2419
asbag69
(g90
g71
NtRp2420
(dp2421
g74
(dp2422
g101
g102
ssg83
g2411
sg76
(lp2423
S':'
asbag69
(g90
g71
NtRp2424
(dp2425
g74
(dp2426
sg83
g2411
sg76
(lp2427
g69
(g70
g71
NtRp2428
(dp2429
g74
(dp2430
g82
I5
ssg83
g2424
sg76
(lp2431
g112
asbasbasbag69
(g85
g71
NtRp2432
(dp2433
g74
(dp2434
sg83
g79
sg76
(lp2435
g69
(g90
g71
NtRp2436
(dp2437
g74
(dp2438
g94
g95
ssg83
g2432
sg76
(lp2439
S'is_local'
p2440
asbag69
(g90
g71
NtRp2441
(dp2442
g74
(dp2443
g101
g102
ssg83
g2432
sg76
(lp2444
S':'
asbag69
(g90
g71
NtRp2445
(dp2446
g74
(dp2447
sg83
g2432
sg76
(lp2448
g69
(g70
g71
NtRp2449
(dp2450
g74
(dp2451
g82
I5
ssg83
g2445
sg76
(lp2452
g1909
asbasbasbag69
(g85
g71
NtRp2453
(dp2454
g74
(dp2455
sg83
g79
sg76
(lp2456
g69
(g90
g71
NtRp2457
(dp2458
g74
(dp2459
g94
g95
ssg83
g2453
sg76
(lp2460
S'is_restful'
p2461
asbag69
(g90
g71
NtRp2462
(dp2463
g74
(dp2464
g101
g102
ssg83
g2453
sg76
(lp2465
S':'
asbag69
(g90
g71
NtRp2466
(dp2467
g74
(dp2468
sg83
g2453
sg76
(lp2469
g69
(g70
g71
NtRp2470
(dp2471
g74
(dp2472
g82
I5
ssg83
g2466
sg76
(lp2473
g112
asbasbasbag69
(g85
g71
NtRp2474
(dp2475
g74
(dp2476
sg83
g79
sg76
(lp2477
g69
(g90
g71
NtRp2478
(dp2479
g74
(dp2480
g94
g95
ssg83
g2474
sg76
(lp2481
S'now'
p2482
asbag69
(g90
g71
NtRp2483
(dp2484
g74
(dp2485
g101
g102
ssg83
g2474
sg76
(lp2486
S':'
asbag69
(g90
g71
NtRp2487
(dp2488
g74
(dp2489
sg83
g2474
sg76
(lp2490
g69
(g70
g71
NtRp2491
(dp2492
g74
(dp2493
g82
I5
ssg83
g2487
sg76
(lp2494
S'datetime.datetime(2012, 4, 19, 4, 19, 10, 335134)'
p2495
asbasbasbag69
(g85
g71
NtRp2496
(dp2497
g74
(dp2498
sg83
g79
sg76
(lp2499
g69
(g90
g71
NtRp2500
(dp2501
g74
(dp2502
g94
g95
ssg83
g2496
sg76
(lp2503
S'post_vars'
p2504
asbag69
(g90
g71
NtRp2505
(dp2506
g74
(dp2507
g101
g102
ssg83
g2496
sg76
(lp2508
S':'
asbag69
(g90
g71
NtRp2509
(dp2510
g74
(dp2511
sg83
g2496
sg76
(lp2512
g69
(g70
g71
NtRp2513
(dp2514
g74
(dp2515
g82
I5
ssg83
g2509
sg76
(lp2516
g69
(g78
g71
NtRp2517
(dp2518
g74
(dp2519
g82
I4
ssg83
Nsg76
(lp2520
sbasbasbasbag69
(g85
g71
NtRp2521
(dp2522
g74
(dp2523
sg83
g79
sg76
(lp2524
g69
(g90
g71
NtRp2525
(dp2526
g74
(dp2527
g94
g95
ssg83
g2521
sg76
(lp2528
S'raw_args'
p2529
asbag69
(g90
g71
NtRp2530
(dp2531
g74
(dp2532
g101
g102
ssg83
g2521
sg76
(lp2533
S':'
asbag69
(g90
g71
NtRp2534
(dp2535
g74
(dp2536
sg83
g2521
sg76
(lp2537
g69
(g70
g71
NtRp2538
(dp2539
g74
(dp2540
g82
I5
ssg83
g2534
sg76
(lp2541
S'4'
asbasbasbag69
(g85
g71
NtRp2542
(dp2543
g74
(dp2544
sg83
g79
sg76
(lp2545
g69
(g90
g71
NtRp2546
(dp2547
g74
(dp2548
g94
g95
ssg83
g2542
sg76
(lp2549
S'url'
p2550
asbag69
(g90
g71
NtRp2551
(dp2552
g74
(dp2553
g101
g102
ssg83
g2542
sg76
(lp2554
S':'
asbag69
(g90
g71
NtRp2555
(dp2556
g74
(dp2557
sg83
g2542
sg76
(lp2558
g69
(g70
g71
NtRp2559
(dp2560
g74
(dp2561
g82
I5
ssg83
g2555
sg76
(lp2562
S'/vsalad/action/comments/4'
p2563
asbasbasbag69
(g85
g71
NtRp2564
(dp2565
g74
(dp2566
sg83
g79
sg76
(lp2567
g69
(g90
g71
NtRp2568
(dp2569
g74
(dp2570
g94
g95
ssg83
g2564
sg76
(lp2571
S'utcnow'
p2572
asbag69
(g90
g71
NtRp2573
(dp2574
g74
(dp2575
g101
g102
ssg83
g2564
sg76
(lp2576
S':'
asbag69
(g90
g71
NtRp2577
(dp2578
g74
(dp2579
sg83
g2564
sg76
(lp2580
g69
(g70
g71
NtRp2581
(dp2582
g74
(dp2583
g82
I5
ssg83
g2577
sg76
(lp2584
S'datetime.datetime(2012, 4, 19, 0, 19, 10, 335162)'
p2585
asbasbasbag69
(g85
g71
NtRp2586
(dp2587
g74
(dp2588
sg83
g79
sg76
(lp2589
g69
(g90
g71
NtRp2590
(dp2591
g74
(dp2592
g94
g95
ssg83
g2586
sg76
(lp2593
S'uuid'
p2594
asbag69
(g90
g71
NtRp2595
(dp2596
g74
(dp2597
g101
g102
ssg83
g2586
sg76
(lp2598
S':'
asbag69
(g90
g71
NtRp2599
(dp2600
g74
(dp2601
sg83
g2586
sg76
(lp2602
g69
(g70
g71
NtRp2603
(dp2604
g74
(dp2605
g82
I5
ssg83
g2599
sg76
(lp2606
S'vsalad/127.0.0.1.2012-04-19.04-19-10.c34fc65c-5720-4643-8448-7b427e546757'
p2607
asbasbasbag69
(g85
g71
NtRp2608
(dp2609
g74
(dp2610
sg83
g79
sg76
(lp2611
g69
(g90
g71
NtRp2612
(dp2613
g74
(dp2614
g94
g95
ssg83
g2608
sg76
(lp2615
S'vars'
p2616
asbag69
(g90
g71
NtRp2617
(dp2618
g74
(dp2619
g101
g102
ssg83
g2608
sg76
(lp2620
S':'
asbag69
(g90
g71
NtRp2621
(dp2622
g74
(dp2623
sg83
g2608
sg76
(lp2624
g69
(g70
g71
NtRp2625
(dp2626
g74
(dp2627
g82
I5
ssg83
g2621
sg76
(lp2628
g69
(g78
g71
NtRp2629
(dp2630
g74
(dp2631
g82
I4
ssg83
Nsg76
(lp2632
sbasbasbasbag69
(g85
g71
NtRp2633
(dp2634
g74
(dp2635
sg83
g79
sg76
(lp2636
g69
(g90
g71
NtRp2637
(dp2638
g74
(dp2639
g94
g95
ssg83
g2633
sg76
(lp2640
S'wsgi'
p2641
asbag69
(g90
g71
NtRp2642
(dp2643
g74
(dp2644
g101
g102
ssg83
g2633
sg76
(lp2645
S':'
asbag69
(g90
g71
NtRp2646
(dp2647
g74
(dp2648
sg83
g2633
sg76
(lp2649
g69
(g70
g71
NtRp2650
(dp2651
g74
(dp2652
g82
I5
ssg83
g2646
sg76
(lp2653
g69
(g78
g71
NtRp2654
(dp2655
g74
(dp2656
g82
I4
ssg83
Nsg76
(lp2657
g69
(g85
g71
NtRp2658
(dp2659
g74
(dp2660
sg83
g2654
sg76
(lp2661
g69
(g90
g71
NtRp2662
(dp2663
g74
(dp2664
g94
g95
ssg83
g2658
sg76
(lp2665
S'environ'
p2666
asbag69
(g90
g71
NtRp2667
(dp2668
g74
(dp2669
g101
g102
ssg83
g2658
sg76
(lp2670
S':'
asbag69
(g90
g71
NtRp2671
(dp2672
g74
(dp2673
sg83
g2658
sg76
(lp2674
g69
(g70
g71
NtRp2675
(dp2676
g74
(dp2677
g82
I4
ssg83
g2671
sg76
(lp2678
g69
(g78
g71
NtRp2679
(dp2680
g74
(dp2681
g82
I3
ssg83
Nsg76
(lp2682
g69
(g85
g71
NtRp2683
(dp2684
g74
(dp2685
sg83
g2679
sg76
(lp2686
g69
(g90
g71
NtRp2687
(dp2688
g74
(dp2689
g94
g95
ssg83
g2683
sg76
(lp2690
S'HTTP_ACCEPT'
p2691
asbag69
(g90
g71
NtRp2692
(dp2693
g74
(dp2694
g101
g102
ssg83
g2683
sg76
(lp2695
S':'
asbag69
(g90
g71
NtRp2696
(dp2697
g74
(dp2698
sg83
g2683
sg76
(lp2699
g69
(g70
g71
NtRp2700
(dp2701
g74
(dp2702
g82
I3
ssg83
g2696
sg76
(lp2703
g1212
asbasbasbag69
(g85
g71
NtRp2704
(dp2705
g74
(dp2706
sg83
g2679
sg76
(lp2707
g69
(g90
g71
NtRp2708
(dp2709
g74
(dp2710
g94
g95
ssg83
g2704
sg76
(lp2711
S'HTTP_ACCEPT_CHARSET'
p2712
asbag69
(g90
g71
NtRp2713
(dp2714
g74
(dp2715
g101
g102
ssg83
g2704
sg76
(lp2716
S':'
asbag69
(g90
g71
NtRp2717
(dp2718
g74
(dp2719
sg83
g2704
sg76
(lp2720
g69
(g70
g71
NtRp2721
(dp2722
g74
(dp2723
g82
I3
ssg83
g2717
sg76
(lp2724
g1234
asbasbasbag69
(g85
g71
NtRp2725
(dp2726
g74
(dp2727
sg83
g2679
sg76
(lp2728
g69
(g90
g71
NtRp2729
(dp2730
g74
(dp2731
g94
g95
ssg83
g2725
sg76
(lp2732
S'HTTP_ACCEPT_ENCODING'
p2733
asbag69
(g90
g71
NtRp2734
(dp2735
g74
(dp2736
g101
g102
ssg83
g2725
sg76
(lp2737
S':'
asbag69
(g90
g71
NtRp2738
(dp2739
g74
(dp2740
sg83
g2725
sg76
(lp2741
g69
(g70
g71
NtRp2742
(dp2743
g74
(dp2744
g82
I3
ssg83
g2738
sg76
(lp2745
g1256
asbasbasbag69
(g85
g71
NtRp2746
(dp2747
g74
(dp2748
sg83
g2679
sg76
(lp2749
g69
(g90
g71
NtRp2750
(dp2751
g74
(dp2752
g94
g95
ssg83
g2746
sg76
(lp2753
S'HTTP_ACCEPT_LANGUAGE'
p2754
asbag69
(g90
g71
NtRp2755
(dp2756
g74
(dp2757
g101
g102
ssg83
g2746
sg76
(lp2758
S':'
asbag69
(g90
g71
NtRp2759
(dp2760
g74
(dp2761
sg83
g2746
sg76
(lp2762
g69
(g70
g71
NtRp2763
(dp2764
g74
(dp2765
g82
I3
ssg83
g2759
sg76
(lp2766
g1278
asbasbasbag69
(g85
g71
NtRp2767
(dp2768
g74
(dp2769
sg83
g2679
sg76
(lp2770
g69
(g90
g71
NtRp2771
(dp2772
g74
(dp2773
g94
g95
ssg83
g2767
sg76
(lp2774
S'HTTP_CACHE_CONTROL'
p2775
asbag69
(g90
g71
NtRp2776
(dp2777
g74
(dp2778
g101
g102
ssg83
g2767
sg76
(lp2779
S':'
asbag69
(g90
g71
NtRp2780
(dp2781
g74
(dp2782
sg83
g2767
sg76
(lp2783
g69
(g70
g71
NtRp2784
(dp2785
g74
(dp2786
g82
I3
ssg83
g2780
sg76
(lp2787
g1300
asbasbasbag69
(g85
g71
NtRp2788
(dp2789
g74
(dp2790
sg83
g2679
sg76
(lp2791
g69
(g90
g71
NtRp2792
(dp2793
g74
(dp2794
g94
g95
ssg83
g2788
sg76
(lp2795
S'HTTP_CONNECTION'
p2796
asbag69
(g90
g71
NtRp2797
(dp2798
g74
(dp2799
g101
g102
ssg83
g2788
sg76
(lp2800
S':'
asbag69
(g90
g71
NtRp2801
(dp2802
g74
(dp2803
sg83
g2788
sg76
(lp2804
g69
(g70
g71
NtRp2805
(dp2806
g74
(dp2807
g82
I3
ssg83
g2801
sg76
(lp2808
g1322
asbasbasbag69
(g85
g71
NtRp2809
(dp2810
g74
(dp2811
sg83
g2679
sg76
(lp2812
g69
(g90
g71
NtRp2813
(dp2814
g74
(dp2815
g94
g95
ssg83
g2809
sg76
(lp2816
S'HTTP_COOKIE'
p2817
asbag69
(g90
g71
NtRp2818
(dp2819
g74
(dp2820
g101
g102
ssg83
g2809
sg76
(lp2821
S':'
asbag69
(g90
g71
NtRp2822
(dp2823
g74
(dp2824
sg83
g2809
sg76
(lp2825
g69
(g70
g71
NtRp2826
(dp2827
g74
(dp2828
g82
I3
ssg83
g2822
sg76
(lp2829
g1344
asbasbasbag69
(g85
g71
NtRp2830
(dp2831
g74
(dp2832
sg83
g2679
sg76
(lp2833
g69
(g90
g71
NtRp2834
(dp2835
g74
(dp2836
g94
g95
ssg83
g2830
sg76
(lp2837
S'HTTP_HOST'
p2838
asbag69
(g90
g71
NtRp2839
(dp2840
g74
(dp2841
g101
g102
ssg83
g2830
sg76
(lp2842
S':'
asbag69
(g90
g71
NtRp2843
(dp2844
g74
(dp2845
sg83
g2830
sg76
(lp2846
g69
(g70
g71
NtRp2847
(dp2848
g74
(dp2849
g82
I3
ssg83
g2843
sg76
(lp2850
g1366
asbasbasbag69
(g85
g71
NtRp2851
(dp2852
g74
(dp2853
sg83
g2679
sg76
(lp2854
g69
(g90
g71
NtRp2855
(dp2856
g74
(dp2857
g94
g95
ssg83
g2851
sg76
(lp2858
S'HTTP_REFERER'
p2859
asbag69
(g90
g71
NtRp2860
(dp2861
g74
(dp2862
g101
g102
ssg83
g2851
sg76
(lp2863
S':'
asbag69
(g90
g71
NtRp2864
(dp2865
g74
(dp2866
sg83
g2851
sg76
(lp2867
g69
(g70
g71
NtRp2868
(dp2869
g74
(dp2870
g82
I3
ssg83
g2864
sg76
(lp2871
g1388
asbasbasbag69
(g85
g71
NtRp2872
(dp2873
g74
(dp2874
sg83
g2679
sg76
(lp2875
g69
(g90
g71
NtRp2876
(dp2877
g74
(dp2878
g94
g95
ssg83
g2872
sg76
(lp2879
S'HTTP_USER_AGENT'
p2880
asbag69
(g90
g71
NtRp2881
(dp2882
g74
(dp2883
g101
g102
ssg83
g2872
sg76
(lp2884
S':'
asbag69
(g90
g71
NtRp2885
(dp2886
g74
(dp2887
sg83
g2872
sg76
(lp2888
g69
(g70
g71
NtRp2889
(dp2890
g74
(dp2891
g82
I3
ssg83
g2885
sg76
(lp2892
g1410
asbasbasbag69
(g85
g71
NtRp2893
(dp2894
g74
(dp2895
sg83
g2679
sg76
(lp2896
g69
(g90
g71
NtRp2897
(dp2898
g74
(dp2899
g94
g95
ssg83
g2893
sg76
(lp2900
S'PATH_INFO'
p2901
asbag69
(g90
g71
NtRp2902
(dp2903
g74
(dp2904
g101
g102
ssg83
g2893
sg76
(lp2905
S':'
asbag69
(g90
g71
NtRp2906
(dp2907
g74
(dp2908
sg83
g2893
sg76
(lp2909
g69
(g70
g71
NtRp2910
(dp2911
g74
(dp2912
g82
I3
ssg83
g2906
sg76
(lp2913
g1474
asbasbasbag69
(g85
g71
NtRp2914
(dp2915
g74
(dp2916
sg83
g2679
sg76
(lp2917
g69
(g90
g71
NtRp2918
(dp2919
g74
(dp2920
g94
g95
ssg83
g2914
sg76
(lp2921
S'QUERY_STRING'
p2922
asbag69
(g90
g71
NtRp2923
(dp2924
g74
(dp2925
g101
g102
ssg83
g2914
sg76
(lp2926
S':'
asbag69
(g90
g71
NtRp2927
(dp2928
g74
(dp2929
sg83
g2914
sg76
(lp2930
g69
(g70
g71
NtRp2931
(dp2932
g74
(dp2933
g82
I3
ssg83
g2927
sg76
(lp2934
S''
asbasbasbag69
(g85
g71
NtRp2935
(dp2936
g74
(dp2937
sg83
g2679
sg76
(lp2938
g69
(g90
g71
NtRp2939
(dp2940
g74
(dp2941
g94
g95
ssg83
g2935
sg76
(lp2942
S'REMOTE_ADDR'
p2943
asbag69
(g90
g71
NtRp2944
(dp2945
g74
(dp2946
g101
g102
ssg83
g2935
sg76
(lp2947
S':'
asbag69
(g90
g71
NtRp2948
(dp2949
g74
(dp2950
sg83
g2935
sg76
(lp2951
g69
(g70
g71
NtRp2952
(dp2953
g74
(dp2954
g82
I3
ssg83
g2948
sg76
(lp2955
g214
asbasbasbag69
(g85
g71
NtRp2956
(dp2957
g74
(dp2958
sg83
g2679
sg76
(lp2959
g69
(g90
g71
NtRp2960
(dp2961
g74
(dp2962
g94
g95
ssg83
g2956
sg76
(lp2963
S'REMOTE_PORT'
p2964
asbag69
(g90
g71
NtRp2965
(dp2966
g74
(dp2967
g101
g102
ssg83
g2956
sg76
(lp2968
S':'
asbag69
(g90
g71
NtRp2969
(dp2970
g74
(dp2971
sg83
g2956
sg76
(lp2972
g69
(g70
g71
NtRp2973
(dp2974
g74
(dp2975
g82
I3
ssg83
g2969
sg76
(lp2976
g1538
asbasbasbag69
(g85
g71
NtRp2977
(dp2978
g74
(dp2979
sg83
g2679
sg76
(lp2980
g69
(g90
g71
NtRp2981
(dp2982
g74
(dp2983
g94
g95
ssg83
g2977
sg76
(lp2984
S'REQUEST_METHOD'
p2985
asbag69
(g90
g71
NtRp2986
(dp2987
g74
(dp2988
g101
g102
ssg83
g2977
sg76
(lp2989
S':'
asbag69
(g90
g71
NtRp2990
(dp2991
g74
(dp2992
sg83
g2977
sg76
(lp2993
g69
(g70
g71
NtRp2994
(dp2995
g74
(dp2996
g82
I3
ssg83
g2990
sg76
(lp2997
g1560
asbasbasbag69
(g85
g71
NtRp2998
(dp2999
g74
(dp3000
sg83
g2679
sg76
(lp3001
g69
(g90
g71
NtRp3002
(dp3003
g74
(dp3004
g94
g95
ssg83
g2998
sg76
(lp3005
S'SCRIPT_NAME'
p3006
asbag69
(g90
g71
NtRp3007
(dp3008
g74
(dp3009
g101
g102
ssg83
g2998
sg76
(lp3010
S':'
asbag69
(g90
g71
NtRp3011
(dp3012
g74
(dp3013
sg83
g2998
sg76
(lp3014
g69
(g70
g71
NtRp3015
(dp3016
g74
(dp3017
g82
I3
ssg83
g3011
sg76
(lp3018
S''
asbasbasbag69
(g85
g71
NtRp3019
(dp3020
g74
(dp3021
sg83
g2679
sg76
(lp3022
g69
(g90
g71
NtRp3023
(dp3024
g74
(dp3025
g94
g95
ssg83
g3019
sg76
(lp3026
S'SERVER_NAME'
p3027
asbag69
(g90
g71
NtRp3028
(dp3029
g74
(dp3030
g101
g102
ssg83
g3019
sg76
(lp3031
S':'
asbag69
(g90
g71
NtRp3032
(dp3033
g74
(dp3034
sg83
g3019
sg76
(lp3035
g69
(g70
g71
NtRp3036
(dp3037
g74
(dp3038
g82
I3
ssg83
g3032
sg76
(lp3039
g1603
asbasbasbag69
(g85
g71
NtRp3040
(dp3041
g74
(dp3042
sg83
g2679
sg76
(lp3043
g69
(g90
g71
NtRp3044
(dp3045
g74
(dp3046
g94
g95
ssg83
g3040
sg76
(lp3047
S'SERVER_PORT'
p3048
asbag69
(g90
g71
NtRp3049
(dp3050
g74
(dp3051
g101
g102
ssg83
g3040
sg76
(lp3052
S':'
asbag69
(g90
g71
NtRp3053
(dp3054
g74
(dp3055
sg83
g3040
sg76
(lp3056
g69
(g70
g71
NtRp3057
(dp3058
g74
(dp3059
g82
I3
ssg83
g3053
sg76
(lp3060
g1625
asbasbasbag69
(g85
g71
NtRp3061
(dp3062
g74
(dp3063
sg83
g2679
sg76
(lp3064
g69
(g90
g71
NtRp3065
(dp3066
g74
(dp3067
g94
g95
ssg83
g3061
sg76
(lp3068
S'SERVER_PROTOCOL'
p3069
asbag69
(g90
g71
NtRp3070
(dp3071
g74
(dp3072
g101
g102
ssg83
g3061
sg76
(lp3073
S':'
asbag69
(g90
g71
NtRp3074
(dp3075
g74
(dp3076
sg83
g3061
sg76
(lp3077
g69
(g70
g71
NtRp3078
(dp3079
g74
(dp3080
g82
I3
ssg83
g3074
sg76
(lp3081
g1647
asbasbasbag69
(g85
g71
NtRp3082
(dp3083
g74
(dp3084
sg83
g2679
sg76
(lp3085
g69
(g90
g71
NtRp3086
(dp3087
g74
(dp3088
g94
g95
ssg83
g3082
sg76
(lp3089
S'SERVER_SOFTWARE'
p3090
asbag69
(g90
g71
NtRp3091
(dp3092
g74
(dp3093
g101
g102
ssg83
g3082
sg76
(lp3094
S':'
asbag69
(g90
g71
NtRp3095
(dp3096
g74
(dp3097
sg83
g3082
sg76
(lp3098
g69
(g70
g71
NtRp3099
(dp3100
g74
(dp3101
g82
I3
ssg83
g3095
sg76
(lp3102
g1669
asbasbasbag69
(g85
g71
NtRp3103
(dp3104
g74
(dp3105
sg83
g2679
sg76
(lp3106
g69
(g90
g71
NtRp3107
(dp3108
g74
(dp3109
g94
g95
ssg83
g3103
sg76
(lp3110
S'wsgi.errors'
p3111
asbag69
(g90
g71
NtRp3112
(dp3113
g74
(dp3114
g101
g102
ssg83
g3103
sg76
(lp3115
S':'
asbag69
(g90
g71
NtRp3116
(dp3117
g74
(dp3118
sg83
g3103
sg76
(lp3119
g69
(g70
g71
NtRp3120
(dp3121
g74
(dp3122
g82
I3
ssg83
g3116
sg76
(lp3123
S"<open file '<stderr>', mode 'w' at 0x7f82c0a93270>"
p3124
asbasbasbag69
(g85
g71
NtRp3125
(dp3126
g74
(dp3127
sg83
g2679
sg76
(lp3128
g69
(g90
g71
NtRp3129
(dp3130
g74
(dp3131
g94
g95
ssg83
g3125
sg76
(lp3132
S'wsgi.file_wrapper'
p3133
asbag69
(g90
g71
NtRp3134
(dp3135
g74
(dp3136
g101
g102
ssg83
g3125
sg76
(lp3137
S':'
asbag69
(g90
g71
NtRp3138
(dp3139
g74
(dp3140
sg83
g3125
sg76
(lp3141
g69
(g70
g71
NtRp3142
(dp3143
g74
(dp3144
g82
I3
ssg83
g3138
sg76
(lp3145
S'<class wsgiref.util.FileWrapper at 0x2436870>'
p3146
asbasbasbag69
(g85
g71
NtRp3147
(dp3148
g74
(dp3149
sg83
g2679
sg76
(lp3150
g69
(g90
g71
NtRp3151
(dp3152
g74
(dp3153
g94
g95
ssg83
g3147
sg76
(lp3154
S'wsgi.input'
p3155
asbag69
(g90
g71
NtRp3156
(dp3157
g74
(dp3158
g101
g102
ssg83
g3147
sg76
(lp3159
S':'
asbag69
(g90
g71
NtRp3160
(dp3161
g74
(dp3162
sg83
g3147
sg76
(lp3163
g69
(g70
g71
NtRp3164
(dp3165
g74
(dp3166
g82
I3
ssg83
g3160
sg76
(lp3167
S'<cStringIO.StringO object at 0x2eb5f10>'
p3168
asbasbasbag69
(g85
g71
NtRp3169
(dp3170
g74
(dp3171
sg83
g2679
sg76
(lp3172
g69
(g90
g71
NtRp3173
(dp3174
g74
(dp3175
g94
g95
ssg83
g3169
sg76
(lp3176
S'wsgi.multiprocess'
p3177
asbag69
(g90
g71
NtRp3178
(dp3179
g74
(dp3180
g101
g102
ssg83
g3169
sg76
(lp3181
S':'
asbag69
(g90
g71
NtRp3182
(dp3183
g74
(dp3184
sg83
g3169
sg76
(lp3185
g69
(g70
g71
NtRp3186
(dp3187
g74
(dp3188
g82
I3
ssg83
g3182
sg76
(lp3189
g112
asbasbasbag69
(g85
g71
NtRp3190
(dp3191
g74
(dp3192
sg83
g2679
sg76
(lp3193
g69
(g90
g71
NtRp3194
(dp3195
g74
(dp3196
g94
g95
ssg83
g3190
sg76
(lp3197
S'wsgi.multithread'
p3198
asbag69
(g90
g71
NtRp3199
(dp3200
g74
(dp3201
g101
g102
ssg83
g3190
sg76
(lp3202
S':'
asbag69
(g90
g71
NtRp3203
(dp3204
g74
(dp3205
sg83
g3190
sg76
(lp3206
g69
(g70
g71
NtRp3207
(dp3208
g74
(dp3209
g82
I3
ssg83
g3203
sg76
(lp3210
g1909
asbasbasbag69
(g85
g71
NtRp3211
(dp3212
g74
(dp3213
sg83
g2679
sg76
(lp3214
g69
(g90
g71
NtRp3215
(dp3216
g74
(dp3217
g94
g95
ssg83
g3211
sg76
(lp3218
S'wsgi.run_once'
p3219
asbag69
(g90
g71
NtRp3220
(dp3221
g74
(dp3222
g101
g102
ssg83
g3211
sg76
(lp3223
S':'
asbag69
(g90
g71
NtRp3224
(dp3225
g74
(dp3226
sg83
g3211
sg76
(lp3227
g69
(g70
g71
NtRp3228
(dp3229
g74
(dp3230
g82
I3
ssg83
g3224
sg76
(lp3231
g112
asbasbasbag69
(g85
g71
NtRp3232
(dp3233
g74
(dp3234
sg83
g2679
sg76
(lp3235
g69
(g90
g71
NtRp3236
(dp3237
g74
(dp3238
g94
g95
ssg83
g3232
sg76
(lp3239
S'wsgi.url_scheme'
p3240
asbag69
(g90
g71
NtRp3241
(dp3242
g74
(dp3243
g101
g102
ssg83
g3232
sg76
(lp3244
S':'
asbag69
(g90
g71
NtRp3245
(dp3246
g74
(dp3247
sg83
g3232
sg76
(lp3248
g69
(g70
g71
NtRp3249
(dp3250
g74
(dp3251
g82
I3
ssg83
g3245
sg76
(lp3252
g1952
asbasbasbag69
(g85
g71
NtRp3253
(dp3254
g74
(dp3255
sg83
g2679
sg76
(lp3256
g69
(g90
g71
NtRp3257
(dp3258
g74
(dp3259
g94
g95
ssg83
g3253
sg76
(lp3260
S'wsgi.version'
p3261
asbag69
(g90
g71
NtRp3262
(dp3263
g74
(dp3264
g101
g102
ssg83
g3253
sg76
(lp3265
S':'
asbag69
(g90
g71
NtRp3266
(dp3267
g74
(dp3268
sg83
g3253
sg76
(lp3269
g69
(g70
g71
NtRp3270
(dp3271
g74
(dp3272
g82
I3
ssg83
g3266
sg76
(lp3273
S'1'
asbasbasbasbasbasbasbasbasbasbasbasbasbsS'frames'
p3274
(lp3275
(dp3276
S'file'
p3277
S'/home/fish/Desktop/web2py/gluon/restricted.py'
p3278
sS'dump'
p3279
(dp3280
S'environment'
p3281
S"{'A': <class 'gluon.html.A'>, 'Auth': <class 'gluon.tools.Auth'>, 'B': <class 'gluon.html.B'>, 'BEAUTIFY': <class 'gluon.html.BEAUTIFY'>, 'BODY': <class 'gluon.html.BODY'>, 'BR': <class 'gluon.html.BR'>, 'BUTTON': <class 'gluon.html.BUTTON'>, 'CAT': <class 'gluon.html.CAT'>, 'CENTER': <class 'gluon.html.CENTER'>, 'CLEANUP': <class 'gluon.validators.CLEANUP'>, ...}"
p3282
sS'ccode'
p3283
S'<code object <module> at 0x2e11f30, file "/home/...tions/vsalad/views/action/comments.html", line 1>'
p3284
ssS'lnum'
p3285
I205
sS'lines'
p3286
(dp3287
I200
S'    try:'
p3288
sI201
S'        if type(code) == types.CodeType:'
p3289
sI202
S'            ccode = code'
p3290
sI203
S'        else:'
p3291
sI204
S'            ccode = compile2(code,layer)'
p3292
sI205
S'        exec ccode in environment'
p3293
sI206
S'    except HTTP:'
p3294
sI207
S'        raise'
p3295
sI208
S'    except RestrictedError:'
p3296
sI209
S'        # do not encapsulate (obfuscate) the original RestrictedError'
p3297
ssS'call'
p3298
S'(code=\'response.write(\\\'<html lang="en">\\\\n<head>\\\\n    <s...ponse.write(\\\'\\\\n</body>\\\\n</html>\\\\n\\\', escape=False)\', environment={\'A\': <class \'gluon.html.A\'>, \'Auth\': <class \'gluon.tools.Auth\'>, \'B\': <class \'gluon.html.B\'>, \'BEAUTIFY\': <class \'gluon.html.BEAUTIFY\'>, \'BODY\': <class \'gluon.html.BODY\'>, \'BR\': <class \'gluon.html.BR\'>, \'BUTTON\': <class \'gluon.html.BUTTON\'>, \'CAT\': <class \'gluon.html.CAT\'>, \'CENTER\': <class \'gluon.html.CENTER\'>, \'CLEANUP\': <class \'gluon.validators.CLEANUP\'>, ...}, layer=\'/home/fish/Desktop/web2py/applications/vsalad/views/action/comments.html\')'
p3299
sS'func'
p3300
S'restricted'
p3301
sa(dp3302
g3277
S'/home/fish/Desktop/web2py/applications/vsalad/views/action/comments.html'
p3303
sg3279
(dp3304
S'div'
p3305
S'undefined'
p3306
sS'builtinid'
p3307
S'<built-in function id>'
p3308
ssg3285
I12
sg3286
(dp3309
I3
S'response.write(\'"></script>\\n    <script src="\', escape=False)'
p3310
sI4
S"response.write(URL('static','js/vsalad.js'))"
p3311
sI5
S'response.write(\'"></script>\\n    <link rel="stylesheet" href="\', escape=False)'
p3312
sI6
S"response.write(URL('static','css/vs.css'))"
p3313
sI7
S'response.write(\'"></link>\\n    <meta charset="utf-8">\\n    <title>Voodoo Salad</title>\\n    <meta name="viewport" content="width=device-width, initial-scale=1.0">\\n    <meta name="description" content="">\\n    <meta name="author" content="">\\n\\n    <!-- Styles -->\\n    <link href="\', escape=False)'
p3314
sI8
S"response.write(URL('static','css/bootstrap.css'))"
p3315
sI9
S'response.write(\'" rel="stylesheet">\\n    <link href="\', escape=False)'
p3316
sI10
S"response.write(URL('static','css/bootstrap-responsive.css'))"
p3317
sI11
S'response.write(\'" rel="stylesheet">\\n\\n  \\n</head>\\n<body>\\n<div id="welcome-panel" class="hero-unit row">\\n            \\n\\n\\n        <div id="title">\\n         <a href=\', escape=False)'
p3318
sI12
S"response.write(URL('default', '/index'))"
p3319
sI13
S'response.write(\'">\\n                <h1 class="voodoo span">V&#3232;&#3232;doo {</h1> \\n                <a class="span" href=""><img src="\', escape=False)'
p3320
sI14
S"response.write(URL('static', 'images/vfish.jpg'))"
p3321
sI15
S'response.write(\'"/></a>\\n                 <h1 class="tuna span">} Tuna</h1>\\n                 </a>\\n       </div>\\n    </div>\\n\\n\\n\', escape=False)'
p3322
sI16
S'response.write(\'\\n<div id="content" class="row">\\n\', escape=False)'
p3323
sI17
S'if request.args(0):'
p3324
sI18
S'    response.write("\\n  <div id=\'article\'>\\n    <h1>", escape=False)'
p3325
sI19
S'    response.write(article.title)'
p3326
sI20
S'    response.write(\' </h1>\\n    <p id="tagline"> submitted\\n        <a id="created_on" title="\', escape=False)'
p3327
sI21
S'    response.write(article.created_on)'
p3328
sI22
S'    response.write(\'"></a>\\n         by\\n        <a href="#" id="author">\', escape=False)'
p3329
ssg3298
S'()'
p3330
sg3300
S'<module>'
p3331
sa(dp3332
g3277
S'/home/fish/Desktop/web2py/gluon/html.py'
p3333
sg3279
(dp3334
S'builtinSyntaxError'
p3335
S"<type 'exceptions.SyntaxError'>"
p3336
ssg3285
I274
sg3286
(dp3337
I269
S"            function, extension = function.split('.', 1)"
p3338
sI270
S''
sI271
S"    function2 = '%s.%s' % (function,extension or 'html')"
p3339
sI272
S''
sI273
S'    if not (application and controller and function):'
p3340
sI274
S"        raise SyntaxError, 'not enough information to build the url'"
p3341
sI275
S''
sI276
S'    if args:'
p3342
sI277
S'        if url_encode:'
p3343
sI278
S'            if encode_embedded_slash:'
p3344
ssg3298
S"(a=None, c='default', f='', r=<Storage {'body': <cStringIO.StringO object at 0..._vars': <Storage {}>, 'post_vars': <Storage {}>}>, args=['index'], vars={}, anchor='', extension=None, env=<Storage {'debugging': False, 'http_user_agent':...[]), 'query_string': '', 'wsgi_run_once': False}>, hmac_key=None, hash_vars=True, salt=None, user_signature=None, scheme=None, host=None, port=None, encode_embedded_slash=False, url_encode=True)"
p3345
sg3300
S'URL'
p3346
sasS'pyver'
p3347
S'Python 2.7.2+: /usr/bin/python'
p3348
sS'session'
p3349
g69
(g70
g71
NtRp3350
(dp3351
g74
(dp3352
sg76
(lp3353
g69
(g78
g71
NtRp3354
(dp3355
g74
(dp3356
g82
I5
ssg83
Nsg76
(lp3357
g69
(g85
g71
NtRp3358
(dp3359
g74
(dp3360
sg83
g3354
sg76
(lp3361
g69
(g90
g71
NtRp3362
(dp3363
g74
(dp3364
g94
g95
ssg83
g3358
sg76
(lp3365
S'last_query'
p3366
asbag69
(g90
g71
NtRp3367
(dp3368
g74
(dp3369
g101
g102
ssg83
g3358
sg76
(lp3370
S':'
asbag69
(g90
g71
NtRp3371
(dp3372
g74
(dp3373
sg83
g3358
sg76
(lp3374
g69
(g70
g71
NtRp3375
(dp3376
g74
(dp3377
g82
I5
ssg83
g3371
sg76
(lp3378
S'db.comments.id>0'
p3379
asbasbasbasbasbsS'etype'
p3380
S"<type 'exceptions.SyntaxError'>"
p3381
sS'date'
p3382
S'Thu Apr 19 04:19:10 2012'
p3383
sS'response'
p3384
g69
(g70
g71
NtRp3385
(dp3386
g74
(dp3387
sg76
(lp3388
g69
(g78
g71
NtRp3389
(dp3390
g74
(dp3391
g82
I5
ssg83
Nsg76
(lp3392
g69
(g85
g71
NtRp3393
(dp3394
g74
(dp3395
sg83
g3389
sg76
(lp3396
g69
(g90
g71
NtRp3397
(dp3398
g74
(dp3399
g94
g95
ssg83
g3393
sg76
(lp3400
g179
asbag69
(g90
g71
NtRp3401
(dp3402
g74
(dp3403
g101
g102
ssg83
g3393
sg76
(lp3404
S':'
asbag69
(g90
g71
NtRp3405
(dp3406
g74
(dp3407
sg83
g3393
sg76
(lp3408
g69
(g70
g71
NtRp3409
(dp3410
g74
(dp3411
g82
I5
ssg83
g3405
sg76
(lp3412
S'<cStringIO.StringO object at 0x3d37378>'
p3413
asbasbasbag69
(g85
g71
NtRp3414
(dp3415
g74
(dp3416
sg83
g3389
sg76
(lp3417
g69
(g90
g71
NtRp3418
(dp3419
g74
(dp3420
g94
g95
ssg83
g3414
sg76
(lp3421
g245
asbag69
(g90
g71
NtRp3422
(dp3423
g74
(dp3424
g101
g102
ssg83
g3414
sg76
(lp3425
S':'
asbag69
(g90
g71
NtRp3426
(dp3427
g74
(dp3428
sg83
g3414
sg76
(lp3429
g69
(g70
g71
NtRp3430
(dp3431
g74
(dp3432
g82
I5
ssg83
g3426
sg76
(lp3433
g69
(g78
g71
NtRp3434
(dp3435
g74
(dp3436
g82
I4
ssg83
Nsg76
(lp3437
g69
(g85
g71
NtRp3438
(dp3439
g74
(dp3440
sg83
g3434
sg76
(lp3441
g69
(g90
g71
NtRp3442
(dp3443
g74
(dp3444
g94
g95
ssg83
g3438
sg76
(lp3445
S'session_id_vsalad'
p3446
asbag69
(g90
g71
NtRp3447
(dp3448
g74
(dp3449
g101
g102
ssg83
g3438
sg76
(lp3450
S':'
asbag69
(g90
g71
NtRp3451
(dp3452
g74
(dp3453
sg83
g3438
sg76
(lp3454
g69
(g70
g71
NtRp3455
(dp3456
g74
(dp3457
g82
I4
ssg83
g3451
sg76
(lp3458
g69
(g78
g71
NtRp3459
(dp3460
g74
(dp3461
g82
I3
ssg83
Nsg76
(lp3462
g69
(g85
g71
NtRp3463
(dp3464
g74
(dp3465
sg83
g3459
sg76
(lp3466
g69
(g90
g71
NtRp3467
(dp3468
g74
(dp3469
g94
g95
ssg83
g3463
sg76
(lp3470
g295
asbag69
(g90
g71
NtRp3471
(dp3472
g74
(dp3473
g101
g102
ssg83
g3463
sg76
(lp3474
S':'
asbag69
(g90
g71
NtRp3475
(dp3476
g74
(dp3477
sg83
g3463
sg76
(lp3478
g69
(g70
g71
NtRp3479
(dp3480
g74
(dp3481
g82
I3
ssg83
g3475
sg76
(lp3482
S''
asbasbasbag69
(g85
g71
NtRp3483
(dp3484
g74
(dp3485
sg83
g3459
sg76
(lp3486
g69
(g90
g71
NtRp3487
(dp3488
g74
(dp3489
g94
g95
ssg83
g3483
sg76
(lp3490
g316
asbag69
(g90
g71
NtRp3491
(dp3492
g74
(dp3493
g101
g102
ssg83
g3483
sg76
(lp3494
S':'
asbag69
(g90
g71
NtRp3495
(dp3496
g74
(dp3497
sg83
g3483
sg76
(lp3498
g69
(g70
g71
NtRp3499
(dp3500
g74
(dp3501
g82
I3
ssg83
g3495
sg76
(lp3502
S''
asbasbasbag69
(g85
g71
NtRp3503
(dp3504
g74
(dp3505
sg83
g3459
sg76
(lp3506
g69
(g90
g71
NtRp3507
(dp3508
g74
(dp3509
g94
g95
ssg83
g3503
sg76
(lp3510
g337
asbag69
(g90
g71
NtRp3511
(dp3512
g74
(dp3513
g101
g102
ssg83
g3503
sg76
(lp3514
S':'
asbag69
(g90
g71
NtRp3515
(dp3516
g74
(dp3517
sg83
g3503
sg76
(lp3518
g69
(g70
g71
NtRp3519
(dp3520
g74
(dp3521
g82
I3
ssg83
g3515
sg76
(lp3522
S''
asbasbasbag69
(g85
g71
NtRp3523
(dp3524
g74
(dp3525
sg83
g3459
sg76
(lp3526
g69
(g90
g71
NtRp3527
(dp3528
g74
(dp3529
g94
g95
ssg83
g3523
sg76
(lp3530
g358
asbag69
(g90
g71
NtRp3531
(dp3532
g74
(dp3533
g101
g102
ssg83
g3523
sg76
(lp3534
S':'
asbag69
(g90
g71
NtRp3535
(dp3536
g74
(dp3537
sg83
g3523
sg76
(lp3538
g69
(g70
g71
NtRp3539
(dp3540
g74
(dp3541
g82
I3
ssg83
g3535
sg76
(lp3542
S''
asbasbasbag69
(g85
g71
NtRp3543
(dp3544
g74
(dp3545
sg83
g3459
sg76
(lp3546
g69
(g90
g71
NtRp3547
(dp3548
g74
(dp3549
g94
g95
ssg83
g3543
sg76
(lp3550
g379
asbag69
(g90
g71
NtRp3551
(dp3552
g74
(dp3553
g101
g102
ssg83
g3543
sg76
(lp3554
S':'
asbag69
(g90
g71
NtRp3555
(dp3556
g74
(dp3557
sg83
g3543
sg76
(lp3558
g69
(g70
g71
NtRp3559
(dp3560
g74
(dp3561
g82
I3
ssg83
g3555
sg76
(lp3562
S''
asbasbasbag69
(g85
g71
NtRp3563
(dp3564
g74
(dp3565
sg83
g3459
sg76
(lp3566
g69
(g90
g71
NtRp3567
(dp3568
g74
(dp3569
g94
g95
ssg83
g3563
sg76
(lp3570
g400
asbag69
(g90
g71
NtRp3571
(dp3572
g74
(dp3573
g101
g102
ssg83
g3563
sg76
(lp3574
S':'
asbag69
(g90
g71
NtRp3575
(dp3576
g74
(dp3577
sg83
g3563
sg76
(lp3578
g69
(g70
g71
NtRp3579
(dp3580
g74
(dp3581
g82
I3
ssg83
g3575
sg76
(lp3582
S'/'
asbasbasbag69
(g85
g71
NtRp3583
(dp3584
g74
(dp3585
sg83
g3459
sg76
(lp3586
g69
(g90
g71
NtRp3587
(dp3588
g74
(dp3589
g94
g95
ssg83
g3583
sg76
(lp3590
g421
asbag69
(g90
g71
NtRp3591
(dp3592
g74
(dp3593
g101
g102
ssg83
g3583
sg76
(lp3594
S':'
asbag69
(g90
g71
NtRp3595
(dp3596
g74
(dp3597
sg83
g3583
sg76
(lp3598
g69
(g70
g71
NtRp3599
(dp3600
g74
(dp3601
g82
I3
ssg83
g3595
sg76
(lp3602
S''
asbasbasbag69
(g85
g71
NtRp3603
(dp3604
g74
(dp3605
sg83
g3459
sg76
(lp3606
g69
(g90
g71
NtRp3607
(dp3608
g74
(dp3609
g94
g95
ssg83
g3603
sg76
(lp3610
g442
asbag69
(g90
g71
NtRp3611
(dp3612
g74
(dp3613
g101
g102
ssg83
g3603
sg76
(lp3614
S':'
asbag69
(g90
g71
NtRp3615
(dp3616
g74
(dp3617
sg83
g3603
sg76
(lp3618
g69
(g70
g71
NtRp3619
(dp3620
g74
(dp3621
g82
I3
ssg83
g3615
sg76
(lp3622
S''
asbasbasbasbasbasbasbasbasbasbasbag69
(g85
g71
NtRp3623
(dp3624
g74
(dp3625
sg83
g3389
sg76
(lp3626
g69
(g90
g71
NtRp3627
(dp3628
g74
(dp3629
g94
g95
ssg83
g3623
sg76
(lp3630
S'delimiters'
p3631
asbag69
(g90
g71
NtRp3632
(dp3633
g74
(dp3634
g101
g102
ssg83
g3623
sg76
(lp3635
S':'
asbag69
(g90
g71
NtRp3636
(dp3637
g74
(dp3638
sg83
g3623
sg76
(lp3639
g69
(g70
g71
NtRp3640
(dp3641
g74
(dp3642
g82
I5
ssg83
g3636
sg76
(lp3643
g69
(g78
g71
NtRp3644
(dp3645
g74
(dp3646
g82
I4
ssg83
Nsg76
(lp3647
g69
(g85
g71
NtRp3648
(dp3649
g74
(dp3650
sg83
g3644
sg76
(lp3651
g69
(g90
g71
NtRp3652
(dp3653
g74
(dp3654
sg83
g3648
sg76
(lp3655
g69
(g70
g71
NtRp3656
(dp3657
g74
(dp3658
g82
I4
ssg83
g3652
sg76
(lp3659
S'{{'
p3660
asbasbasbag69
(g85
g71
NtRp3661
(dp3662
g74
(dp3663
sg83
g3644
sg76
(lp3664
g69
(g90
g71
NtRp3665
(dp3666
g74
(dp3667
sg83
g3661
sg76
(lp3668
g69
(g70
g71
NtRp3669
(dp3670
g74
(dp3671
g82
I4
ssg83
g3665
sg76
(lp3672
S'}}'
p3673
asbasbasbasbasbasbasbag69
(g85
g71
NtRp3674
(dp3675
g74
(dp3676
sg83
g3389
sg76
(lp3677
g69
(g90
g71
NtRp3678
(dp3679
g74
(dp3680
g94
g95
ssg83
g3674
sg76
(lp3681
S'files'
p3682
asbag69
(g90
g71
NtRp3683
(dp3684
g74
(dp3685
g101
g102
ssg83
g3674
sg76
(lp3686
S':'
asbag69
(g90
g71
NtRp3687
(dp3688
g74
(dp3689
sg83
g3674
sg76
(lp3690
g69
(g70
g71
NtRp3691
(dp3692
g74
(dp3693
g82
I5
ssg83
g3687
sg76
(lp3694
g69
(g78
g71
NtRp3695
(dp3696
g74
(dp3697
g82
I4
ssg83
Nsg76
(lp3698
sbasbasbasbag69
(g85
g71
NtRp3699
(dp3700
g74
(dp3701
sg83
g3389
sg76
(lp3702
g69
(g90
g71
NtRp3703
(dp3704
g74
(dp3705
g94
g95
ssg83
g3699
sg76
(lp3706
S'flash'
p3707
asbag69
(g90
g71
NtRp3708
(dp3709
g74
(dp3710
g101
g102
ssg83
g3699
sg76
(lp3711
S':'
asbag69
(g90
g71
NtRp3712
(dp3713
g74
(dp3714
sg83
g3699
sg76
(lp3715
g69
(g70
g71
NtRp3716
(dp3717
g74
(dp3718
g82
I5
ssg83
g3712
sg76
(lp3719
S''
asbasbasbag69
(g85
g71
NtRp3720
(dp3721
g74
(dp3722
sg83
g3389
sg76
(lp3723
g69
(g90
g71
NtRp3724
(dp3725
g74
(dp3726
g94
g95
ssg83
g3720
sg76
(lp3727
S'generic_patterns'
p3728
asbag69
(g90
g71
NtRp3729
(dp3730
g74
(dp3731
g101
g102
ssg83
g3720
sg76
(lp3732
S':'
asbag69
(g90
g71
NtRp3733
(dp3734
g74
(dp3735
sg83
g3720
sg76
(lp3736
g69
(g70
g71
NtRp3737
(dp3738
g74
(dp3739
g82
I5
ssg83
g3733
sg76
(lp3740
g69
(g78
g71
NtRp3741
(dp3742
g74
(dp3743
g82
I4
ssg83
Nsg76
(lp3744
g69
(g85
g71
NtRp3745
(dp3746
g74
(dp3747
sg83
g3741
sg76
(lp3748
g69
(g90
g71
NtRp3749
(dp3750
g74
(dp3751
sg83
g3745
sg76
(lp3752
g69
(g70
g71
NtRp3753
(dp3754
g74
(dp3755
g82
I4
ssg83
g3749
sg76
(lp3756
S'*'
asbasbasbasbasbasbasbag69
(g85
g71
NtRp3757
(dp3758
g74
(dp3759
sg83
g3389
sg76
(lp3760
g69
(g90
g71
NtRp3761
(dp3762
g74
(dp3763
g94
g95
ssg83
g3757
sg76
(lp3764
S'headers'
p3765
asbag69
(g90
g71
NtRp3766
(dp3767
g74
(dp3768
g101
g102
ssg83
g3757
sg76
(lp3769
S':'
asbag69
(g90
g71
NtRp3770
(dp3771
g74
(dp3772
sg83
g3757
sg76
(lp3773
g69
(g70
g71
NtRp3774
(dp3775
g74
(dp3776
g82
I5
ssg83
g3770
sg76
(lp3777
g69
(g78
g71
NtRp3778
(dp3779
g74
(dp3780
g82
I4
ssg83
Nsg76
(lp3781
g69
(g85
g71
NtRp3782
(dp3783
g74
(dp3784
sg83
g3778
sg76
(lp3785
g69
(g90
g71
NtRp3786
(dp3787
g74
(dp3788
g94
g95
ssg83
g3782
sg76
(lp3789
S'Cache-Control'
p3790
asbag69
(g90
g71
NtRp3791
(dp3792
g74
(dp3793
g101
g102
ssg83
g3782
sg76
(lp3794
S':'
asbag69
(g90
g71
NtRp3795
(dp3796
g74
(dp3797
sg83
g3782
sg76
(lp3798
g69
(g70
g71
NtRp3799
(dp3800
g74
(dp3801
g82
I4
ssg83
g3795
sg76
(lp3802
S'no-store, no-cache, must-revalidate, post-check=0, pre-check=0'
p3803
asbasbasbag69
(g85
g71
NtRp3804
(dp3805
g74
(dp3806
sg83
g3778
sg76
(lp3807
g69
(g90
g71
NtRp3808
(dp3809
g74
(dp3810
g94
g95
ssg83
g3804
sg76
(lp3811
S'Content-Type'
p3812
asbag69
(g90
g71
NtRp3813
(dp3814
g74
(dp3815
g101
g102
ssg83
g3804
sg76
(lp3816
S':'
asbag69
(g90
g71
NtRp3817
(dp3818
g74
(dp3819
sg83
g3804
sg76
(lp3820
g69
(g70
g71
NtRp3821
(dp3822
g74
(dp3823
g82
I4
ssg83
g3817
sg76
(lp3824
S'text/html; charset=utf-8'
p3825
asbasbasbag69
(g85
g71
NtRp3826
(dp3827
g74
(dp3828
sg83
g3778
sg76
(lp3829
g69
(g90
g71
NtRp3830
(dp3831
g74
(dp3832
g94
g95
ssg83
g3826
sg76
(lp3833
S'Expires'
p3834
asbag69
(g90
g71
NtRp3835
(dp3836
g74
(dp3837
g101
g102
ssg83
g3826
sg76
(lp3838
S':'
asbag69
(g90
g71
NtRp3839
(dp3840
g74
(dp3841
sg83
g3826
sg76
(lp3842
g69
(g70
g71
NtRp3843
(dp3844
g74
(dp3845
g82
I4
ssg83
g3839
sg76
(lp3846
S'Thu, 19 Apr 2012 00:19:10 GMT'
p3847
asbasbasbag69
(g85
g71
NtRp3848
(dp3849
g74
(dp3850
sg83
g3778
sg76
(lp3851
g69
(g90
g71
NtRp3852
(dp3853
g74
(dp3854
g94
g95
ssg83
g3848
sg76
(lp3855
S'Pragma'
p3856
asbag69
(g90
g71
NtRp3857
(dp3858
g74
(dp3859
g101
g102
ssg83
g3848
sg76
(lp3860
S':'
asbag69
(g90
g71
NtRp3861
(dp3862
g74
(dp3863
sg83
g3848
sg76
(lp3864
g69
(g70
g71
NtRp3865
(dp3866
g74
(dp3867
g82
I4
ssg83
g3861
sg76
(lp3868
S'no-cache'
p3869
asbasbasbag69
(g85
g71
NtRp3870
(dp3871
g74
(dp3872
sg83
g3778
sg76
(lp3873
g69
(g90
g71
NtRp3874
(dp3875
g74
(dp3876
g94
g95
ssg83
g3870
sg76
(lp3877
S'X-Powered-By'
p3878
asbag69
(g90
g71
NtRp3879
(dp3880
g74
(dp3881
g101
g102
ssg83
g3870
sg76
(lp3882
S':'
asbag69
(g90
g71
NtRp3883
(dp3884
g74
(dp3885
sg83
g3870
sg76
(lp3886
g69
(g70
g71
NtRp3887
(dp3888
g74
(dp3889
g82
I4
ssg83
g3883
sg76
(lp3890
S'web2py'
p3891
asbasbasbasbasbasbasbag69
(g85
g71
NtRp3892
(dp3893
g74
(dp3894
sg83
g3389
sg76
(lp3895
g69
(g90
g71
NtRp3896
(dp3897
g74
(dp3898
g94
g95
ssg83
g3892
sg76
(lp3899
S'menu'
p3900
asbag69
(g90
g71
NtRp3901
(dp3902
g74
(dp3903
g101
g102
ssg83
g3892
sg76
(lp3904
S':'
asbag69
(g90
g71
NtRp3905
(dp3906
g74
(dp3907
sg83
g3892
sg76
(lp3908
g69
(g70
g71
NtRp3909
(dp3910
g74
(dp3911
g82
I5
ssg83
g3905
sg76
(lp3912
g69
(g78
g71
NtRp3913
(dp3914
g74
(dp3915
g82
I4
ssg83
Nsg76
(lp3916
g69
(g85
g71
NtRp3917
(dp3918
g74
(dp3919
sg83
g3913
sg76
(lp3920
g69
(g90
g71
NtRp3921
(dp3922
g74
(dp3923
sg83
g3917
sg76
(lp3924
g69
(g70
g71
NtRp3925
(dp3926
g74
(dp3927
g82
I4
ssg83
g3921
sg76
(lp3928
g69
(g78
g71
NtRp3929
(dp3930
g74
(dp3931
g82
I3
ssg83
Nsg76
(lp3932
g69
(g85
g71
NtRp3933
(dp3934
g74
(dp3935
sg83
g3929
sg76
(lp3936
g69
(g90
g71
NtRp3937
(dp3938
g74
(dp3939
sg83
g3933
sg76
(lp3940
g69
(g70
g71
NtRp3941
(dp3942
g74
(dp3943
g82
I3
ssg83
g3937
sg76
(lp3944
cgluon.languages
lazyT_unpickle
p3945
(S't\x04\x00\x00\x00Home'
tRp3946
asbasbasbag69
(g85
g71
NtRp3947
(dp3948
g74
(dp3949
sg83
g3929
sg76
(lp3950
g69
(g90
g71
NtRp3951
(dp3952
g74
(dp3953
sg83
g3947
sg76
(lp3954
g69
(g70
g71
NtRp3955
(dp3956
g74
(dp3957
g82
I3
ssg83
g3951
sg76
(lp3958
g112
asbasbasbag69
(g85
g71
NtRp3959
(dp3960
g74
(dp3961
sg83
g3929
sg76
(lp3962
g69
(g90
g71
NtRp3963
(dp3964
g74
(dp3965
sg83
g3959
sg76
(lp3966
g69
(g70
g71
NtRp3967
(dp3968
g74
(dp3969
g82
I3
ssg83
g3963
sg76
(lp3970
S'/vsalad/default/index'
p3971
asbasbasbag69
(g85
g71
NtRp3972
(dp3973
g74
(dp3974
sg83
g3929
sg76
(lp3975
g69
(g90
g71
NtRp3976
(dp3977
g74
(dp3978
sg83
g3972
sg76
(lp3979
g69
(g70
g71
NtRp3980
(dp3981
g74
(dp3982
g82
I3
ssg83
g3976
sg76
(lp3983
g69
(g78
g71
NtRp3984
(dp3985
g74
(dp3986
g82
I2
ssg83
Nsg76
(lp3987
sbasbasbasbasbasbasbasbag69
(g85
g71
NtRp3988
(dp3989
g74
(dp3990
sg83
g3913
sg76
(lp3991
g69
(g90
g71
NtRp3992
(dp3993
g74
(dp3994
sg83
g3988
sg76
(lp3995
g69
(g70
g71
NtRp3996
(dp3997
g74
(dp3998
g82
I4
ssg83
g3992
sg76
(lp3999
g69
(g78
g71
NtRp4000
(dp4001
g74
(dp4002
g82
I3
ssg83
Nsg76
(lp4003
g69
(g85
g71
NtRp4004
(dp4005
g74
(dp4006
sg83
g4000
sg76
(lp4007
g69
(g90
g71
NtRp4008
(dp4009
g74
(dp4010
sg83
g4004
sg76
(lp4011
g69
(g70
g71
NtRp4012
(dp4013
g74
(dp4014
g82
I3
ssg83
g4008
sg76
(lp4015
g69
(cgluon.html
SPAN
p4016
g71
NtRp4017
(dp4018
g74
(dp4019
g94
S'color:yellow'
p4020
ssg83
Nsg76
(lp4021
g3891
asbasbasbasbag69
(g85
g71
NtRp4022
(dp4023
g74
(dp4024
sg83
g4000
sg76
(lp4025
g69
(g90
g71
NtRp4026
(dp4027
g74
(dp4028
sg83
g4022
sg76
(lp4029
g69
(g70
g71
NtRp4030
(dp4031
g74
(dp4032
g82
I3
ssg83
g4026
sg76
(lp4033
g112
asbasbasbag69
(g85
g71
NtRp4034
(dp4035
g74
(dp4036
sg83
g4000
sg76
(lp4037
g69
(g90
g71
NtRp4038
(dp4039
g74
(dp4040
sg83
g4034
sg76
(lp4041
g69
(g70
g71
NtRp4042
(dp4043
g74
(dp4044
g82
I3
ssg83
g4038
sg76
(lp4045
S'None'
p4046
asbasbasbag69
(g85
g71
NtRp4047
(dp4048
g74
(dp4049
sg83
g4000
sg76
(lp4050
g69
(g90
g71
NtRp4051
(dp4052
g74
(dp4053
sg83
g4047
sg76
(lp4054
g69
(g70
g71
NtRp4055
(dp4056
g74
(dp4057
g82
I3
ssg83
g4051
sg76
(lp4058
g69
(g78
g71
NtRp4059
(dp4060
g74
(dp4061
g82
I2
ssg83
Nsg76
(lp4062
g69
(g85
g71
NtRp4063
(dp4064
g74
(dp4065
sg83
g4059
sg76
(lp4066
g69
(g90
g71
NtRp4067
(dp4068
g74
(dp4069
sg83
g4063
sg76
(lp4070
g69
(g70
g71
NtRp4071
(dp4072
g74
(dp4073
g82
I2
ssg83
g4067
sg76
(lp4074
g69
(g78
g71
NtRp4075
(dp4076
g74
(dp4077
g82
I1
ssg83
Nsg76
(lp4078
g69
(g85
g71
NtRp4079
(dp4080
g74
(dp4081
sg83
g4075
sg76
(lp4082
g69
(g90
g71
NtRp4083
(dp4084
g74
(dp4085
sg83
g4079
sg76
(lp4086
g69
(g70
g71
NtRp4087
(dp4088
g74
(dp4089
g82
I1
ssg83
g4083
sg76
(lp4090
g3945
(S's\x08\x00\x00\x00My Sites'
tRp4091
asbasbasbag69
(g85
g71
NtRp4092
(dp4093
g74
(dp4094
sg83
g4075
sg76
(lp4095
g69
(g90
g71
NtRp4096
(dp4097
g74
(dp4098
sg83
g4092
sg76
(lp4099
g69
(g70
g71
NtRp4100
(dp4101
g74
(dp4102
g82
I1
ssg83
g4096
sg76
(lp4103
I00
asbasbasbag69
(g85
g71
NtRp4104
(dp4105
g74
(dp4106
sg83
g4075
sg76
(lp4107
g69
(g90
g71
NtRp4108
(dp4109
g74
(dp4110
sg83
g4104
sg76
(lp4111
g69
(g70
g71
NtRp4112
(dp4113
g74
(dp4114
g82
I1
ssg83
g4108
sg76
(lp4115
S'/admin/default/site'
p4116
asbasbasbasbasbasbasbag69
(g85
g71
NtRp4117
(dp4118
g74
(dp4119
sg83
g4059
sg76
(lp4120
g69
(g90
g71
NtRp4121
(dp4122
g74
(dp4123
sg83
g4117
sg76
(lp4124
g69
(g70
g71
NtRp4125
(dp4126
g74
(dp4127
g82
I2
ssg83
g4121
sg76
(lp4128
g69
(g78
g71
NtRp4129
(dp4130
g74
(dp4131
g82
I1
ssg83
Nsg76
(lp4132
g69
(g85
g71
NtRp4133
(dp4134
g74
(dp4135
sg83
g4129
sg76
(lp4136
g69
(g90
g71
NtRp4137
(dp4138
g74
(dp4139
sg83
g4133
sg76
(lp4140
g69
(g70
g71
NtRp4141
(dp4142
g74
(dp4143
g82
I1
ssg83
g4137
sg76
(lp4144
g3945
(S's\x08\x00\x00\x00This App'
tRp4145
asbasbasbag69
(g85
g71
NtRp4146
(dp4147
g74
(dp4148
sg83
g4129
sg76
(lp4149
g69
(g90
g71
NtRp4150
(dp4151
g74
(dp4152
sg83
g4146
sg76
(lp4153
g69
(g70
g71
NtRp4154
(dp4155
g74
(dp4156
g82
I1
ssg83
g4150
sg76
(lp4157
I00
asbasbasbag69
(g85
g71
NtRp4158
(dp4159
g74
(dp4160
sg83
g4129
sg76
(lp4161
g69
(g90
g71
NtRp4162
(dp4163
g74
(dp4164
sg83
g4158
sg76
(lp4165
g69
(g70
g71
NtRp4166
(dp4167
g74
(dp4168
g82
I1
ssg83
g4162
sg76
(lp4169
S'/admin/default/design/vsalad'
p4170
asbasbasbag69
(g85
g71
NtRp4171
(dp4172
g74
(dp4173
sg83
g4129
sg76
(lp4174
g69
(g90
g71
NtRp4175
(dp4176
g74
(dp4177
sg83
g4171
sg76
(lp4178
g69
(g70
g71
NtRp4179
(dp4180
g74
(dp4181
g82
I1
ssg83
g4175
sg76
(lp4182
(lp4183
(g3945
(S't\n\x00\x00\x00Controller'
tRp4184
I00
S'/admin/default/edit/vsalad/controllers/action.py'
tp4185
a(g3945
(S't\x04\x00\x00\x00View'
tRp4186
I00
S'/admin/default/edit/vsalad/views/action/comments.html'
tp4187
a(g3945
(S't\x06\x00\x00\x00Layout'
tRp4188
I00
S'/admin/default/edit/vsalad/views/layout.html'
tp4189
a(g3945
(S't\n\x00\x00\x00Stylesheet'
tRp4190
I00
S'/admin/default/edit/vsalad/static/css/web2py.css'
tp4191
a(g3945
(S's\x08\x00\x00\x00DB Model'
tRp4192
I00
S'/admin/default/edit/vsalad/models/db.py'
tp4193
a(g3945
(S's\n\x00\x00\x00Menu Model'
tRp4194
I00
S'/admin/default/edit/vsalad/models/menu.py'
tp4195
a(g3945
(S't\x08\x00\x00\x00Database'
tRp4196
I00
S'/vsalad/appadmin/index'
tp4197
a(g3945
(S't\x06\x00\x00\x00Errors'
tRp4198
I00
S'/admin/default/errors/vsalad'
tp4199
a(g3945
(S't\x05\x00\x00\x00About'
tRp4200
I00
S'/admin/default/about/vsalad'
tp4201
aasbasbasbasbasbasbasbag69
(g85
g71
NtRp4202
(dp4203
g74
(dp4204
sg83
g4059
sg76
(lp4205
g69
(g90
g71
NtRp4206
(dp4207
g74
(dp4208
sg83
g4202
sg76
(lp4209
g69
(g70
g71
NtRp4210
(dp4211
g74
(dp4212
g82
I2
ssg83
g4206
sg76
(lp4213
g69
(g78
g71
NtRp4214
(dp4215
g74
(dp4216
g82
I1
ssg83
Nsg76
(lp4217
g69
(g85
g71
NtRp4218
(dp4219
g74
(dp4220
sg83
g4214
sg76
(lp4221
g69
(g90
g71
NtRp4222
(dp4223
g74
(dp4224
sg83
g4218
sg76
(lp4225
g69
(g70
g71
NtRp4226
(dp4227
g74
(dp4228
g82
I1
ssg83
g4222
sg76
(lp4229
S'web2py.com'
p4230
asbasbasbag69
(g85
g71
NtRp4231
(dp4232
g74
(dp4233
sg83
g4214
sg76
(lp4234
g69
(g90
g71
NtRp4235
(dp4236
g74
(dp4237
sg83
g4231
sg76
(lp4238
g69
(g70
g71
NtRp4239
(dp4240
g74
(dp4241
g82
I1
ssg83
g4235
sg76
(lp4242
I00
asbasbasbag69
(g85
g71
NtRp4243
(dp4244
g74
(dp4245
sg83
g4214
sg76
(lp4246
g69
(g90
g71
NtRp4247
(dp4248
g74
(dp4249
sg83
g4243
sg76
(lp4250
g69
(g70
g71
NtRp4251
(dp4252
g74
(dp4253
g82
I1
ssg83
g4247
sg76
(lp4254
S'http://www.web2py.com'
p4255
asbasbasbag69
(g85
g71
NtRp4256
(dp4257
g74
(dp4258
sg83
g4214
sg76
(lp4259
g69
(g90
g71
NtRp4260
(dp4261
g74
(dp4262
sg83
g4256
sg76
(lp4263
g69
(g70
g71
NtRp4264
(dp4265
g74
(dp4266
g82
I1
ssg83
g4260
sg76
(lp4267
(lp4268
(g3945
(S't\x08\x00\x00\x00Download'
tRp4269
I00
S'http://www.web2py.com/examples/default/download'
p4270
tp4271
a(g3945
(S't\x07\x00\x00\x00Support'
tRp4272
I00
S'http://www.web2py.com/examples/default/support'
p4273
tp4274
a(g3945
(S't\x04\x00\x00\x00Demo'
tRp4275
I00
S'http://web2py.com/demo_admin'
p4276
tp4277
a(g3945
(S's\x0e\x00\x00\x00Quick Examples'
tRp4278
I00
S'http://web2py.com/examples/default/examples'
p4279
tp4280
a(g3945
(S't\x03\x00\x00\x00FAQ'
tRp4281
I00
S'http://web2py.com/AlterEgo'
p4282
tp4283
a(g3945
(S't\x06\x00\x00\x00Videos'
tRp4284
I00
S'http://www.web2py.com/examples/default/videos/'
p4285
tp4286
a(g3945
(S's\x11\x00\x00\x00Free Applications'
tRp4287
I00
S'http://web2py.com/appliances'
p4288
tp4289
a(g3945
(S't\x07\x00\x00\x00Plugins'
tRp4290
I00
S'http://web2py.com/plugins'
p4291
tp4292
a(g3945
(S't\x07\x00\x00\x00Layouts'
tRp4293
I00
S'http://web2py.com/layouts'
p4294
tp4295
a(g3945
(S't\x07\x00\x00\x00Recipes'
tRp4296
I00
S'http://web2pyslices.com/'
p4297
tp4298
a(g3945
(S't\x08\x00\x00\x00Semantic'
tRp4299
I00
S'http://web2py.com/semantic'
p4300
tp4301
aasbasbasbasbasbasbasbag69
(g85
g71
NtRp4302
(dp4303
g74
(dp4304
sg83
g4059
sg76
(lp4305
g69
(g90
g71
NtRp4306
(dp4307
g74
(dp4308
sg83
g4302
sg76
(lp4309
g69
(g70
g71
NtRp4310
(dp4311
g74
(dp4312
g82
I2
ssg83
g4306
sg76
(lp4313
g69
(g78
g71
NtRp4314
(dp4315
g74
(dp4316
g82
I1
ssg83
Nsg76
(lp4317
g69
(g85
g71
NtRp4318
(dp4319
g74
(dp4320
sg83
g4314
sg76
(lp4321
g69
(g90
g71
NtRp4322
(dp4323
g74
(dp4324
sg83
g4318
sg76
(lp4325
g69
(g70
g71
NtRp4326
(dp4327
g74
(dp4328
g82
I1
ssg83
g4322
sg76
(lp4329
g3945
(S't\r\x00\x00\x00Documentation'
tRp4330
asbasbasbag69
(g85
g71
NtRp4331
(dp4332
g74
(dp4333
sg83
g4314
sg76
(lp4334
g69
(g90
g71
NtRp4335
(dp4336
g74
(dp4337
sg83
g4331
sg76
(lp4338
g69
(g70
g71
NtRp4339
(dp4340
g74
(dp4341
g82
I1
ssg83
g4335
sg76
(lp4342
I00
asbasbasbag69
(g85
g71
NtRp4343
(dp4344
g74
(dp4345
sg83
g4314
sg76
(lp4346
g69
(g90
g71
NtRp4347
(dp4348
g74
(dp4349
sg83
g4343
sg76
(lp4350
g69
(g70
g71
NtRp4351
(dp4352
g74
(dp4353
g82
I1
ssg83
g4347
sg76
(lp4354
S'http://www.web2py.com/book'
p4355
asbasbasbag69
(g85
g71
NtRp4356
(dp4357
g74
(dp4358
sg83
g4314
sg76
(lp4359
g69
(g90
g71
NtRp4360
(dp4361
g74
(dp4362
sg83
g4356
sg76
(lp4363
g69
(g70
g71
NtRp4364
(dp4365
g74
(dp4366
g82
I1
ssg83
g4360
sg76
(lp4367
(lp4368
(g3945
(S't\x07\x00\x00\x00Preface'
tRp4369
I00
S'http://www.web2py.com/book/default/chapter/00'
p4370
tp4371
a(g3945
(S't\x0c\x00\x00\x00Introduction'
tRp4372
I00
S'http://www.web2py.com/book/default/chapter/01'
p4373
tp4374
a(g3945
(S't\x06\x00\x00\x00Python'
tRp4375
I00
S'http://www.web2py.com/book/default/chapter/02'
p4376
tp4377
a(g3945
(S't\x08\x00\x00\x00Overview'
tRp4378
I00
S'http://www.web2py.com/book/default/chapter/03'
p4379
tp4380
a(g3945
(S's\x08\x00\x00\x00The Core'
tRp4381
I00
S'http://www.web2py.com/book/default/chapter/04'
p4382
tp4383
a(g3945
(S's\t\x00\x00\x00The Views'
tRp4384
I00
S'http://www.web2py.com/book/default/chapter/05'
p4385
tp4386
a(g3945
(S't\x08\x00\x00\x00Database'
tRp4387
I00
S'http://www.web2py.com/book/default/chapter/06'
p4388
tp4389
a(g3945
(S's\x14\x00\x00\x00Forms and Validators'
tRp4390
I00
S'http://www.web2py.com/book/default/chapter/07'
p4391
tp4392
a(g3945
(S's\r\x00\x00\x00Email and SMS'
tRp4393
I00
S'http://www.web2py.com/book/default/chapter/08'
p4394
tp4395
a(g3945
(S's\x0e\x00\x00\x00Access Control'
tRp4396
I00
S'http://www.web2py.com/book/default/chapter/09'
p4397
tp4398
a(g3945
(S't\x08\x00\x00\x00Services'
tRp4399
I00
S'http://www.web2py.com/book/default/chapter/10'
p4400
tp4401
a(g3945
(S's\x0c\x00\x00\x00Ajax Recipes'
tRp4402
I00
S'http://www.web2py.com/book/default/chapter/11'
p4403
tp4404
a(g3945
(S's\x16\x00\x00\x00Components and Plugins'
tRp4405
I00
S'http://www.web2py.com/book/default/chapter/12'
p4406
tp4407
a(g3945
(S's\x12\x00\x00\x00Deployment Recipes'
tRp4408
I00
S'http://www.web2py.com/book/default/chapter/13'
p4409
tp4410
a(g3945
(S's\r\x00\x00\x00Other Recipes'
tRp4411
I00
S'http://www.web2py.com/book/default/chapter/14'
p4412
tp4413
a(g3945
(S's\r\x00\x00\x00Buy this book'
tRp4414
I00
S'http://stores.lulu.com/web2py'
p4415
tp4416
aasbasbasbasbasbasbasbag69
(g85
g71
NtRp4417
(dp4418
g74
(dp4419
sg83
g4059
sg76
(lp4420
g69
(g90
g71
NtRp4421
(dp4422
g74
(dp4423
sg83
g4417
sg76
(lp4424
g69
(g70
g71
NtRp4425
(dp4426
g74
(dp4427
g82
I2
ssg83
g4421
sg76
(lp4428
g69
(g78
g71
NtRp4429
(dp4430
g74
(dp4431
g82
I1
ssg83
Nsg76
(lp4432
g69
(g85
g71
NtRp4433
(dp4434
g74
(dp4435
sg83
g4429
sg76
(lp4436
g69
(g90
g71
NtRp4437
(dp4438
g74
(dp4439
sg83
g4433
sg76
(lp4440
g69
(g70
g71
NtRp4441
(dp4442
g74
(dp4443
g82
I1
ssg83
g4437
sg76
(lp4444
g3945
(S't\t\x00\x00\x00Community'
tRp4445
asbasbasbag69
(g85
g71
NtRp4446
(dp4447
g74
(dp4448
sg83
g4429
sg76
(lp4449
g69
(g90
g71
NtRp4450
(dp4451
g74
(dp4452
sg83
g4446
sg76
(lp4453
g69
(g70
g71
NtRp4454
(dp4455
g74
(dp4456
g82
I1
ssg83
g4450
sg76
(lp4457
I00
asbasbasbag69
(g85
g71
NtRp4458
(dp4459
g74
(dp4460
sg83
g4429
sg76
(lp4461
g69
(g90
g71
NtRp4462
(dp4463
g74
(dp4464
sg83
g4458
sg76
(lp4465
g69
(g70
g71
NtRp4466
(dp4467
g74
(dp4468
g82
I1
ssg83
g4462
sg76
(lp4469
Nasbasbasbag69
(g85
g71
NtRp4470
(dp4471
g74
(dp4472
sg83
g4429
sg76
(lp4473
g69
(g90
g71
NtRp4474
(dp4475
g74
(dp4476
sg83
g4470
sg76
(lp4477
g69
(g70
g71
NtRp4478
(dp4479
g74
(dp4480
g82
I1
ssg83
g4474
sg76
(lp4481
(lp4482
(g3945
(S't\x06\x00\x00\x00Groups'
tRp4483
I00
S'http://www.web2py.com/examples/default/usergroups'
p4484
tp4485
a(g3945
(S't\x07\x00\x00\x00Twitter'
tRp4486
I00
S'http://twitter.com/web2py'
p4487
tp4488
a(g3945
(S's\t\x00\x00\x00Live Chat'
tRp4489
I00
S'http://webchat.freenode.net/?channels=web2py'
p4490
tp4491
aasbasbasbasbasbasbasbag69
(g85
g71
NtRp4492
(dp4493
g74
(dp4494
sg83
g4059
sg76
(lp4495
g69
(g90
g71
NtRp4496
(dp4497
g74
(dp4498
sg83
g4492
sg76
(lp4499
g69
(g70
g71
NtRp4500
(dp4501
g74
(dp4502
g82
I2
ssg83
g4496
sg76
(lp4503
g69
(g78
g71
NtRp4504
(dp4505
g74
(dp4506
g82
I1
ssg83
Nsg76
(lp4507
g69
(g85
g71
NtRp4508
(dp4509
g74
(dp4510
sg83
g4504
sg76
(lp4511
g69
(g90
g71
NtRp4512
(dp4513
g74
(dp4514
sg83
g4508
sg76
(lp4515
g69
(g70
g71
NtRp4516
(dp4517
g74
(dp4518
g82
I1
ssg83
g4512
sg76
(lp4519
g3945
(S't\x07\x00\x00\x00Plugins'
tRp4520
asbasbasbag69
(g85
g71
NtRp4521
(dp4522
g74
(dp4523
sg83
g4504
sg76
(lp4524
g69
(g90
g71
NtRp4525
(dp4526
g74
(dp4527
sg83
g4521
sg76
(lp4528
g69
(g70
g71
NtRp4529
(dp4530
g74
(dp4531
g82
I1
ssg83
g4525
sg76
(lp4532
I00
asbasbasbag69
(g85
g71
NtRp4533
(dp4534
g74
(dp4535
sg83
g4504
sg76
(lp4536
g69
(g90
g71
NtRp4537
(dp4538
g74
(dp4539
sg83
g4533
sg76
(lp4540
g69
(g70
g71
NtRp4541
(dp4542
g74
(dp4543
g82
I1
ssg83
g4537
sg76
(lp4544
Nasbasbasbag69
(g85
g71
NtRp4545
(dp4546
g74
(dp4547
sg83
g4504
sg76
(lp4548
g69
(g90
g71
NtRp4549
(dp4550
g74
(dp4551
sg83
g4545
sg76
(lp4552
g69
(g70
g71
NtRp4553
(dp4554
g74
(dp4555
g82
I1
ssg83
g4549
sg76
(lp4556
(lp4557
(S'plugin_wiki'
p4558
I00
S'http://web2py.com/examples/default/download'
p4559
tp4560
a(g3945
(S's\r\x00\x00\x00Other Plugins'
tRp4561
I00
g4291
tp4562
a(g3945
(S's\x0e\x00\x00\x00Layout Plugins'
tRp4563
I00
g4294
tp4564
aasbasbasbasbasbasbasbasbasbasbasbasbasbasbasbasbasbasbasbag69
(g85
g71
NtRp4565
(dp4566
g74
(dp4567
sg83
g3389
sg76
(lp4568
g69
(g90
g71
NtRp4569
(dp4570
g74
(dp4571
g94
g95
ssg83
g4565
sg76
(lp4572
S'meta'
p4573
asbag69
(g90
g71
NtRp4574
(dp4575
g74
(dp4576
g101
g102
ssg83
g4565
sg76
(lp4577
S':'
asbag69
(g90
g71
NtRp4578
(dp4579
g74
(dp4580
sg83
g4565
sg76
(lp4581
g69
(g70
g71
NtRp4582
(dp4583
g74
(dp4584
g82
I5
ssg83
g4578
sg76
(lp4585
g69
(g78
g71
NtRp4586
(dp4587
g74
(dp4588
g82
I4
ssg83
Nsg76
(lp4589
g69
(g85
g71
NtRp4590
(dp4591
g74
(dp4592
sg83
g4586
sg76
(lp4593
g69
(g90
g71
NtRp4594
(dp4595
g74
(dp4596
g94
g95
ssg83
g4590
sg76
(lp4597
S'author'
p4598
asbag69
(g90
g71
NtRp4599
(dp4600
g74
(dp4601
g101
g102
ssg83
g4590
sg76
(lp4602
S':'
asbag69
(g90
g71
NtRp4603
(dp4604
g74
(dp4605
sg83
g4590
sg76
(lp4606
g69
(g70
g71
NtRp4607
(dp4608
g74
(dp4609
g82
I4
ssg83
g4603
sg76
(lp4610
S'Your Name <you@example.com>'
p4611
asbasbasbag69
(g85
g71
NtRp4612
(dp4613
g74
(dp4614
sg83
g4586
sg76
(lp4615
g69
(g90
g71
NtRp4616
(dp4617
g74
(dp4618
g94
g95
ssg83
g4612
sg76
(lp4619
S'copyright'
p4620
asbag69
(g90
g71
NtRp4621
(dp4622
g74
(dp4623
g101
g102
ssg83
g4612
sg76
(lp4624
S':'
asbag69
(g90
g71
NtRp4625
(dp4626
g74
(dp4627
sg83
g4612
sg76
(lp4628
g69
(g70
g71
NtRp4629
(dp4630
g74
(dp4631
g82
I4
ssg83
g4625
sg76
(lp4632
S'Copyright 2011'
p4633
asbasbasbag69
(g85
g71
NtRp4634
(dp4635
g74
(dp4636
sg83
g4586
sg76
(lp4637
g69
(g90
g71
NtRp4638
(dp4639
g74
(dp4640
g94
g95
ssg83
g4634
sg76
(lp4641
S'description'
p4642
asbag69
(g90
g71
NtRp4643
(dp4644
g74
(dp4645
g101
g102
ssg83
g4634
sg76
(lp4646
S':'
asbag69
(g90
g71
NtRp4647
(dp4648
g74
(dp4649
sg83
g4634
sg76
(lp4650
g69
(g70
g71
NtRp4651
(dp4652
g74
(dp4653
g82
I4
ssg83
g4647
sg76
(lp4654
S'a cool new app'
p4655
asbasbasbag69
(g85
g71
NtRp4656
(dp4657
g74
(dp4658
sg83
g4586
sg76
(lp4659
g69
(g90
g71
NtRp4660
(dp4661
g74
(dp4662
g94
g95
ssg83
g4656
sg76
(lp4663
S'generator'
p4664
asbag69
(g90
g71
NtRp4665
(dp4666
g74
(dp4667
g101
g102
ssg83
g4656
sg76
(lp4668
S':'
asbag69
(g90
g71
NtRp4669
(dp4670
g74
(dp4671
sg83
g4656
sg76
(lp4672
g69
(g70
g71
NtRp4673
(dp4674
g74
(dp4675
g82
I4
ssg83
g4669
sg76
(lp4676
S'Web2py Web Framework'
p4677
asbasbasbag69
(g85
g71
NtRp4678
(dp4679
g74
(dp4680
sg83
g4586
sg76
(lp4681
g69
(g90
g71
NtRp4682
(dp4683
g74
(dp4684
g94
g95
ssg83
g4678
sg76
(lp4685
S'keywords'
p4686
asbag69
(g90
g71
NtRp4687
(dp4688
g74
(dp4689
g101
g102
ssg83
g4678
sg76
(lp4690
S':'
asbag69
(g90
g71
NtRp4691
(dp4692
g74
(dp4693
sg83
g4678
sg76
(lp4694
g69
(g70
g71
NtRp4695
(dp4696
g74
(dp4697
g82
I4
ssg83
g4691
sg76
(lp4698
S'web2py, python, framework'
p4699
asbasbasbasbasbasbasbag69
(g85
g71
NtRp4700
(dp4701
g74
(dp4702
sg83
g3389
sg76
(lp4703
g69
(g90
g71
NtRp4704
(dp4705
g74
(dp4706
g94
g95
ssg83
g4700
sg76
(lp4707
S'postprocessing'
p4708
asbag69
(g90
g71
NtRp4709
(dp4710
g74
(dp4711
g101
g102
ssg83
g4700
sg76
(lp4712
S':'
asbag69
(g90
g71
NtRp4713
(dp4714
g74
(dp4715
sg83
g4700
sg76
(lp4716
g69
(g70
g71
NtRp4717
(dp4718
g74
(dp4719
g82
I5
ssg83
g4713
sg76
(lp4720
g69
(g78
g71
NtRp4721
(dp4722
g74
(dp4723
g82
I4
ssg83
Nsg76
(lp4724
sbasbasbasbag69
(g85
g71
NtRp4725
(dp4726
g74
(dp4727
sg83
g3389
sg76
(lp4728
g69
(g90
g71
NtRp4729
(dp4730
g74
(dp4731
g94
g95
ssg83
g4725
sg76
(lp4732
S'session_file'
p4733
asbag69
(g90
g71
NtRp4734
(dp4735
g74
(dp4736
g101
g102
ssg83
g4725
sg76
(lp4737
S':'
asbag69
(g90
g71
NtRp4738
(dp4739
g74
(dp4740
sg83
g4725
sg76
(lp4741
g69
(g70
g71
NtRp4742
(dp4743
g74
(dp4744
g82
I5
ssg83
g4738
sg76
(lp4745
S"<open file '/home/fish/Desktop/web2py/applications/vsalad/sessions/127.0.0.1-65c5fec7-9058-48a5-9599-65c6d4c50931', mode 'rb+' at 0x2b0ac90>"
p4746
asbasbasbag69
(g85
g71
NtRp4747
(dp4748
g74
(dp4749
sg83
g3389
sg76
(lp4750
g69
(g90
g71
NtRp4751
(dp4752
g74
(dp4753
g94
g95
ssg83
g4747
sg76
(lp4754
S'session_filename'
p4755
asbag69
(g90
g71
NtRp4756
(dp4757
g74
(dp4758
g101
g102
ssg83
g4747
sg76
(lp4759
S':'
asbag69
(g90
g71
NtRp4760
(dp4761
g74
(dp4762
sg83
g4747
sg76
(lp4763
g69
(g70
g71
NtRp4764
(dp4765
g74
(dp4766
g82
I5
ssg83
g4760
sg76
(lp4767
S'/home/fish/Desktop/web2py/applications/vsalad/sessions/127.0.0.1-65c5fec7-9058-48a5-9599-65c6d4c50931'
p4768
asbasbasbag69
(g85
g71
NtRp4769
(dp4770
g74
(dp4771
sg83
g3389
sg76
(lp4772
g69
(g90
g71
NtRp4773
(dp4774
g74
(dp4775
g94
g95
ssg83
g4769
sg76
(lp4776
S'session_id'
p4777
asbag69
(g90
g71
NtRp4778
(dp4779
g74
(dp4780
g101
g102
ssg83
g4769
sg76
(lp4781
S':'
asbag69
(g90
g71
NtRp4782
(dp4783
g74
(dp4784
sg83
g4769
sg76
(lp4785
g69
(g70
g71
NtRp4786
(dp4787
g74
(dp4788
g82
I5
ssg83
g4782
sg76
(lp4789
S'127.0.0.1-65c5fec7-9058-48a5-9599-65c6d4c50931'
p4790
asbasbasbag69
(g85
g71
NtRp4791
(dp4792
g74
(dp4793
sg83
g3389
sg76
(lp4794
g69
(g90
g71
NtRp4795
(dp4796
g74
(dp4797
g94
g95
ssg83
g4791
sg76
(lp4798
S'session_id_name'
p4799
asbag69
(g90
g71
NtRp4800
(dp4801
g74
(dp4802
g101
g102
ssg83
g4791
sg76
(lp4803
S':'
asbag69
(g90
g71
NtRp4804
(dp4805
g74
(dp4806
sg83
g4791
sg76
(lp4807
g69
(g70
g71
NtRp4808
(dp4809
g74
(dp4810
g82
I5
ssg83
g4804
sg76
(lp4811
g3446
asbasbasbag69
(g85
g71
NtRp4812
(dp4813
g74
(dp4814
sg83
g3389
sg76
(lp4815
g69
(g90
g71
NtRp4816
(dp4817
g74
(dp4818
g94
g95
ssg83
g4812
sg76
(lp4819
S'session_locked'
p4820
asbag69
(g90
g71
NtRp4821
(dp4822
g74
(dp4823
g101
g102
ssg83
g4812
sg76
(lp4824
S':'
asbag69
(g90
g71
NtRp4825
(dp4826
g74
(dp4827
sg83
g4812
sg76
(lp4828
g69
(g70
g71
NtRp4829
(dp4830
g74
(dp4831
g82
I5
ssg83
g4825
sg76
(lp4832
g1909
asbasbasbag69
(g85
g71
NtRp4833
(dp4834
g74
(dp4835
sg83
g3389
sg76
(lp4836
g69
(g90
g71
NtRp4837
(dp4838
g74
(dp4839
g94
g95
ssg83
g4833
sg76
(lp4840
S'session_new'
p4841
asbag69
(g90
g71
NtRp4842
(dp4843
g74
(dp4844
g101
g102
ssg83
g4833
sg76
(lp4845
S':'
asbag69
(g90
g71
NtRp4846
(dp4847
g74
(dp4848
sg83
g4833
sg76
(lp4849
g69
(g70
g71
NtRp4850
(dp4851
g74
(dp4852
g82
I5
ssg83
g4846
sg76
(lp4853
g112
asbasbasbag69
(g85
g71
NtRp4854
(dp4855
g74
(dp4856
sg83
g3389
sg76
(lp4857
g69
(g90
g71
NtRp4858
(dp4859
g74
(dp4860
g94
g95
ssg83
g4854
sg76
(lp4861
S'status'
p4862
asbag69
(g90
g71
NtRp4863
(dp4864
g74
(dp4865
g101
g102
ssg83
g4854
sg76
(lp4866
S':'
asbag69
(g90
g71
NtRp4867
(dp4868
g74
(dp4869
sg83
g4854
sg76
(lp4870
g69
(g70
g71
NtRp4871
(dp4872
g74
(dp4873
g82
I5
ssg83
g4867
sg76
(lp4874
S'200'
p4875
asbasbasbag69
(g85
g71
NtRp4876
(dp4877
g74
(dp4878
sg83
g3389
sg76
(lp4879
g69
(g90
g71
NtRp4880
(dp4881
g74
(dp4882
g94
g95
ssg83
g4876
sg76
(lp4883
S'subtitle'
p4884
asbag69
(g90
g71
NtRp4885
(dp4886
g74
(dp4887
g101
g102
ssg83
g4876
sg76
(lp4888
S':'
asbag69
(g90
g71
NtRp4889
(dp4890
g74
(dp4891
sg83
g4876
sg76
(lp4892
g69
(g70
g71
NtRp4893
(dp4894
g74
(dp4895
g82
I5
ssg83
g4889
sg76
(lp4896
g3945
(S's\r\x00\x00\x00customize me!'
tRp4897
asbasbasbag69
(g85
g71
NtRp4898
(dp4899
g74
(dp4900
sg83
g3389
sg76
(lp4901
g69
(g90
g71
NtRp4902
(dp4903
g74
(dp4904
g94
g95
ssg83
g4898
sg76
(lp4905
S'title'
p4906
asbag69
(g90
g71
NtRp4907
(dp4908
g74
(dp4909
g101
g102
ssg83
g4898
sg76
(lp4910
S':'
asbag69
(g90
g71
NtRp4911
(dp4912
g74
(dp4913
sg83
g4898
sg76
(lp4914
g69
(g70
g71
NtRp4915
(dp4916
g74
(dp4917
g82
I5
ssg83
g4911
sg76
(lp4918
S'Vsalad'
p4919
asbasbasbag69
(g85
g71
NtRp4920
(dp4921
g74
(dp4922
sg83
g3389
sg76
(lp4923
g69
(g90
g71
NtRp4924
(dp4925
g74
(dp4926
g94
g95
ssg83
g4920
sg76
(lp4927
g2594
asbag69
(g90
g71
NtRp4928
(dp4929
g74
(dp4930
g101
g102
ssg83
g4920
sg76
(lp4931
S':'
asbag69
(g90
g71
NtRp4932
(dp4933
g74
(dp4934
sg83
g4920
sg76
(lp4935
g69
(g70
g71
NtRp4936
(dp4937
g74
(dp4938
g82
I5
ssg83
g4932
sg76
(lp4939
g2607
asbasbasbag69
(g85
g71
NtRp4940
(dp4941
g74
(dp4942
sg83
g3389
sg76
(lp4943
g69
(g90
g71
NtRp4944
(dp4945
g74
(dp4946
g94
g95
ssg83
g4940
sg76
(lp4947
S'view'
p4948
asbag69
(g90
g71
NtRp4949
(dp4950
g74
(dp4951
g101
g102
ssg83
g4940
sg76
(lp4952
S':'
asbag69
(g90
g71
NtRp4953
(dp4954
g74
(dp4955
sg83
g4940
sg76
(lp4956
g69
(g70
g71
NtRp4957
(dp4958
g74
(dp4959
g82
I5
ssg83
g4953
sg76
(lp4960
S'action/comments.html'
p4961
asbasbasbasbasbsS'locals'
p4962
(dp4963
g2616
g21
sS'hash_vars'
p4964
g1909
sS'port'
p4965
S'None'
p4966
sS'current'
p4967
S'<thread._local object>'
p4968
sg121
S"'vsalad'"
p4969
sS'user_signature'
p4970
S'None'
p4971
sg1018
S"<Storage {'debugging': False, 'http_user_agent':...[]), 'query_string': '', 'wsgi_run_once': False}>"
p4972
sS'url_encode'
p4973
g1909
sS'scheme'
p4974
S'None'
p4975
sg2054
S"''"
p4976
sS'encode_embedded_slash'
p4977
g112
sg52
S"['index']"
p4978
sg223
S"'default'"
p4979
sS'a'
S'None'
p4980
sS'c'
S"'default'"
p4981
sS'function2'
p4982
S"'.html'"
p4983
sg2010
S'None'
p4984
sS'f'
S"''"
p4985
sS'items'
p4986
S"['', 'index']"
p4987
sS'host'
p4988
S'None'
p4989
sS'hmac_key'
p4990
S'None'
p4991
sS'r'
S"<Storage {'body': <cStringIO.StringO object at 0..._vars': <Storage {}>, 'post_vars': <Storage {}>}>"
p4992
sS'salt'
p4993
S'None'
p4994
sS'anchor'
p4995
S"''"
p4996
sssS'traceback'
p4997
S'Traceback (most recent call last):\n  File "/home/fish/Desktop/web2py/gluon/restricted.py", line 205, in restricted\n    exec ccode in environment\n  File "/home/fish/Desktop/web2py/applications/vsalad/views/action/comments.html", line 12, in <module>\n    <div id=\'user-text\'>\n  File "/home/fish/Desktop/web2py/gluon/html.py", line 274, in URL\n    raise SyntaxError, \'not enough information to build the url\'\nSyntaxError: not enough information to build the url\n'
p4998
s.