(dp1
S'output'
p2
S"<type 'exceptions.NameError'> name 'article' is not defined"
p3
sS'layer'
p4
S'/home/fish/Desktop/web2py/applications/vsalad/views/default/article.html'
p5
sS'code'
p6
S'response.write(\'<html lang="en">\\n<head>\\n    <script src="\', escape=False)\nresponse.write(URL(\'static\',\'js/jquery.js\'))\nresponse.write(\'"></script>\\n    <script src="\', escape=False)\nresponse.write(URL(\'static\',\'js/vsalad.js\'))\nresponse.write(\'"></script>\\n    <link rel="stylesheet" href="\', escape=False)\nresponse.write(URL(\'static\',\'css/vs.css\'))\nresponse.write(\'"></link>\\n    <meta charset="utf-8">\\n    <title>Voodoo Salad</title>\\n    <meta name="viewport" content="width=device-width, initial-scale=1.0">\\n    <meta name="description" content="">\\n    <meta name="author" content="">\\n\\n    <!-- Styles -->\\n    <link href="\', escape=False)\nresponse.write(URL(\'static\',\'css/bootstrap.css\'))\nresponse.write(\'" rel="stylesheet">\\n    <link href="\', escape=False)\nresponse.write(URL(\'static\',\'css/bootstrap-responsive.css\'))\nresponse.write(\'" rel="stylesheet">\\n\\n  \\n</head>\\n<body>\\n<div id="welcome-panel" class="hero-unit row">\\n            \\n\\n\\n        <div id="title">\\n                <h1 class="voodoo span">V&#3232;&#3232;doo {</h1> \\n                <a class="span" href=""><img src="\', escape=False)\nresponse.write(URL(\'static\', \'images/vfish.jpg\'))\nresponse.write(\'"/></a>\\n                 <h1 class="tuna span">} Tuna</h1>\\n       </div>\\n    </div>\\n\\n\\n\', escape=False)\nresponse.write(\'\\n<div id="content" class="row">\\n\', escape=False)\nif request.args(0):\n    response.write("\\n  <div id=\'article\'>\\n    <h1>", escape=False)\n    response.write(article.title)\n    response.write(" </h1>\\n    </div>\\n    <div id=\'user-text\'>\\n    <p>", escape=False)\n    response.write(article.content)\n    response.write(\'</p>\\n    </div>\\n\', escape=False)\n    pass\nresponse.write(\'\\n</div>\\n\', escape=False)\nresponse.write(\'\\n</body>\\n</html>\\n\', escape=False)'
p7
sS'snapshot'
p8
(dp9
S'exception'
p10
(dp11
S'__hash__'
p12
S"<method-wrapper '__hash__' of exceptions.NameError object>"
p13
sS'__setattr__'
p14
S"<method-wrapper '__setattr__' of exceptions.NameError object>"
p15
sS'__reduce_ex__'
p16
S'<built-in method __reduce_ex__ of exceptions.NameError object>'
p17
sS'__getslice__'
p18
S"<method-wrapper '__getslice__' of exceptions.NameError object>"
p19
sS'__getitem__'
p20
S"<method-wrapper '__getitem__' of exceptions.NameError object>"
p21
sS'__setstate__'
p22
S'<built-in method __setstate__ of exceptions.NameError object>'
p23
sS'args'
p24
S'("name \'article\' is not defined",)'
p25
sS'__reduce__'
p26
S'<built-in method __reduce__ of exceptions.NameError object>'
p27
sS'__str__'
p28
S"<method-wrapper '__str__' of exceptions.NameError object>"
p29
sS'__format__'
p30
S'<built-in method __format__ of exceptions.NameError object>'
p31
sS'__getattribute__'
p32
S"<method-wrapper '__getattribute__' of exceptions.NameError object>"
p33
sS'__class__'
p34
S"<type 'exceptions.NameError'>"
p35
sS'__unicode__'
p36
S'<built-in method __unicode__ of exceptions.NameError object>'
p37
sS'__delattr__'
p38
S"<method-wrapper '__delattr__' of exceptions.NameError object>"
p39
sS'__subclasshook__'
p40
S'<built-in method __subclasshook__ of type object>'
p41
sS'__repr__'
p42
S"<method-wrapper '__repr__' of exceptions.NameError object>"
p43
sS'__dict__'
p44
S'{}'
p45
sS'__sizeof__'
p46
S'<built-in method __sizeof__ of exceptions.NameError object>'
p47
sS'__doc__'
p48
S"'Name not found globally.'"
p49
sS'__init__'
p50
S"<method-wrapper '__init__' of exceptions.NameError object>"
p51
sS'__new__'
p52
S'<built-in method __new__ of type object>'
p53
ssS'evalue'
p54
S"name 'article' is not defined"
p55
sS'request'
p56
ccopy_reg
_reconstructor
p57
(cgluon.html
BEAUTIFY
p58
c__builtin__
object
p59
NtRp60
(dp61
S'attributes'
p62
(dp63
sS'components'
p64
(lp65
g57
(cgluon.html
TABLE
p66
g59
NtRp67
(dp68
g62
(dp69
S'level'
p70
I5
ssS'parent'
p71
Nsg64
(lp72
g57
(cgluon.html
TR
p73
g59
NtRp74
(dp75
g62
(dp76
sg71
g67
sg64
(lp77
g57
(cgluon.html
TD
p78
g59
NtRp79
(dp80
g62
(dp81
S'_style'
p82
S'font-weight:bold;vertical-align:top'
p83
ssg71
g74
sg64
(lp84
S'ajax'
p85
asbag57
(g78
g59
NtRp86
(dp87
g62
(dp88
S'_valign'
p89
S'top'
p90
ssg71
g74
sg64
(lp91
S':'
asbag57
(g78
g59
NtRp92
(dp93
g62
(dp94
sg71
g74
sg64
(lp95
g57
(g58
g59
NtRp96
(dp97
g62
(dp98
g70
I5
ssg71
g92
sg64
(lp99
S'False'
p100
asbasbasbag57
(g73
g59
NtRp101
(dp102
g62
(dp103
sg71
g67
sg64
(lp104
g57
(g78
g59
NtRp105
(dp106
g62
(dp107
g82
g83
ssg71
g101
sg64
(lp108
S'application'
p109
asbag57
(g78
g59
NtRp110
(dp111
g62
(dp112
g89
g90
ssg71
g101
sg64
(lp113
S':'
asbag57
(g78
g59
NtRp114
(dp115
g62
(dp116
sg71
g101
sg64
(lp117
g57
(g58
g59
NtRp118
(dp119
g62
(dp120
g70
I5
ssg71
g114
sg64
(lp121
S'vsalad'
p122
asbasbasbag57
(g73
g59
NtRp123
(dp124
g62
(dp125
sg71
g67
sg64
(lp126
g57
(g78
g59
NtRp127
(dp128
g62
(dp129
g82
g83
ssg71
g123
sg64
(lp130
g24
asbag57
(g78
g59
NtRp131
(dp132
g62
(dp133
g89
g90
ssg71
g123
sg64
(lp134
S':'
asbag57
(g78
g59
NtRp135
(dp136
g62
(dp137
sg71
g123
sg64
(lp138
g57
(g58
g59
NtRp139
(dp140
g62
(dp141
g70
I5
ssg71
g135
sg64
(lp142
g57
(g66
g59
NtRp143
(dp144
g62
(dp145
g70
I4
ssg71
Nsg64
(lp146
g57
(g73
g59
NtRp147
(dp148
g62
(dp149
sg71
g143
sg64
(lp150
g57
(g78
g59
NtRp151
(dp152
g62
(dp153
sg71
g147
sg64
(lp154
g57
(g58
g59
NtRp155
(dp156
g62
(dp157
g70
I4
ssg71
g151
sg64
(lp158
S'4'
asbasbasbag57
(g73
g59
NtRp159
(dp160
g62
(dp161
sg71
g143
sg64
(lp162
g57
(g78
g59
NtRp163
(dp164
g62
(dp165
sg71
g159
sg64
(lp166
g57
(g58
g59
NtRp167
(dp168
g62
(dp169
g70
I4
ssg71
g163
sg64
(lp170
S''
asbasbasbasbasbasbasbag57
(g73
g59
NtRp171
(dp172
g62
(dp173
sg71
g67
sg64
(lp174
g57
(g78
g59
NtRp175
(dp176
g62
(dp177
g82
g83
ssg71
g171
sg64
(lp178
S'body'
p179
asbag57
(g78
g59
NtRp180
(dp181
g62
(dp182
g89
g90
ssg71
g171
sg64
(lp183
S':'
asbag57
(g78
g59
NtRp184
(dp185
g62
(dp186
sg71
g171
sg64
(lp187
g57
(g58
g59
NtRp188
(dp189
g62
(dp190
g70
I5
ssg71
g184
sg64
(lp191
S'<cStringIO.StringO object at 0x34d2f10>'
p192
asbasbasbag57
(g73
g59
NtRp193
(dp194
g62
(dp195
sg71
g67
sg64
(lp196
g57
(g78
g59
NtRp197
(dp198
g62
(dp199
g82
g83
ssg71
g193
sg64
(lp200
S'client'
p201
asbag57
(g78
g59
NtRp202
(dp203
g62
(dp204
g89
g90
ssg71
g193
sg64
(lp205
S':'
asbag57
(g78
g59
NtRp206
(dp207
g62
(dp208
sg71
g193
sg64
(lp209
g57
(g58
g59
NtRp210
(dp211
g62
(dp212
g70
I5
ssg71
g206
sg64
(lp213
S'127.0.0.1'
p214
asbasbasbag57
(g73
g59
NtRp215
(dp216
g62
(dp217
sg71
g67
sg64
(lp218
g57
(g78
g59
NtRp219
(dp220
g62
(dp221
g82
g83
ssg71
g215
sg64
(lp222
S'controller'
p223
asbag57
(g78
g59
NtRp224
(dp225
g62
(dp226
g89
g90
ssg71
g215
sg64
(lp227
S':'
asbag57
(g78
g59
NtRp228
(dp229
g62
(dp230
sg71
g215
sg64
(lp231
g57
(g58
g59
NtRp232
(dp233
g62
(dp234
g70
I5
ssg71
g228
sg64
(lp235
S'default'
p236
asbasbasbag57
(g73
g59
NtRp237
(dp238
g62
(dp239
sg71
g67
sg64
(lp240
g57
(g78
g59
NtRp241
(dp242
g62
(dp243
g82
g83
ssg71
g237
sg64
(lp244
S'cookies'
p245
asbag57
(g78
g59
NtRp246
(dp247
g62
(dp248
g89
g90
ssg71
g237
sg64
(lp249
S':'
asbag57
(g78
g59
NtRp250
(dp251
g62
(dp252
sg71
g237
sg64
(lp253
g57
(g58
g59
NtRp254
(dp255
g62
(dp256
g70
I5
ssg71
g250
sg64
(lp257
g57
(g66
g59
NtRp258
(dp259
g62
(dp260
g70
I4
ssg71
Nsg64
(lp261
g57
(g73
g59
NtRp262
(dp263
g62
(dp264
sg71
g258
sg64
(lp265
g57
(g78
g59
NtRp266
(dp267
g62
(dp268
g82
g83
ssg71
g262
sg64
(lp269
S'session_id_admin'
p270
asbag57
(g78
g59
NtRp271
(dp272
g62
(dp273
g89
g90
ssg71
g262
sg64
(lp274
S':'
asbag57
(g78
g59
NtRp275
(dp276
g62
(dp277
sg71
g262
sg64
(lp278
g57
(g58
g59
NtRp279
(dp280
g62
(dp281
g70
I4
ssg71
g275
sg64
(lp282
g57
(g66
g59
NtRp283
(dp284
g62
(dp285
g70
I3
ssg71
Nsg64
(lp286
g57
(g73
g59
NtRp287
(dp288
g62
(dp289
sg71
g283
sg64
(lp290
g57
(g78
g59
NtRp291
(dp292
g62
(dp293
g82
g83
ssg71
g287
sg64
(lp294
S'comment'
p295
asbag57
(g78
g59
NtRp296
(dp297
g62
(dp298
g89
g90
ssg71
g287
sg64
(lp299
S':'
asbag57
(g78
g59
NtRp300
(dp301
g62
(dp302
sg71
g287
sg64
(lp303
g57
(g58
g59
NtRp304
(dp305
g62
(dp306
g70
I3
ssg71
g300
sg64
(lp307
S''
asbasbasbag57
(g73
g59
NtRp308
(dp309
g62
(dp310
sg71
g283
sg64
(lp311
g57
(g78
g59
NtRp312
(dp313
g62
(dp314
g82
g83
ssg71
g308
sg64
(lp315
S'domain'
p316
asbag57
(g78
g59
NtRp317
(dp318
g62
(dp319
g89
g90
ssg71
g308
sg64
(lp320
S':'
asbag57
(g78
g59
NtRp321
(dp322
g62
(dp323
sg71
g308
sg64
(lp324
g57
(g58
g59
NtRp325
(dp326
g62
(dp327
g70
I3
ssg71
g321
sg64
(lp328
S''
asbasbasbag57
(g73
g59
NtRp329
(dp330
g62
(dp331
sg71
g283
sg64
(lp332
g57
(g78
g59
NtRp333
(dp334
g62
(dp335
g82
g83
ssg71
g329
sg64
(lp336
S'expires'
p337
asbag57
(g78
g59
NtRp338
(dp339
g62
(dp340
g89
g90
ssg71
g329
sg64
(lp341
S':'
asbag57
(g78
g59
NtRp342
(dp343
g62
(dp344
sg71
g329
sg64
(lp345
g57
(g58
g59
NtRp346
(dp347
g62
(dp348
g70
I3
ssg71
g342
sg64
(lp349
S''
asbasbasbag57
(g73
g59
NtRp350
(dp351
g62
(dp352
sg71
g283
sg64
(lp353
g57
(g78
g59
NtRp354
(dp355
g62
(dp356
g82
g83
ssg71
g350
sg64
(lp357
S'httponly'
p358
asbag57
(g78
g59
NtRp359
(dp360
g62
(dp361
g89
g90
ssg71
g350
sg64
(lp362
S':'
asbag57
(g78
g59
NtRp363
(dp364
g62
(dp365
sg71
g350
sg64
(lp366
g57
(g58
g59
NtRp367
(dp368
g62
(dp369
g70
I3
ssg71
g363
sg64
(lp370
S''
asbasbasbag57
(g73
g59
NtRp371
(dp372
g62
(dp373
sg71
g283
sg64
(lp374
g57
(g78
g59
NtRp375
(dp376
g62
(dp377
g82
g83
ssg71
g371
sg64
(lp378
S'max-age'
p379
asbag57
(g78
g59
NtRp380
(dp381
g62
(dp382
g89
g90
ssg71
g371
sg64
(lp383
S':'
asbag57
(g78
g59
NtRp384
(dp385
g62
(dp386
sg71
g371
sg64
(lp387
g57
(g58
g59
NtRp388
(dp389
g62
(dp390
g70
I3
ssg71
g384
sg64
(lp391
S''
asbasbasbag57
(g73
g59
NtRp392
(dp393
g62
(dp394
sg71
g283
sg64
(lp395
g57
(g78
g59
NtRp396
(dp397
g62
(dp398
g82
g83
ssg71
g392
sg64
(lp399
S'path'
p400
asbag57
(g78
g59
NtRp401
(dp402
g62
(dp403
g89
g90
ssg71
g392
sg64
(lp404
S':'
asbag57
(g78
g59
NtRp405
(dp406
g62
(dp407
sg71
g392
sg64
(lp408
g57
(g58
g59
NtRp409
(dp410
g62
(dp411
g70
I3
ssg71
g405
sg64
(lp412
S''
asbasbasbag57
(g73
g59
NtRp413
(dp414
g62
(dp415
sg71
g283
sg64
(lp416
g57
(g78
g59
NtRp417
(dp418
g62
(dp419
g82
g83
ssg71
g413
sg64
(lp420
S'secure'
p421
asbag57
(g78
g59
NtRp422
(dp423
g62
(dp424
g89
g90
ssg71
g413
sg64
(lp425
S':'
asbag57
(g78
g59
NtRp426
(dp427
g62
(dp428
sg71
g413
sg64
(lp429
g57
(g58
g59
NtRp430
(dp431
g62
(dp432
g70
I3
ssg71
g426
sg64
(lp433
S''
asbasbasbag57
(g73
g59
NtRp434
(dp435
g62
(dp436
sg71
g283
sg64
(lp437
g57
(g78
g59
NtRp438
(dp439
g62
(dp440
g82
g83
ssg71
g434
sg64
(lp441
S'version'
p442
asbag57
(g78
g59
NtRp443
(dp444
g62
(dp445
g89
g90
ssg71
g434
sg64
(lp446
S':'
asbag57
(g78
g59
NtRp447
(dp448
g62
(dp449
sg71
g434
sg64
(lp450
g57
(g58
g59
NtRp451
(dp452
g62
(dp453
g70
I3
ssg71
g447
sg64
(lp454
S''
asbasbasbasbasbasbasbag57
(g73
g59
NtRp455
(dp456
g62
(dp457
sg71
g258
sg64
(lp458
g57
(g78
g59
NtRp459
(dp460
g62
(dp461
g82
g83
ssg71
g455
sg64
(lp462
S'session_id_vsalad'
p463
asbag57
(g78
g59
NtRp464
(dp465
g62
(dp466
g89
g90
ssg71
g455
sg64
(lp467
S':'
asbag57
(g78
g59
NtRp468
(dp469
g62
(dp470
sg71
g455
sg64
(lp471
g57
(g58
g59
NtRp472
(dp473
g62
(dp474
g70
I4
ssg71
g468
sg64
(lp475
g57
(g66
g59
NtRp476
(dp477
g62
(dp478
g70
I3
ssg71
Nsg64
(lp479
g57
(g73
g59
NtRp480
(dp481
g62
(dp482
sg71
g476
sg64
(lp483
g57
(g78
g59
NtRp484
(dp485
g62
(dp486
g82
g83
ssg71
g480
sg64
(lp487
g295
asbag57
(g78
g59
NtRp488
(dp489
g62
(dp490
g89
g90
ssg71
g480
sg64
(lp491
S':'
asbag57
(g78
g59
NtRp492
(dp493
g62
(dp494
sg71
g480
sg64
(lp495
g57
(g58
g59
NtRp496
(dp497
g62
(dp498
g70
I3
ssg71
g492
sg64
(lp499
S''
asbasbasbag57
(g73
g59
NtRp500
(dp501
g62
(dp502
sg71
g476
sg64
(lp503
g57
(g78
g59
NtRp504
(dp505
g62
(dp506
g82
g83
ssg71
g500
sg64
(lp507
g316
asbag57
(g78
g59
NtRp508
(dp509
g62
(dp510
g89
g90
ssg71
g500
sg64
(lp511
S':'
asbag57
(g78
g59
NtRp512
(dp513
g62
(dp514
sg71
g500
sg64
(lp515
g57
(g58
g59
NtRp516
(dp517
g62
(dp518
g70
I3
ssg71
g512
sg64
(lp519
S''
asbasbasbag57
(g73
g59
NtRp520
(dp521
g62
(dp522
sg71
g476
sg64
(lp523
g57
(g78
g59
NtRp524
(dp525
g62
(dp526
g82
g83
ssg71
g520
sg64
(lp527
g337
asbag57
(g78
g59
NtRp528
(dp529
g62
(dp530
g89
g90
ssg71
g520
sg64
(lp531
S':'
asbag57
(g78
g59
NtRp532
(dp533
g62
(dp534
sg71
g520
sg64
(lp535
g57
(g58
g59
NtRp536
(dp537
g62
(dp538
g70
I3
ssg71
g532
sg64
(lp539
S''
asbasbasbag57
(g73
g59
NtRp540
(dp541
g62
(dp542
sg71
g476
sg64
(lp543
g57
(g78
g59
NtRp544
(dp545
g62
(dp546
g82
g83
ssg71
g540
sg64
(lp547
g358
asbag57
(g78
g59
NtRp548
(dp549
g62
(dp550
g89
g90
ssg71
g540
sg64
(lp551
S':'
asbag57
(g78
g59
NtRp552
(dp553
g62
(dp554
sg71
g540
sg64
(lp555
g57
(g58
g59
NtRp556
(dp557
g62
(dp558
g70
I3
ssg71
g552
sg64
(lp559
S''
asbasbasbag57
(g73
g59
NtRp560
(dp561
g62
(dp562
sg71
g476
sg64
(lp563
g57
(g78
g59
NtRp564
(dp565
g62
(dp566
g82
g83
ssg71
g560
sg64
(lp567
g379
asbag57
(g78
g59
NtRp568
(dp569
g62
(dp570
g89
g90
ssg71
g560
sg64
(lp571
S':'
asbag57
(g78
g59
NtRp572
(dp573
g62
(dp574
sg71
g560
sg64
(lp575
g57
(g58
g59
NtRp576
(dp577
g62
(dp578
g70
I3
ssg71
g572
sg64
(lp579
S''
asbasbasbag57
(g73
g59
NtRp580
(dp581
g62
(dp582
sg71
g476
sg64
(lp583
g57
(g78
g59
NtRp584
(dp585
g62
(dp586
g82
g83
ssg71
g580
sg64
(lp587
g400
asbag57
(g78
g59
NtRp588
(dp589
g62
(dp590
g89
g90
ssg71
g580
sg64
(lp591
S':'
asbag57
(g78
g59
NtRp592
(dp593
g62
(dp594
sg71
g580
sg64
(lp595
g57
(g58
g59
NtRp596
(dp597
g62
(dp598
g70
I3
ssg71
g592
sg64
(lp599
S''
asbasbasbag57
(g73
g59
NtRp600
(dp601
g62
(dp602
sg71
g476
sg64
(lp603
g57
(g78
g59
NtRp604
(dp605
g62
(dp606
g82
g83
ssg71
g600
sg64
(lp607
g421
asbag57
(g78
g59
NtRp608
(dp609
g62
(dp610
g89
g90
ssg71
g600
sg64
(lp611
S':'
asbag57
(g78
g59
NtRp612
(dp613
g62
(dp614
sg71
g600
sg64
(lp615
g57
(g58
g59
NtRp616
(dp617
g62
(dp618
g70
I3
ssg71
g612
sg64
(lp619
S''
asbasbasbag57
(g73
g59
NtRp620
(dp621
g62
(dp622
sg71
g476
sg64
(lp623
g57
(g78
g59
NtRp624
(dp625
g62
(dp626
g82
g83
ssg71
g620
sg64
(lp627
g442
asbag57
(g78
g59
NtRp628
(dp629
g62
(dp630
g89
g90
ssg71
g620
sg64
(lp631
S':'
asbag57
(g78
g59
NtRp632
(dp633
g62
(dp634
sg71
g620
sg64
(lp635
g57
(g58
g59
NtRp636
(dp637
g62
(dp638
g70
I3
ssg71
g632
sg64
(lp639
S''
asbasbasbasbasbasbasbag57
(g73
g59
NtRp640
(dp641
g62
(dp642
sg71
g258
sg64
(lp643
g57
(g78
g59
NtRp644
(dp645
g62
(dp646
g82
g83
ssg71
g640
sg64
(lp647
S'session_id_welcome'
p648
asbag57
(g78
g59
NtRp649
(dp650
g62
(dp651
g89
g90
ssg71
g640
sg64
(lp652
S':'
asbag57
(g78
g59
NtRp653
(dp654
g62
(dp655
sg71
g640
sg64
(lp656
g57
(g58
g59
NtRp657
(dp658
g62
(dp659
g70
I4
ssg71
g653
sg64
(lp660
g57
(g66
g59
NtRp661
(dp662
g62
(dp663
g70
I3
ssg71
Nsg64
(lp664
g57
(g73
g59
NtRp665
(dp666
g62
(dp667
sg71
g661
sg64
(lp668
g57
(g78
g59
NtRp669
(dp670
g62
(dp671
g82
g83
ssg71
g665
sg64
(lp672
g295
asbag57
(g78
g59
NtRp673
(dp674
g62
(dp675
g89
g90
ssg71
g665
sg64
(lp676
S':'
asbag57
(g78
g59
NtRp677
(dp678
g62
(dp679
sg71
g665
sg64
(lp680
g57
(g58
g59
NtRp681
(dp682
g62
(dp683
g70
I3
ssg71
g677
sg64
(lp684
S''
asbasbasbag57
(g73
g59
NtRp685
(dp686
g62
(dp687
sg71
g661
sg64
(lp688
g57
(g78
g59
NtRp689
(dp690
g62
(dp691
g82
g83
ssg71
g685
sg64
(lp692
g316
asbag57
(g78
g59
NtRp693
(dp694
g62
(dp695
g89
g90
ssg71
g685
sg64
(lp696
S':'
asbag57
(g78
g59
NtRp697
(dp698
g62
(dp699
sg71
g685
sg64
(lp700
g57
(g58
g59
NtRp701
(dp702
g62
(dp703
g70
I3
ssg71
g697
sg64
(lp704
S''
asbasbasbag57
(g73
g59
NtRp705
(dp706
g62
(dp707
sg71
g661
sg64
(lp708
g57
(g78
g59
NtRp709
(dp710
g62
(dp711
g82
g83
ssg71
g705
sg64
(lp712
g337
asbag57
(g78
g59
NtRp713
(dp714
g62
(dp715
g89
g90
ssg71
g705
sg64
(lp716
S':'
asbag57
(g78
g59
NtRp717
(dp718
g62
(dp719
sg71
g705
sg64
(lp720
g57
(g58
g59
NtRp721
(dp722
g62
(dp723
g70
I3
ssg71
g717
sg64
(lp724
S''
asbasbasbag57
(g73
g59
NtRp725
(dp726
g62
(dp727
sg71
g661
sg64
(lp728
g57
(g78
g59
NtRp729
(dp730
g62
(dp731
g82
g83
ssg71
g725
sg64
(lp732
g358
asbag57
(g78
g59
NtRp733
(dp734
g62
(dp735
g89
g90
ssg71
g725
sg64
(lp736
S':'
asbag57
(g78
g59
NtRp737
(dp738
g62
(dp739
sg71
g725
sg64
(lp740
g57
(g58
g59
NtRp741
(dp742
g62
(dp743
g70
I3
ssg71
g737
sg64
(lp744
S''
asbasbasbag57
(g73
g59
NtRp745
(dp746
g62
(dp747
sg71
g661
sg64
(lp748
g57
(g78
g59
NtRp749
(dp750
g62
(dp751
g82
g83
ssg71
g745
sg64
(lp752
g379
asbag57
(g78
g59
NtRp753
(dp754
g62
(dp755
g89
g90
ssg71
g745
sg64
(lp756
S':'
asbag57
(g78
g59
NtRp757
(dp758
g62
(dp759
sg71
g745
sg64
(lp760
g57
(g58
g59
NtRp761
(dp762
g62
(dp763
g70
I3
ssg71
g757
sg64
(lp764
S''
asbasbasbag57
(g73
g59
NtRp765
(dp766
g62
(dp767
sg71
g661
sg64
(lp768
g57
(g78
g59
NtRp769
(dp770
g62
(dp771
g82
g83
ssg71
g765
sg64
(lp772
g400
asbag57
(g78
g59
NtRp773
(dp774
g62
(dp775
g89
g90
ssg71
g765
sg64
(lp776
S':'
asbag57
(g78
g59
NtRp777
(dp778
g62
(dp779
sg71
g765
sg64
(lp780
g57
(g58
g59
NtRp781
(dp782
g62
(dp783
g70
I3
ssg71
g777
sg64
(lp784
S''
asbasbasbag57
(g73
g59
NtRp785
(dp786
g62
(dp787
sg71
g661
sg64
(lp788
g57
(g78
g59
NtRp789
(dp790
g62
(dp791
g82
g83
ssg71
g785
sg64
(lp792
g421
asbag57
(g78
g59
NtRp793
(dp794
g62
(dp795
g89
g90
ssg71
g785
sg64
(lp796
S':'
asbag57
(g78
g59
NtRp797
(dp798
g62
(dp799
sg71
g785
sg64
(lp800
g57
(g58
g59
NtRp801
(dp802
g62
(dp803
g70
I3
ssg71
g797
sg64
(lp804
S''
asbasbasbag57
(g73
g59
NtRp805
(dp806
g62
(dp807
sg71
g661
sg64
(lp808
g57
(g78
g59
NtRp809
(dp810
g62
(dp811
g82
g83
ssg71
g805
sg64
(lp812
g442
asbag57
(g78
g59
NtRp813
(dp814
g62
(dp815
g89
g90
ssg71
g805
sg64
(lp816
S':'
asbag57
(g78
g59
NtRp817
(dp818
g62
(dp819
sg71
g805
sg64
(lp820
g57
(g58
g59
NtRp821
(dp822
g62
(dp823
g70
I3
ssg71
g817
sg64
(lp824
S''
asbasbasbasbasbasbasbasbasbasbasbag57
(g73
g59
NtRp825
(dp826
g62
(dp827
sg71
g67
sg64
(lp828
g57
(g78
g59
NtRp829
(dp830
g62
(dp831
g82
g83
ssg71
g825
sg64
(lp832
S'env'
p833
asbag57
(g78
g59
NtRp834
(dp835
g62
(dp836
g89
g90
ssg71
g825
sg64
(lp837
S':'
asbag57
(g78
g59
NtRp838
(dp839
g62
(dp840
sg71
g825
sg64
(lp841
g57
(g58
g59
NtRp842
(dp843
g62
(dp844
g70
I5
ssg71
g838
sg64
(lp845
g57
(g66
g59
NtRp846
(dp847
g62
(dp848
g70
I4
ssg71
Nsg64
(lp849
g57
(g73
g59
NtRp850
(dp851
g62
(dp852
sg71
g846
sg64
(lp853
g57
(g78
g59
NtRp854
(dp855
g62
(dp856
g82
g83
ssg71
g850
sg64
(lp857
S'app_folders'
p858
asbag57
(g78
g59
NtRp859
(dp860
g62
(dp861
g89
g90
ssg71
g850
sg64
(lp862
S':'
asbag57
(g78
g59
NtRp863
(dp864
g62
(dp865
sg71
g850
sg64
(lp866
g57
(g58
g59
NtRp867
(dp868
g62
(dp869
g70
I4
ssg71
g863
sg64
(lp870
S"set(['/home/fish/Desktop/web2py/applications/admin/', '/home/fish/Desktop/web2py/applications/welcome/', '/home/fish/Desktop/web2py/applications/vsalad/'])"
p871
asbasbasbag57
(g73
g59
NtRp872
(dp873
g62
(dp874
sg71
g846
sg64
(lp875
g57
(g78
g59
NtRp876
(dp877
g62
(dp878
g82
g83
ssg71
g872
sg64
(lp879
S'applications_parent'
p880
asbag57
(g78
g59
NtRp881
(dp882
g62
(dp883
g89
g90
ssg71
g872
sg64
(lp884
S':'
asbag57
(g78
g59
NtRp885
(dp886
g62
(dp887
sg71
g872
sg64
(lp888
g57
(g58
g59
NtRp889
(dp890
g62
(dp891
g70
I4
ssg71
g885
sg64
(lp892
S'/home/fish/Desktop/web2py'
p893
asbasbasbag57
(g73
g59
NtRp894
(dp895
g62
(dp896
sg71
g846
sg64
(lp897
g57
(g78
g59
NtRp898
(dp899
g62
(dp900
g82
g83
ssg71
g894
sg64
(lp901
S'cmd_args'
p902
asbag57
(g78
g59
NtRp903
(dp904
g62
(dp905
g89
g90
ssg71
g894
sg64
(lp906
S':'
asbag57
(g78
g59
NtRp907
(dp908
g62
(dp909
sg71
g894
sg64
(lp910
g57
(g58
g59
NtRp911
(dp912
g62
(dp913
g70
I4
ssg71
g907
sg64
(lp914
g57
(g66
g59
NtRp915
(dp916
g62
(dp917
g70
I3
ssg71
Nsg64
(lp918
sbasbasbasbag57
(g73
g59
NtRp919
(dp920
g62
(dp921
sg71
g846
sg64
(lp922
g57
(g78
g59
NtRp923
(dp924
g62
(dp925
g82
g83
ssg71
g919
sg64
(lp926
S'cmd_options'
p927
asbag57
(g78
g59
NtRp928
(dp929
g62
(dp930
g89
g90
ssg71
g919
sg64
(lp931
S':'
asbag57
(g78
g59
NtRp932
(dp933
g62
(dp934
sg71
g919
sg64
(lp935
g57
(g58
g59
NtRp936
(dp937
g62
(dp938
g70
I4
ssg71
g932
sg64
(lp939
S"<Values at 0x255e518: {'verbose': False, 'ip': '127.0.0.1', 'shutdown_timeout': 5, 'taskbar': False, 'nocron': False, 'pid_filename': 'httpserver.pid', 'maxthreads': None, 'softcron': False, 'server_name': 'Master-Fish', 'bpython': False, 'nogui': False, 'port': 8000, 'extcron': False, 'debuglevel': 30, 'test': None, 'folder': '/home/fish/Desktop/web2py', 'config': '', 'import_models': False, 'winservice': '', 'shell': None, 'run': '', 'log_filename': 'httpserver.log', 'args': [''], 'socket_timeout': 5, 'ssl_ca_certificate': None, 'scheduler': None, 'profiler_filename': None, 'ssl_private_key': '', 'password': '<ask>', 'request_queue_size': 5, 'ssl_certificate': '', 'cronjob': False, 'numthreads': None, 'quiet': False, 'interfaces': None, 'minthreads': None, 'timeout': 10, 'plain': False, 'nobanner': False}>"
p940
asbasbasbag57
(g73
g59
NtRp941
(dp942
g62
(dp943
sg71
g846
sg64
(lp944
g57
(g78
g59
NtRp945
(dp946
g62
(dp947
g82
g83
ssg71
g941
sg64
(lp948
S'db_sessions'
p949
asbag57
(g78
g59
NtRp950
(dp951
g62
(dp952
g89
g90
ssg71
g941
sg64
(lp953
S':'
asbag57
(g78
g59
NtRp954
(dp955
g62
(dp956
sg71
g941
sg64
(lp957
g57
(g58
g59
NtRp958
(dp959
g62
(dp960
g70
I4
ssg71
g954
sg64
(lp961
S'set([])'
p962
asbasbasbag57
(g73
g59
NtRp963
(dp964
g62
(dp965
sg71
g846
sg64
(lp966
g57
(g78
g59
NtRp967
(dp968
g62
(dp969
g82
g83
ssg71
g963
sg64
(lp970
S'debugging'
p971
asbag57
(g78
g59
NtRp972
(dp973
g62
(dp974
g89
g90
ssg71
g963
sg64
(lp975
S':'
asbag57
(g78
g59
NtRp976
(dp977
g62
(dp978
sg71
g963
sg64
(lp979
g57
(g58
g59
NtRp980
(dp981
g62
(dp982
g70
I4
ssg71
g976
sg64
(lp983
g100
asbasbasbag57
(g73
g59
NtRp984
(dp985
g62
(dp986
sg71
g846
sg64
(lp987
g57
(g78
g59
NtRp988
(dp989
g62
(dp990
g82
g83
ssg71
g984
sg64
(lp991
S'gluon_parent'
p992
asbag57
(g78
g59
NtRp993
(dp994
g62
(dp995
g89
g90
ssg71
g984
sg64
(lp996
S':'
asbag57
(g78
g59
NtRp997
(dp998
g62
(dp999
sg71
g984
sg64
(lp1000
g57
(g58
g59
NtRp1001
(dp1002
g62
(dp1003
g70
I4
ssg71
g997
sg64
(lp1004
S'/home/fish/Desktop/web2py'
p1005
asbasbasbag57
(g73
g59
NtRp1006
(dp1007
g62
(dp1008
sg71
g846
sg64
(lp1009
g57
(g78
g59
NtRp1010
(dp1011
g62
(dp1012
g82
g83
ssg71
g1006
sg64
(lp1013
S'http_accept'
p1014
asbag57
(g78
g59
NtRp1015
(dp1016
g62
(dp1017
g89
g90
ssg71
g1006
sg64
(lp1018
S':'
asbag57
(g78
g59
NtRp1019
(dp1020
g62
(dp1021
sg71
g1006
sg64
(lp1022
g57
(g58
g59
NtRp1023
(dp1024
g62
(dp1025
g70
I4
ssg71
g1019
sg64
(lp1026
S'text/html,application/xhtml+xml,application/xml;q=0.9,*/*;q=0.8'
p1027
asbasbasbag57
(g73
g59
NtRp1028
(dp1029
g62
(dp1030
sg71
g846
sg64
(lp1031
g57
(g78
g59
NtRp1032
(dp1033
g62
(dp1034
g82
g83
ssg71
g1028
sg64
(lp1035
S'http_accept_charset'
p1036
asbag57
(g78
g59
NtRp1037
(dp1038
g62
(dp1039
g89
g90
ssg71
g1028
sg64
(lp1040
S':'
asbag57
(g78
g59
NtRp1041
(dp1042
g62
(dp1043
sg71
g1028
sg64
(lp1044
g57
(g58
g59
NtRp1045
(dp1046
g62
(dp1047
g70
I4
ssg71
g1041
sg64
(lp1048
S'ISO-8859-1,utf-8;q=0.7,*;q=0.3'
p1049
asbasbasbag57
(g73
g59
NtRp1050
(dp1051
g62
(dp1052
sg71
g846
sg64
(lp1053
g57
(g78
g59
NtRp1054
(dp1055
g62
(dp1056
g82
g83
ssg71
g1050
sg64
(lp1057
S'http_accept_encoding'
p1058
asbag57
(g78
g59
NtRp1059
(dp1060
g62
(dp1061
g89
g90
ssg71
g1050
sg64
(lp1062
S':'
asbag57
(g78
g59
NtRp1063
(dp1064
g62
(dp1065
sg71
g1050
sg64
(lp1066
g57
(g58
g59
NtRp1067
(dp1068
g62
(dp1069
g70
I4
ssg71
g1063
sg64
(lp1070
S'gzip,deflate,sdch'
p1071
asbasbasbag57
(g73
g59
NtRp1072
(dp1073
g62
(dp1074
sg71
g846
sg64
(lp1075
g57
(g78
g59
NtRp1076
(dp1077
g62
(dp1078
g82
g83
ssg71
g1072
sg64
(lp1079
S'http_accept_language'
p1080
asbag57
(g78
g59
NtRp1081
(dp1082
g62
(dp1083
g89
g90
ssg71
g1072
sg64
(lp1084
S':'
asbag57
(g78
g59
NtRp1085
(dp1086
g62
(dp1087
sg71
g1072
sg64
(lp1088
g57
(g58
g59
NtRp1089
(dp1090
g62
(dp1091
g70
I4
ssg71
g1085
sg64
(lp1092
S'en-US,en;q=0.8,fr;q=0.6'
p1093
asbasbasbag57
(g73
g59
NtRp1094
(dp1095
g62
(dp1096
sg71
g846
sg64
(lp1097
g57
(g78
g59
NtRp1098
(dp1099
g62
(dp1100
g82
g83
ssg71
g1094
sg64
(lp1101
S'http_cache_control'
p1102
asbag57
(g78
g59
NtRp1103
(dp1104
g62
(dp1105
g89
g90
ssg71
g1094
sg64
(lp1106
S':'
asbag57
(g78
g59
NtRp1107
(dp1108
g62
(dp1109
sg71
g1094
sg64
(lp1110
g57
(g58
g59
NtRp1111
(dp1112
g62
(dp1113
g70
I4
ssg71
g1107
sg64
(lp1114
S'max-age=0'
p1115
asbasbasbag57
(g73
g59
NtRp1116
(dp1117
g62
(dp1118
sg71
g846
sg64
(lp1119
g57
(g78
g59
NtRp1120
(dp1121
g62
(dp1122
g82
g83
ssg71
g1116
sg64
(lp1123
S'http_connection'
p1124
asbag57
(g78
g59
NtRp1125
(dp1126
g62
(dp1127
g89
g90
ssg71
g1116
sg64
(lp1128
S':'
asbag57
(g78
g59
NtRp1129
(dp1130
g62
(dp1131
sg71
g1116
sg64
(lp1132
g57
(g58
g59
NtRp1133
(dp1134
g62
(dp1135
g70
I4
ssg71
g1129
sg64
(lp1136
S'keep-alive'
p1137
asbasbasbag57
(g73
g59
NtRp1138
(dp1139
g62
(dp1140
sg71
g846
sg64
(lp1141
g57
(g78
g59
NtRp1142
(dp1143
g62
(dp1144
g82
g83
ssg71
g1138
sg64
(lp1145
S'http_cookie'
p1146
asbag57
(g78
g59
NtRp1147
(dp1148
g62
(dp1149
g89
g90
ssg71
g1138
sg64
(lp1150
S':'
asbag57
(g78
g59
NtRp1151
(dp1152
g62
(dp1153
sg71
g1138
sg64
(lp1154
g57
(g58
g59
NtRp1155
(dp1156
g62
(dp1157
g70
I4
ssg71
g1151
sg64
(lp1158
S'session_id_welcome=127.0.0.1-ca03d1c8-fce4-40ec-877f-7a5659c560fd; session_id_vsalad=127.0.0.1-65c5fec7-9058-48a5-9599-65c6d4c50931; session_id_admin=127.0.0.1-dc074c73-6f98-4dc3-830d-e23ec66fde78'
p1159
asbasbasbag57
(g73
g59
NtRp1160
(dp1161
g62
(dp1162
sg71
g846
sg64
(lp1163
g57
(g78
g59
NtRp1164
(dp1165
g62
(dp1166
g82
g83
ssg71
g1160
sg64
(lp1167
S'http_host'
p1168
asbag57
(g78
g59
NtRp1169
(dp1170
g62
(dp1171
g89
g90
ssg71
g1160
sg64
(lp1172
S':'
asbag57
(g78
g59
NtRp1173
(dp1174
g62
(dp1175
sg71
g1160
sg64
(lp1176
g57
(g58
g59
NtRp1177
(dp1178
g62
(dp1179
g70
I4
ssg71
g1173
sg64
(lp1180
S'127.0.0.1:8000'
p1181
asbasbasbag57
(g73
g59
NtRp1182
(dp1183
g62
(dp1184
sg71
g846
sg64
(lp1185
g57
(g78
g59
NtRp1186
(dp1187
g62
(dp1188
g82
g83
ssg71
g1182
sg64
(lp1189
S'http_referer'
p1190
asbag57
(g78
g59
NtRp1191
(dp1192
g62
(dp1193
g89
g90
ssg71
g1182
sg64
(lp1194
S':'
asbag57
(g78
g59
NtRp1195
(dp1196
g62
(dp1197
sg71
g1182
sg64
(lp1198
g57
(g58
g59
NtRp1199
(dp1200
g62
(dp1201
g70
I4
ssg71
g1195
sg64
(lp1202
S'http://127.0.0.1:8000/vsalad/default/index'
p1203
asbasbasbag57
(g73
g59
NtRp1204
(dp1205
g62
(dp1206
sg71
g846
sg64
(lp1207
g57
(g78
g59
NtRp1208
(dp1209
g62
(dp1210
g82
g83
ssg71
g1204
sg64
(lp1211
S'http_user_agent'
p1212
asbag57
(g78
g59
NtRp1213
(dp1214
g62
(dp1215
g89
g90
ssg71
g1204
sg64
(lp1216
S':'
asbag57
(g78
g59
NtRp1217
(dp1218
g62
(dp1219
sg71
g1204
sg64
(lp1220
g57
(g58
g59
NtRp1221
(dp1222
g62
(dp1223
g70
I4
ssg71
g1217
sg64
(lp1224
S'Mozilla/5.0 (X11; Linux x86_64) AppleWebKit/535.19 (KHTML, like Gecko) Chrome/18.0.1025.162 Safari/535.19'
p1225
asbasbasbag57
(g73
g59
NtRp1226
(dp1227
g62
(dp1228
sg71
g846
sg64
(lp1229
g57
(g78
g59
NtRp1230
(dp1231
g62
(dp1232
g82
g83
ssg71
g1226
sg64
(lp1233
S'is_jython'
p1234
asbag57
(g78
g59
NtRp1235
(dp1236
g62
(dp1237
g89
g90
ssg71
g1226
sg64
(lp1238
S':'
asbag57
(g78
g59
NtRp1239
(dp1240
g62
(dp1241
sg71
g1226
sg64
(lp1242
g57
(g58
g59
NtRp1243
(dp1244
g62
(dp1245
g70
I4
ssg71
g1239
sg64
(lp1246
g100
asbasbasbag57
(g73
g59
NtRp1247
(dp1248
g62
(dp1249
sg71
g846
sg64
(lp1250
g57
(g78
g59
NtRp1251
(dp1252
g62
(dp1253
g82
g83
ssg71
g1247
sg64
(lp1254
S'is_pypy'
p1255
asbag57
(g78
g59
NtRp1256
(dp1257
g62
(dp1258
g89
g90
ssg71
g1247
sg64
(lp1259
S':'
asbag57
(g78
g59
NtRp1260
(dp1261
g62
(dp1262
sg71
g1247
sg64
(lp1263
g57
(g58
g59
NtRp1264
(dp1265
g62
(dp1266
g70
I4
ssg71
g1260
sg64
(lp1267
g100
asbasbasbag57
(g73
g59
NtRp1268
(dp1269
g62
(dp1270
sg71
g846
sg64
(lp1271
g57
(g78
g59
NtRp1272
(dp1273
g62
(dp1274
g82
g83
ssg71
g1268
sg64
(lp1275
S'path_info'
p1276
asbag57
(g78
g59
NtRp1277
(dp1278
g62
(dp1279
g89
g90
ssg71
g1268
sg64
(lp1280
S':'
asbag57
(g78
g59
NtRp1281
(dp1282
g62
(dp1283
sg71
g1268
sg64
(lp1284
g57
(g58
g59
NtRp1285
(dp1286
g62
(dp1287
g70
I4
ssg71
g1281
sg64
(lp1288
S'/vsalad/default/article/4//'
p1289
asbasbasbag57
(g73
g59
NtRp1290
(dp1291
g62
(dp1292
sg71
g846
sg64
(lp1293
g57
(g78
g59
NtRp1294
(dp1295
g62
(dp1296
g82
g83
ssg71
g1290
sg64
(lp1297
S'query_string'
p1298
asbag57
(g78
g59
NtRp1299
(dp1300
g62
(dp1301
g89
g90
ssg71
g1290
sg64
(lp1302
S':'
asbag57
(g78
g59
NtRp1303
(dp1304
g62
(dp1305
sg71
g1290
sg64
(lp1306
g57
(g58
g59
NtRp1307
(dp1308
g62
(dp1309
g70
I4
ssg71
g1303
sg64
(lp1310
S''
asbasbasbag57
(g73
g59
NtRp1311
(dp1312
g62
(dp1313
sg71
g846
sg64
(lp1314
g57
(g78
g59
NtRp1315
(dp1316
g62
(dp1317
g82
g83
ssg71
g1311
sg64
(lp1318
S'remote_addr'
p1319
asbag57
(g78
g59
NtRp1320
(dp1321
g62
(dp1322
g89
g90
ssg71
g1311
sg64
(lp1323
S':'
asbag57
(g78
g59
NtRp1324
(dp1325
g62
(dp1326
sg71
g1311
sg64
(lp1327
g57
(g58
g59
NtRp1328
(dp1329
g62
(dp1330
g70
I4
ssg71
g1324
sg64
(lp1331
g214
asbasbasbag57
(g73
g59
NtRp1332
(dp1333
g62
(dp1334
sg71
g846
sg64
(lp1335
g57
(g78
g59
NtRp1336
(dp1337
g62
(dp1338
g82
g83
ssg71
g1332
sg64
(lp1339
S'remote_port'
p1340
asbag57
(g78
g59
NtRp1341
(dp1342
g62
(dp1343
g89
g90
ssg71
g1332
sg64
(lp1344
S':'
asbag57
(g78
g59
NtRp1345
(dp1346
g62
(dp1347
sg71
g1332
sg64
(lp1348
g57
(g58
g59
NtRp1349
(dp1350
g62
(dp1351
g70
I4
ssg71
g1345
sg64
(lp1352
S'37105'
p1353
asbasbasbag57
(g73
g59
NtRp1354
(dp1355
g62
(dp1356
sg71
g846
sg64
(lp1357
g57
(g78
g59
NtRp1358
(dp1359
g62
(dp1360
g82
g83
ssg71
g1354
sg64
(lp1361
S'request_method'
p1362
asbag57
(g78
g59
NtRp1363
(dp1364
g62
(dp1365
g89
g90
ssg71
g1354
sg64
(lp1366
S':'
asbag57
(g78
g59
NtRp1367
(dp1368
g62
(dp1369
sg71
g1354
sg64
(lp1370
g57
(g58
g59
NtRp1371
(dp1372
g62
(dp1373
g70
I4
ssg71
g1367
sg64
(lp1374
S'GET'
p1375
asbasbasbag57
(g73
g59
NtRp1376
(dp1377
g62
(dp1378
sg71
g846
sg64
(lp1379
g57
(g78
g59
NtRp1380
(dp1381
g62
(dp1382
g82
g83
ssg71
g1376
sg64
(lp1383
S'script_name'
p1384
asbag57
(g78
g59
NtRp1385
(dp1386
g62
(dp1387
g89
g90
ssg71
g1376
sg64
(lp1388
S':'
asbag57
(g78
g59
NtRp1389
(dp1390
g62
(dp1391
sg71
g1376
sg64
(lp1392
g57
(g58
g59
NtRp1393
(dp1394
g62
(dp1395
g70
I4
ssg71
g1389
sg64
(lp1396
S''
asbasbasbag57
(g73
g59
NtRp1397
(dp1398
g62
(dp1399
sg71
g846
sg64
(lp1400
g57
(g78
g59
NtRp1401
(dp1402
g62
(dp1403
g82
g83
ssg71
g1397
sg64
(lp1404
S'server_name'
p1405
asbag57
(g78
g59
NtRp1406
(dp1407
g62
(dp1408
g89
g90
ssg71
g1397
sg64
(lp1409
S':'
asbag57
(g78
g59
NtRp1410
(dp1411
g62
(dp1412
sg71
g1397
sg64
(lp1413
g57
(g58
g59
NtRp1414
(dp1415
g62
(dp1416
g70
I4
ssg71
g1410
sg64
(lp1417
S'Master-Fish'
p1418
asbasbasbag57
(g73
g59
NtRp1419
(dp1420
g62
(dp1421
sg71
g846
sg64
(lp1422
g57
(g78
g59
NtRp1423
(dp1424
g62
(dp1425
g82
g83
ssg71
g1419
sg64
(lp1426
S'server_port'
p1427
asbag57
(g78
g59
NtRp1428
(dp1429
g62
(dp1430
g89
g90
ssg71
g1419
sg64
(lp1431
S':'
asbag57
(g78
g59
NtRp1432
(dp1433
g62
(dp1434
sg71
g1419
sg64
(lp1435
g57
(g58
g59
NtRp1436
(dp1437
g62
(dp1438
g70
I4
ssg71
g1432
sg64
(lp1439
S'8000'
p1440
asbasbasbag57
(g73
g59
NtRp1441
(dp1442
g62
(dp1443
sg71
g846
sg64
(lp1444
g57
(g78
g59
NtRp1445
(dp1446
g62
(dp1447
g82
g83
ssg71
g1441
sg64
(lp1448
S'server_protocol'
p1449
asbag57
(g78
g59
NtRp1450
(dp1451
g62
(dp1452
g89
g90
ssg71
g1441
sg64
(lp1453
S':'
asbag57
(g78
g59
NtRp1454
(dp1455
g62
(dp1456
sg71
g1441
sg64
(lp1457
g57
(g58
g59
NtRp1458
(dp1459
g62
(dp1460
g70
I4
ssg71
g1454
sg64
(lp1461
S'HTTP/1.1'
p1462
asbasbasbag57
(g73
g59
NtRp1463
(dp1464
g62
(dp1465
sg71
g846
sg64
(lp1466
g57
(g78
g59
NtRp1467
(dp1468
g62
(dp1469
g82
g83
ssg71
g1463
sg64
(lp1470
S'server_software'
p1471
asbag57
(g78
g59
NtRp1472
(dp1473
g62
(dp1474
g89
g90
ssg71
g1463
sg64
(lp1475
S':'
asbag57
(g78
g59
NtRp1476
(dp1477
g62
(dp1478
sg71
g1463
sg64
(lp1479
g57
(g58
g59
NtRp1480
(dp1481
g62
(dp1482
g70
I4
ssg71
g1476
sg64
(lp1483
S'Rocket 1.2.4'
p1484
asbasbasbag57
(g73
g59
NtRp1485
(dp1486
g62
(dp1487
sg71
g846
sg64
(lp1488
g57
(g78
g59
NtRp1489
(dp1490
g62
(dp1491
g82
g83
ssg71
g1485
sg64
(lp1492
S'web2py_crontype'
p1493
asbag57
(g78
g59
NtRp1494
(dp1495
g62
(dp1496
g89
g90
ssg71
g1485
sg64
(lp1497
S':'
asbag57
(g78
g59
NtRp1498
(dp1499
g62
(dp1500
sg71
g1485
sg64
(lp1501
g57
(g58
g59
NtRp1502
(dp1503
g62
(dp1504
g70
I4
ssg71
g1498
sg64
(lp1505
S'hard'
p1506
asbasbasbag57
(g73
g59
NtRp1507
(dp1508
g62
(dp1509
sg71
g846
sg64
(lp1510
g57
(g78
g59
NtRp1511
(dp1512
g62
(dp1513
g82
g83
ssg71
g1507
sg64
(lp1514
S'web2py_path'
p1515
asbag57
(g78
g59
NtRp1516
(dp1517
g62
(dp1518
g89
g90
ssg71
g1507
sg64
(lp1519
S':'
asbag57
(g78
g59
NtRp1520
(dp1521
g62
(dp1522
sg71
g1507
sg64
(lp1523
g57
(g58
g59
NtRp1524
(dp1525
g62
(dp1526
g70
I4
ssg71
g1520
sg64
(lp1527
g893
asbasbasbag57
(g73
g59
NtRp1528
(dp1529
g62
(dp1530
sg71
g846
sg64
(lp1531
g57
(g78
g59
NtRp1532
(dp1533
g62
(dp1534
g82
g83
ssg71
g1528
sg64
(lp1535
S'web2py_version'
p1536
asbag57
(g78
g59
NtRp1537
(dp1538
g62
(dp1539
g89
g90
ssg71
g1528
sg64
(lp1540
S':'
asbag57
(g78
g59
NtRp1541
(dp1542
g62
(dp1543
sg71
g1528
sg64
(lp1544
g57
(g58
g59
NtRp1545
(dp1546
g62
(dp1547
g70
I4
ssg71
g1541
sg64
(lp1548
g57
(g66
g59
NtRp1549
(dp1550
g62
(dp1551
g70
I3
ssg71
Nsg64
(lp1552
g57
(g73
g59
NtRp1553
(dp1554
g62
(dp1555
sg71
g1549
sg64
(lp1556
g57
(g78
g59
NtRp1557
(dp1558
g62
(dp1559
sg71
g1553
sg64
(lp1560
g57
(g58
g59
NtRp1561
(dp1562
g62
(dp1563
g70
I3
ssg71
g1557
sg64
(lp1564
S'1'
asbasbasbag57
(g73
g59
NtRp1565
(dp1566
g62
(dp1567
sg71
g1549
sg64
(lp1568
g57
(g78
g59
NtRp1569
(dp1570
g62
(dp1571
sg71
g1565
sg64
(lp1572
g57
(g58
g59
NtRp1573
(dp1574
g62
(dp1575
g70
I3
ssg71
g1569
sg64
(lp1576
S'99'
p1577
asbasbasbag57
(g73
g59
NtRp1578
(dp1579
g62
(dp1580
sg71
g1549
sg64
(lp1581
g57
(g78
g59
NtRp1582
(dp1583
g62
(dp1584
sg71
g1578
sg64
(lp1585
g57
(g58
g59
NtRp1586
(dp1587
g62
(dp1588
g70
I3
ssg71
g1582
sg64
(lp1589
S'7'
asbasbasbag57
(g73
g59
NtRp1590
(dp1591
g62
(dp1592
sg71
g1549
sg64
(lp1593
g57
(g78
g59
NtRp1594
(dp1595
g62
(dp1596
sg71
g1590
sg64
(lp1597
g57
(g58
g59
NtRp1598
(dp1599
g62
(dp1600
g70
I3
ssg71
g1594
sg64
(lp1601
S'datetime.datetime(2012, 3, 4, 22, 12, 8)'
p1602
asbasbasbag57
(g73
g59
NtRp1603
(dp1604
g62
(dp1605
sg71
g1549
sg64
(lp1606
g57
(g78
g59
NtRp1607
(dp1608
g62
(dp1609
sg71
g1603
sg64
(lp1610
g57
(g58
g59
NtRp1611
(dp1612
g62
(dp1613
g70
I3
ssg71
g1607
sg64
(lp1614
S'stable'
p1615
asbasbasbasbasbasbasbag57
(g73
g59
NtRp1616
(dp1617
g62
(dp1618
sg71
g846
sg64
(lp1619
g57
(g78
g59
NtRp1620
(dp1621
g62
(dp1622
g82
g83
ssg71
g1616
sg64
(lp1623
S'wsgi_errors'
p1624
asbag57
(g78
g59
NtRp1625
(dp1626
g62
(dp1627
g89
g90
ssg71
g1616
sg64
(lp1628
S':'
asbag57
(g78
g59
NtRp1629
(dp1630
g62
(dp1631
sg71
g1616
sg64
(lp1632
g57
(g58
g59
NtRp1633
(dp1634
g62
(dp1635
g70
I4
ssg71
g1629
sg64
(lp1636
S"<open file '<stderr>', mode 'w' at 0x7f82c0a93270>"
p1637
asbasbasbag57
(g73
g59
NtRp1638
(dp1639
g62
(dp1640
sg71
g846
sg64
(lp1641
g57
(g78
g59
NtRp1642
(dp1643
g62
(dp1644
g82
g83
ssg71
g1638
sg64
(lp1645
S'wsgi_file_wrapper'
p1646
asbag57
(g78
g59
NtRp1647
(dp1648
g62
(dp1649
g89
g90
ssg71
g1638
sg64
(lp1650
S':'
asbag57
(g78
g59
NtRp1651
(dp1652
g62
(dp1653
sg71
g1638
sg64
(lp1654
g57
(g58
g59
NtRp1655
(dp1656
g62
(dp1657
g70
I4
ssg71
g1651
sg64
(lp1658
S'<class wsgiref.util.FileWrapper at 0x2436870>'
p1659
asbasbasbag57
(g73
g59
NtRp1660
(dp1661
g62
(dp1662
sg71
g846
sg64
(lp1663
g57
(g78
g59
NtRp1664
(dp1665
g62
(dp1666
g82
g83
ssg71
g1660
sg64
(lp1667
S'wsgi_input'
p1668
asbag57
(g78
g59
NtRp1669
(dp1670
g62
(dp1671
g89
g90
ssg71
g1660
sg64
(lp1672
S':'
asbag57
(g78
g59
NtRp1673
(dp1674
g62
(dp1675
sg71
g1660
sg64
(lp1676
g57
(g58
g59
NtRp1677
(dp1678
g62
(dp1679
g70
I4
ssg71
g1673
sg64
(lp1680
S'<socket._fileobject object at 0x2f087d0>'
p1681
asbasbasbag57
(g73
g59
NtRp1682
(dp1683
g62
(dp1684
sg71
g846
sg64
(lp1685
g57
(g78
g59
NtRp1686
(dp1687
g62
(dp1688
g82
g83
ssg71
g1682
sg64
(lp1689
S'wsgi_multiprocess'
p1690
asbag57
(g78
g59
NtRp1691
(dp1692
g62
(dp1693
g89
g90
ssg71
g1682
sg64
(lp1694
S':'
asbag57
(g78
g59
NtRp1695
(dp1696
g62
(dp1697
sg71
g1682
sg64
(lp1698
g57
(g58
g59
NtRp1699
(dp1700
g62
(dp1701
g70
I4
ssg71
g1695
sg64
(lp1702
g100
asbasbasbag57
(g73
g59
NtRp1703
(dp1704
g62
(dp1705
sg71
g846
sg64
(lp1706
g57
(g78
g59
NtRp1707
(dp1708
g62
(dp1709
g82
g83
ssg71
g1703
sg64
(lp1710
S'wsgi_multithread'
p1711
asbag57
(g78
g59
NtRp1712
(dp1713
g62
(dp1714
g89
g90
ssg71
g1703
sg64
(lp1715
S':'
asbag57
(g78
g59
NtRp1716
(dp1717
g62
(dp1718
sg71
g1703
sg64
(lp1719
g57
(g58
g59
NtRp1720
(dp1721
g62
(dp1722
g70
I4
ssg71
g1716
sg64
(lp1723
S'True'
p1724
asbasbasbag57
(g73
g59
NtRp1725
(dp1726
g62
(dp1727
sg71
g846
sg64
(lp1728
g57
(g78
g59
NtRp1729
(dp1730
g62
(dp1731
g82
g83
ssg71
g1725
sg64
(lp1732
S'wsgi_run_once'
p1733
asbag57
(g78
g59
NtRp1734
(dp1735
g62
(dp1736
g89
g90
ssg71
g1725
sg64
(lp1737
S':'
asbag57
(g78
g59
NtRp1738
(dp1739
g62
(dp1740
sg71
g1725
sg64
(lp1741
g57
(g58
g59
NtRp1742
(dp1743
g62
(dp1744
g70
I4
ssg71
g1738
sg64
(lp1745
g100
asbasbasbag57
(g73
g59
NtRp1746
(dp1747
g62
(dp1748
sg71
g846
sg64
(lp1749
g57
(g78
g59
NtRp1750
(dp1751
g62
(dp1752
g82
g83
ssg71
g1746
sg64
(lp1753
S'wsgi_url_scheme'
p1754
asbag57
(g78
g59
NtRp1755
(dp1756
g62
(dp1757
g89
g90
ssg71
g1746
sg64
(lp1758
S':'
asbag57
(g78
g59
NtRp1759
(dp1760
g62
(dp1761
sg71
g1746
sg64
(lp1762
g57
(g58
g59
NtRp1763
(dp1764
g62
(dp1765
g70
I4
ssg71
g1759
sg64
(lp1766
S'http'
p1767
asbasbasbag57
(g73
g59
NtRp1768
(dp1769
g62
(dp1770
sg71
g846
sg64
(lp1771
g57
(g78
g59
NtRp1772
(dp1773
g62
(dp1774
g82
g83
ssg71
g1768
sg64
(lp1775
S'wsgi_version'
p1776
asbag57
(g78
g59
NtRp1777
(dp1778
g62
(dp1779
g89
g90
ssg71
g1768
sg64
(lp1780
S':'
asbag57
(g78
g59
NtRp1781
(dp1782
g62
(dp1783
sg71
g1768
sg64
(lp1784
g57
(g58
g59
NtRp1785
(dp1786
g62
(dp1787
g70
I4
ssg71
g1781
sg64
(lp1788
g57
(g66
g59
NtRp1789
(dp1790
g62
(dp1791
g70
I3
ssg71
Nsg64
(lp1792
g57
(g73
g59
NtRp1793
(dp1794
g62
(dp1795
sg71
g1789
sg64
(lp1796
g57
(g78
g59
NtRp1797
(dp1798
g62
(dp1799
sg71
g1793
sg64
(lp1800
g57
(g58
g59
NtRp1801
(dp1802
g62
(dp1803
g70
I3
ssg71
g1797
sg64
(lp1804
S'1'
asbasbasbag57
(g73
g59
NtRp1805
(dp1806
g62
(dp1807
sg71
g1789
sg64
(lp1808
g57
(g78
g59
NtRp1809
(dp1810
g62
(dp1811
sg71
g1805
sg64
(lp1812
g57
(g58
g59
NtRp1813
(dp1814
g62
(dp1815
g70
I3
ssg71
g1809
sg64
(lp1816
S'0'
asbasbasbasbasbasbasbasbasbasbasbag57
(g73
g59
NtRp1817
(dp1818
g62
(dp1819
sg71
g67
sg64
(lp1820
g57
(g78
g59
NtRp1821
(dp1822
g62
(dp1823
g82
g83
ssg71
g1817
sg64
(lp1824
S'extension'
p1825
asbag57
(g78
g59
NtRp1826
(dp1827
g62
(dp1828
g89
g90
ssg71
g1817
sg64
(lp1829
S':'
asbag57
(g78
g59
NtRp1830
(dp1831
g62
(dp1832
sg71
g1817
sg64
(lp1833
g57
(g58
g59
NtRp1834
(dp1835
g62
(dp1836
g70
I5
ssg71
g1830
sg64
(lp1837
S'html'
p1838
asbasbasbag57
(g73
g59
NtRp1839
(dp1840
g62
(dp1841
sg71
g67
sg64
(lp1842
g57
(g78
g59
NtRp1843
(dp1844
g62
(dp1845
g82
g83
ssg71
g1839
sg64
(lp1846
S'folder'
p1847
asbag57
(g78
g59
NtRp1848
(dp1849
g62
(dp1850
g89
g90
ssg71
g1839
sg64
(lp1851
S':'
asbag57
(g78
g59
NtRp1852
(dp1853
g62
(dp1854
sg71
g1839
sg64
(lp1855
g57
(g58
g59
NtRp1856
(dp1857
g62
(dp1858
g70
I5
ssg71
g1852
sg64
(lp1859
S'/home/fish/Desktop/web2py/applications/vsalad/'
p1860
asbasbasbag57
(g73
g59
NtRp1861
(dp1862
g62
(dp1863
sg71
g67
sg64
(lp1864
g57
(g78
g59
NtRp1865
(dp1866
g62
(dp1867
g82
g83
ssg71
g1861
sg64
(lp1868
S'function'
p1869
asbag57
(g78
g59
NtRp1870
(dp1871
g62
(dp1872
g89
g90
ssg71
g1861
sg64
(lp1873
S':'
asbag57
(g78
g59
NtRp1874
(dp1875
g62
(dp1876
sg71
g1861
sg64
(lp1877
g57
(g58
g59
NtRp1878
(dp1879
g62
(dp1880
g70
I5
ssg71
g1874
sg64
(lp1881
S'article'
p1882
asbasbasbag57
(g73
g59
NtRp1883
(dp1884
g62
(dp1885
sg71
g67
sg64
(lp1886
g57
(g78
g59
NtRp1887
(dp1888
g62
(dp1889
g82
g83
ssg71
g1883
sg64
(lp1890
S'get_vars'
p1891
asbag57
(g78
g59
NtRp1892
(dp1893
g62
(dp1894
g89
g90
ssg71
g1883
sg64
(lp1895
S':'
asbag57
(g78
g59
NtRp1896
(dp1897
g62
(dp1898
sg71
g1883
sg64
(lp1899
g57
(g58
g59
NtRp1900
(dp1901
g62
(dp1902
g70
I5
ssg71
g1896
sg64
(lp1903
g57
(g66
g59
NtRp1904
(dp1905
g62
(dp1906
g70
I4
ssg71
Nsg64
(lp1907
sbasbasbasbag57
(g73
g59
NtRp1908
(dp1909
g62
(dp1910
sg71
g67
sg64
(lp1911
g57
(g78
g59
NtRp1912
(dp1913
g62
(dp1914
g82
g83
ssg71
g1908
sg64
(lp1915
S'global_settings'
p1916
asbag57
(g78
g59
NtRp1917
(dp1918
g62
(dp1919
g89
g90
ssg71
g1908
sg64
(lp1920
S':'
asbag57
(g78
g59
NtRp1921
(dp1922
g62
(dp1923
sg71
g1908
sg64
(lp1924
g57
(g58
g59
NtRp1925
(dp1926
g62
(dp1927
g70
I5
ssg71
g1921
sg64
(lp1928
g57
(g66
g59
NtRp1929
(dp1930
g62
(dp1931
g70
I4
ssg71
Nsg64
(lp1932
g57
(g73
g59
NtRp1933
(dp1934
g62
(dp1935
sg71
g1929
sg64
(lp1936
g57
(g78
g59
NtRp1937
(dp1938
g62
(dp1939
g82
g83
ssg71
g1933
sg64
(lp1940
g858
asbag57
(g78
g59
NtRp1941
(dp1942
g62
(dp1943
g89
g90
ssg71
g1933
sg64
(lp1944
S':'
asbag57
(g78
g59
NtRp1945
(dp1946
g62
(dp1947
sg71
g1933
sg64
(lp1948
g57
(g58
g59
NtRp1949
(dp1950
g62
(dp1951
g70
I4
ssg71
g1945
sg64
(lp1952
S"set(['/home/fish/Desktop/web2py/applications/admin/', '/home/fish/Desktop/web2py/applications/welcome/', '/home/fish/Desktop/web2py/applications/vsalad/'])"
p1953
asbasbasbag57
(g73
g59
NtRp1954
(dp1955
g62
(dp1956
sg71
g1929
sg64
(lp1957
g57
(g78
g59
NtRp1958
(dp1959
g62
(dp1960
g82
g83
ssg71
g1954
sg64
(lp1961
g880
asbag57
(g78
g59
NtRp1962
(dp1963
g62
(dp1964
g89
g90
ssg71
g1954
sg64
(lp1965
S':'
asbag57
(g78
g59
NtRp1966
(dp1967
g62
(dp1968
sg71
g1954
sg64
(lp1969
g57
(g58
g59
NtRp1970
(dp1971
g62
(dp1972
g70
I4
ssg71
g1966
sg64
(lp1973
g893
asbasbasbag57
(g73
g59
NtRp1974
(dp1975
g62
(dp1976
sg71
g1929
sg64
(lp1977
g57
(g78
g59
NtRp1978
(dp1979
g62
(dp1980
g82
g83
ssg71
g1974
sg64
(lp1981
g902
asbag57
(g78
g59
NtRp1982
(dp1983
g62
(dp1984
g89
g90
ssg71
g1974
sg64
(lp1985
S':'
asbag57
(g78
g59
NtRp1986
(dp1987
g62
(dp1988
sg71
g1974
sg64
(lp1989
g57
(g58
g59
NtRp1990
(dp1991
g62
(dp1992
g70
I4
ssg71
g1986
sg64
(lp1993
g57
(g66
g59
NtRp1994
(dp1995
g62
(dp1996
g70
I3
ssg71
Nsg64
(lp1997
sbasbasbasbag57
(g73
g59
NtRp1998
(dp1999
g62
(dp2000
sg71
g1929
sg64
(lp2001
g57
(g78
g59
NtRp2002
(dp2003
g62
(dp2004
g82
g83
ssg71
g1998
sg64
(lp2005
g927
asbag57
(g78
g59
NtRp2006
(dp2007
g62
(dp2008
g89
g90
ssg71
g1998
sg64
(lp2009
S':'
asbag57
(g78
g59
NtRp2010
(dp2011
g62
(dp2012
sg71
g1998
sg64
(lp2013
g57
(g58
g59
NtRp2014
(dp2015
g62
(dp2016
g70
I4
ssg71
g2010
sg64
(lp2017
S"<Values at 0x255e518: {'verbose': False, 'ip': '127.0.0.1', 'shutdown_timeout': 5, 'taskbar': False, 'nocron': False, 'pid_filename': 'httpserver.pid', 'maxthreads': None, 'softcron': False, 'server_name': 'Master-Fish', 'bpython': False, 'nogui': False, 'port': 8000, 'extcron': False, 'debuglevel': 30, 'test': None, 'folder': '/home/fish/Desktop/web2py', 'config': '', 'import_models': False, 'winservice': '', 'shell': None, 'run': '', 'log_filename': 'httpserver.log', 'args': [''], 'socket_timeout': 5, 'ssl_ca_certificate': None, 'scheduler': None, 'profiler_filename': None, 'ssl_private_key': '', 'password': '<ask>', 'request_queue_size': 5, 'ssl_certificate': '', 'cronjob': False, 'numthreads': None, 'quiet': False, 'interfaces': None, 'minthreads': None, 'timeout': 10, 'plain': False, 'nobanner': False}>"
p2018
asbasbasbag57
(g73
g59
NtRp2019
(dp2020
g62
(dp2021
sg71
g1929
sg64
(lp2022
g57
(g78
g59
NtRp2023
(dp2024
g62
(dp2025
g82
g83
ssg71
g2019
sg64
(lp2026
g949
asbag57
(g78
g59
NtRp2027
(dp2028
g62
(dp2029
g89
g90
ssg71
g2019
sg64
(lp2030
S':'
asbag57
(g78
g59
NtRp2031
(dp2032
g62
(dp2033
sg71
g2019
sg64
(lp2034
g57
(g58
g59
NtRp2035
(dp2036
g62
(dp2037
g70
I4
ssg71
g2031
sg64
(lp2038
S'set([])'
p2039
asbasbasbag57
(g73
g59
NtRp2040
(dp2041
g62
(dp2042
sg71
g1929
sg64
(lp2043
g57
(g78
g59
NtRp2044
(dp2045
g62
(dp2046
g82
g83
ssg71
g2040
sg64
(lp2047
g971
asbag57
(g78
g59
NtRp2048
(dp2049
g62
(dp2050
g89
g90
ssg71
g2040
sg64
(lp2051
S':'
asbag57
(g78
g59
NtRp2052
(dp2053
g62
(dp2054
sg71
g2040
sg64
(lp2055
g57
(g58
g59
NtRp2056
(dp2057
g62
(dp2058
g70
I4
ssg71
g2052
sg64
(lp2059
g100
asbasbasbag57
(g73
g59
NtRp2060
(dp2061
g62
(dp2062
sg71
g1929
sg64
(lp2063
g57
(g78
g59
NtRp2064
(dp2065
g62
(dp2066
g82
g83
ssg71
g2060
sg64
(lp2067
g992
asbag57
(g78
g59
NtRp2068
(dp2069
g62
(dp2070
g89
g90
ssg71
g2060
sg64
(lp2071
S':'
asbag57
(g78
g59
NtRp2072
(dp2073
g62
(dp2074
sg71
g2060
sg64
(lp2075
g57
(g58
g59
NtRp2076
(dp2077
g62
(dp2078
g70
I4
ssg71
g2072
sg64
(lp2079
g1005
asbasbasbag57
(g73
g59
NtRp2080
(dp2081
g62
(dp2082
sg71
g1929
sg64
(lp2083
g57
(g78
g59
NtRp2084
(dp2085
g62
(dp2086
g82
g83
ssg71
g2080
sg64
(lp2087
g1234
asbag57
(g78
g59
NtRp2088
(dp2089
g62
(dp2090
g89
g90
ssg71
g2080
sg64
(lp2091
S':'
asbag57
(g78
g59
NtRp2092
(dp2093
g62
(dp2094
sg71
g2080
sg64
(lp2095
g57
(g58
g59
NtRp2096
(dp2097
g62
(dp2098
g70
I4
ssg71
g2092
sg64
(lp2099
g100
asbasbasbag57
(g73
g59
NtRp2100
(dp2101
g62
(dp2102
sg71
g1929
sg64
(lp2103
g57
(g78
g59
NtRp2104
(dp2105
g62
(dp2106
g82
g83
ssg71
g2100
sg64
(lp2107
g1255
asbag57
(g78
g59
NtRp2108
(dp2109
g62
(dp2110
g89
g90
ssg71
g2100
sg64
(lp2111
S':'
asbag57
(g78
g59
NtRp2112
(dp2113
g62
(dp2114
sg71
g2100
sg64
(lp2115
g57
(g58
g59
NtRp2116
(dp2117
g62
(dp2118
g70
I4
ssg71
g2112
sg64
(lp2119
g100
asbasbasbag57
(g73
g59
NtRp2120
(dp2121
g62
(dp2122
sg71
g1929
sg64
(lp2123
g57
(g78
g59
NtRp2124
(dp2125
g62
(dp2126
g82
g83
ssg71
g2120
sg64
(lp2127
g1493
asbag57
(g78
g59
NtRp2128
(dp2129
g62
(dp2130
g89
g90
ssg71
g2120
sg64
(lp2131
S':'
asbag57
(g78
g59
NtRp2132
(dp2133
g62
(dp2134
sg71
g2120
sg64
(lp2135
g57
(g58
g59
NtRp2136
(dp2137
g62
(dp2138
g70
I4
ssg71
g2132
sg64
(lp2139
g1506
asbasbasbag57
(g73
g59
NtRp2140
(dp2141
g62
(dp2142
sg71
g1929
sg64
(lp2143
g57
(g78
g59
NtRp2144
(dp2145
g62
(dp2146
g82
g83
ssg71
g2140
sg64
(lp2147
g1536
asbag57
(g78
g59
NtRp2148
(dp2149
g62
(dp2150
g89
g90
ssg71
g2140
sg64
(lp2151
S':'
asbag57
(g78
g59
NtRp2152
(dp2153
g62
(dp2154
sg71
g2140
sg64
(lp2155
g57
(g58
g59
NtRp2156
(dp2157
g62
(dp2158
g70
I4
ssg71
g2152
sg64
(lp2159
g57
(g66
g59
NtRp2160
(dp2161
g62
(dp2162
g70
I3
ssg71
Nsg64
(lp2163
g57
(g73
g59
NtRp2164
(dp2165
g62
(dp2166
sg71
g2160
sg64
(lp2167
g57
(g78
g59
NtRp2168
(dp2169
g62
(dp2170
sg71
g2164
sg64
(lp2171
g57
(g58
g59
NtRp2172
(dp2173
g62
(dp2174
g70
I3
ssg71
g2168
sg64
(lp2175
S'1'
asbasbasbag57
(g73
g59
NtRp2176
(dp2177
g62
(dp2178
sg71
g2160
sg64
(lp2179
g57
(g78
g59
NtRp2180
(dp2181
g62
(dp2182
sg71
g2176
sg64
(lp2183
g57
(g58
g59
NtRp2184
(dp2185
g62
(dp2186
g70
I3
ssg71
g2180
sg64
(lp2187
S'99'
p2188
asbasbasbag57
(g73
g59
NtRp2189
(dp2190
g62
(dp2191
sg71
g2160
sg64
(lp2192
g57
(g78
g59
NtRp2193
(dp2194
g62
(dp2195
sg71
g2189
sg64
(lp2196
g57
(g58
g59
NtRp2197
(dp2198
g62
(dp2199
g70
I3
ssg71
g2193
sg64
(lp2200
S'7'
asbasbasbag57
(g73
g59
NtRp2201
(dp2202
g62
(dp2203
sg71
g2160
sg64
(lp2204
g57
(g78
g59
NtRp2205
(dp2206
g62
(dp2207
sg71
g2201
sg64
(lp2208
g57
(g58
g59
NtRp2209
(dp2210
g62
(dp2211
g70
I3
ssg71
g2205
sg64
(lp2212
S'datetime.datetime(2012, 3, 4, 22, 12, 8)'
p2213
asbasbasbag57
(g73
g59
NtRp2214
(dp2215
g62
(dp2216
sg71
g2160
sg64
(lp2217
g57
(g78
g59
NtRp2218
(dp2219
g62
(dp2220
sg71
g2214
sg64
(lp2221
g57
(g58
g59
NtRp2222
(dp2223
g62
(dp2224
g70
I3
ssg71
g2218
sg64
(lp2225
g1615
asbasbasbasbasbasbasbasbasbasbasbag57
(g73
g59
NtRp2226
(dp2227
g62
(dp2228
sg71
g67
sg64
(lp2229
g57
(g78
g59
NtRp2230
(dp2231
g62
(dp2232
g82
g83
ssg71
g2226
sg64
(lp2233
S'is_https'
p2234
asbag57
(g78
g59
NtRp2235
(dp2236
g62
(dp2237
g89
g90
ssg71
g2226
sg64
(lp2238
S':'
asbag57
(g78
g59
NtRp2239
(dp2240
g62
(dp2241
sg71
g2226
sg64
(lp2242
g57
(g58
g59
NtRp2243
(dp2244
g62
(dp2245
g70
I5
ssg71
g2239
sg64
(lp2246
g100
asbasbasbag57
(g73
g59
NtRp2247
(dp2248
g62
(dp2249
sg71
g67
sg64
(lp2250
g57
(g78
g59
NtRp2251
(dp2252
g62
(dp2253
g82
g83
ssg71
g2247
sg64
(lp2254
S'is_local'
p2255
asbag57
(g78
g59
NtRp2256
(dp2257
g62
(dp2258
g89
g90
ssg71
g2247
sg64
(lp2259
S':'
asbag57
(g78
g59
NtRp2260
(dp2261
g62
(dp2262
sg71
g2247
sg64
(lp2263
g57
(g58
g59
NtRp2264
(dp2265
g62
(dp2266
g70
I5
ssg71
g2260
sg64
(lp2267
g1724
asbasbasbag57
(g73
g59
NtRp2268
(dp2269
g62
(dp2270
sg71
g67
sg64
(lp2271
g57
(g78
g59
NtRp2272
(dp2273
g62
(dp2274
g82
g83
ssg71
g2268
sg64
(lp2275
S'is_restful'
p2276
asbag57
(g78
g59
NtRp2277
(dp2278
g62
(dp2279
g89
g90
ssg71
g2268
sg64
(lp2280
S':'
asbag57
(g78
g59
NtRp2281
(dp2282
g62
(dp2283
sg71
g2268
sg64
(lp2284
g57
(g58
g59
NtRp2285
(dp2286
g62
(dp2287
g70
I5
ssg71
g2281
sg64
(lp2288
g100
asbasbasbag57
(g73
g59
NtRp2289
(dp2290
g62
(dp2291
sg71
g67
sg64
(lp2292
g57
(g78
g59
NtRp2293
(dp2294
g62
(dp2295
g82
g83
ssg71
g2289
sg64
(lp2296
S'now'
p2297
asbag57
(g78
g59
NtRp2298
(dp2299
g62
(dp2300
g89
g90
ssg71
g2289
sg64
(lp2301
S':'
asbag57
(g78
g59
NtRp2302
(dp2303
g62
(dp2304
sg71
g2289
sg64
(lp2305
g57
(g58
g59
NtRp2306
(dp2307
g62
(dp2308
g70
I5
ssg71
g2302
sg64
(lp2309
S'datetime.datetime(2012, 4, 19, 3, 48, 57, 370014)'
p2310
asbasbasbag57
(g73
g59
NtRp2311
(dp2312
g62
(dp2313
sg71
g67
sg64
(lp2314
g57
(g78
g59
NtRp2315
(dp2316
g62
(dp2317
g82
g83
ssg71
g2311
sg64
(lp2318
S'post_vars'
p2319
asbag57
(g78
g59
NtRp2320
(dp2321
g62
(dp2322
g89
g90
ssg71
g2311
sg64
(lp2323
S':'
asbag57
(g78
g59
NtRp2324
(dp2325
g62
(dp2326
sg71
g2311
sg64
(lp2327
g57
(g58
g59
NtRp2328
(dp2329
g62
(dp2330
g70
I5
ssg71
g2324
sg64
(lp2331
g57
(g66
g59
NtRp2332
(dp2333
g62
(dp2334
g70
I4
ssg71
Nsg64
(lp2335
sbasbasbasbag57
(g73
g59
NtRp2336
(dp2337
g62
(dp2338
sg71
g67
sg64
(lp2339
g57
(g78
g59
NtRp2340
(dp2341
g62
(dp2342
g82
g83
ssg71
g2336
sg64
(lp2343
S'raw_args'
p2344
asbag57
(g78
g59
NtRp2345
(dp2346
g62
(dp2347
g89
g90
ssg71
g2336
sg64
(lp2348
S':'
asbag57
(g78
g59
NtRp2349
(dp2350
g62
(dp2351
sg71
g2336
sg64
(lp2352
g57
(g58
g59
NtRp2353
(dp2354
g62
(dp2355
g70
I5
ssg71
g2349
sg64
(lp2356
S'4//'
p2357
asbasbasbag57
(g73
g59
NtRp2358
(dp2359
g62
(dp2360
sg71
g67
sg64
(lp2361
g57
(g78
g59
NtRp2362
(dp2363
g62
(dp2364
g82
g83
ssg71
g2358
sg64
(lp2365
S'url'
p2366
asbag57
(g78
g59
NtRp2367
(dp2368
g62
(dp2369
g89
g90
ssg71
g2358
sg64
(lp2370
S':'
asbag57
(g78
g59
NtRp2371
(dp2372
g62
(dp2373
sg71
g2358
sg64
(lp2374
g57
(g58
g59
NtRp2375
(dp2376
g62
(dp2377
g70
I5
ssg71
g2371
sg64
(lp2378
S'/vsalad/default/article/4//'
p2379
asbasbasbag57
(g73
g59
NtRp2380
(dp2381
g62
(dp2382
sg71
g67
sg64
(lp2383
g57
(g78
g59
NtRp2384
(dp2385
g62
(dp2386
g82
g83
ssg71
g2380
sg64
(lp2387
S'utcnow'
p2388
asbag57
(g78
g59
NtRp2389
(dp2390
g62
(dp2391
g89
g90
ssg71
g2380
sg64
(lp2392
S':'
asbag57
(g78
g59
NtRp2393
(dp2394
g62
(dp2395
sg71
g2380
sg64
(lp2396
g57
(g58
g59
NtRp2397
(dp2398
g62
(dp2399
g70
I5
ssg71
g2393
sg64
(lp2400
S'datetime.datetime(2012, 4, 18, 23, 48, 57, 370043)'
p2401
asbasbasbag57
(g73
g59
NtRp2402
(dp2403
g62
(dp2404
sg71
g67
sg64
(lp2405
g57
(g78
g59
NtRp2406
(dp2407
g62
(dp2408
g82
g83
ssg71
g2402
sg64
(lp2409
S'uuid'
p2410
asbag57
(g78
g59
NtRp2411
(dp2412
g62
(dp2413
g89
g90
ssg71
g2402
sg64
(lp2414
S':'
asbag57
(g78
g59
NtRp2415
(dp2416
g62
(dp2417
sg71
g2402
sg64
(lp2418
g57
(g58
g59
NtRp2419
(dp2420
g62
(dp2421
g70
I5
ssg71
g2415
sg64
(lp2422
S'vsalad/127.0.0.1.2012-04-19.03-48-57.02b17e51-d4b8-4ad7-828b-3a225d3bd070'
p2423
asbasbasbag57
(g73
g59
NtRp2424
(dp2425
g62
(dp2426
sg71
g67
sg64
(lp2427
g57
(g78
g59
NtRp2428
(dp2429
g62
(dp2430
g82
g83
ssg71
g2424
sg64
(lp2431
S'vars'
p2432
asbag57
(g78
g59
NtRp2433
(dp2434
g62
(dp2435
g89
g90
ssg71
g2424
sg64
(lp2436
S':'
asbag57
(g78
g59
NtRp2437
(dp2438
g62
(dp2439
sg71
g2424
sg64
(lp2440
g57
(g58
g59
NtRp2441
(dp2442
g62
(dp2443
g70
I5
ssg71
g2437
sg64
(lp2444
g57
(g66
g59
NtRp2445
(dp2446
g62
(dp2447
g70
I4
ssg71
Nsg64
(lp2448
sbasbasbasbag57
(g73
g59
NtRp2449
(dp2450
g62
(dp2451
sg71
g67
sg64
(lp2452
g57
(g78
g59
NtRp2453
(dp2454
g62
(dp2455
g82
g83
ssg71
g2449
sg64
(lp2456
S'wsgi'
p2457
asbag57
(g78
g59
NtRp2458
(dp2459
g62
(dp2460
g89
g90
ssg71
g2449
sg64
(lp2461
S':'
asbag57
(g78
g59
NtRp2462
(dp2463
g62
(dp2464
sg71
g2449
sg64
(lp2465
g57
(g58
g59
NtRp2466
(dp2467
g62
(dp2468
g70
I5
ssg71
g2462
sg64
(lp2469
g57
(g66
g59
NtRp2470
(dp2471
g62
(dp2472
g70
I4
ssg71
Nsg64
(lp2473
g57
(g73
g59
NtRp2474
(dp2475
g62
(dp2476
sg71
g2470
sg64
(lp2477
g57
(g78
g59
NtRp2478
(dp2479
g62
(dp2480
g82
g83
ssg71
g2474
sg64
(lp2481
S'environ'
p2482
asbag57
(g78
g59
NtRp2483
(dp2484
g62
(dp2485
g89
g90
ssg71
g2474
sg64
(lp2486
S':'
asbag57
(g78
g59
NtRp2487
(dp2488
g62
(dp2489
sg71
g2474
sg64
(lp2490
g57
(g58
g59
NtRp2491
(dp2492
g62
(dp2493
g70
I4
ssg71
g2487
sg64
(lp2494
g57
(g66
g59
NtRp2495
(dp2496
g62
(dp2497
g70
I3
ssg71
Nsg64
(lp2498
g57
(g73
g59
NtRp2499
(dp2500
g62
(dp2501
sg71
g2495
sg64
(lp2502
g57
(g78
g59
NtRp2503
(dp2504
g62
(dp2505
g82
g83
ssg71
g2499
sg64
(lp2506
S'HTTP_ACCEPT'
p2507
asbag57
(g78
g59
NtRp2508
(dp2509
g62
(dp2510
g89
g90
ssg71
g2499
sg64
(lp2511
S':'
asbag57
(g78
g59
NtRp2512
(dp2513
g62
(dp2514
sg71
g2499
sg64
(lp2515
g57
(g58
g59
NtRp2516
(dp2517
g62
(dp2518
g70
I3
ssg71
g2512
sg64
(lp2519
g1027
asbasbasbag57
(g73
g59
NtRp2520
(dp2521
g62
(dp2522
sg71
g2495
sg64
(lp2523
g57
(g78
g59
NtRp2524
(dp2525
g62
(dp2526
g82
g83
ssg71
g2520
sg64
(lp2527
S'HTTP_ACCEPT_CHARSET'
p2528
asbag57
(g78
g59
NtRp2529
(dp2530
g62
(dp2531
g89
g90
ssg71
g2520
sg64
(lp2532
S':'
asbag57
(g78
g59
NtRp2533
(dp2534
g62
(dp2535
sg71
g2520
sg64
(lp2536
g57
(g58
g59
NtRp2537
(dp2538
g62
(dp2539
g70
I3
ssg71
g2533
sg64
(lp2540
g1049
asbasbasbag57
(g73
g59
NtRp2541
(dp2542
g62
(dp2543
sg71
g2495
sg64
(lp2544
g57
(g78
g59
NtRp2545
(dp2546
g62
(dp2547
g82
g83
ssg71
g2541
sg64
(lp2548
S'HTTP_ACCEPT_ENCODING'
p2549
asbag57
(g78
g59
NtRp2550
(dp2551
g62
(dp2552
g89
g90
ssg71
g2541
sg64
(lp2553
S':'
asbag57
(g78
g59
NtRp2554
(dp2555
g62
(dp2556
sg71
g2541
sg64
(lp2557
g57
(g58
g59
NtRp2558
(dp2559
g62
(dp2560
g70
I3
ssg71
g2554
sg64
(lp2561
g1071
asbasbasbag57
(g73
g59
NtRp2562
(dp2563
g62
(dp2564
sg71
g2495
sg64
(lp2565
g57
(g78
g59
NtRp2566
(dp2567
g62
(dp2568
g82
g83
ssg71
g2562
sg64
(lp2569
S'HTTP_ACCEPT_LANGUAGE'
p2570
asbag57
(g78
g59
NtRp2571
(dp2572
g62
(dp2573
g89
g90
ssg71
g2562
sg64
(lp2574
S':'
asbag57
(g78
g59
NtRp2575
(dp2576
g62
(dp2577
sg71
g2562
sg64
(lp2578
g57
(g58
g59
NtRp2579
(dp2580
g62
(dp2581
g70
I3
ssg71
g2575
sg64
(lp2582
g1093
asbasbasbag57
(g73
g59
NtRp2583
(dp2584
g62
(dp2585
sg71
g2495
sg64
(lp2586
g57
(g78
g59
NtRp2587
(dp2588
g62
(dp2589
g82
g83
ssg71
g2583
sg64
(lp2590
S'HTTP_CACHE_CONTROL'
p2591
asbag57
(g78
g59
NtRp2592
(dp2593
g62
(dp2594
g89
g90
ssg71
g2583
sg64
(lp2595
S':'
asbag57
(g78
g59
NtRp2596
(dp2597
g62
(dp2598
sg71
g2583
sg64
(lp2599
g57
(g58
g59
NtRp2600
(dp2601
g62
(dp2602
g70
I3
ssg71
g2596
sg64
(lp2603
g1115
asbasbasbag57
(g73
g59
NtRp2604
(dp2605
g62
(dp2606
sg71
g2495
sg64
(lp2607
g57
(g78
g59
NtRp2608
(dp2609
g62
(dp2610
g82
g83
ssg71
g2604
sg64
(lp2611
S'HTTP_CONNECTION'
p2612
asbag57
(g78
g59
NtRp2613
(dp2614
g62
(dp2615
g89
g90
ssg71
g2604
sg64
(lp2616
S':'
asbag57
(g78
g59
NtRp2617
(dp2618
g62
(dp2619
sg71
g2604
sg64
(lp2620
g57
(g58
g59
NtRp2621
(dp2622
g62
(dp2623
g70
I3
ssg71
g2617
sg64
(lp2624
g1137
asbasbasbag57
(g73
g59
NtRp2625
(dp2626
g62
(dp2627
sg71
g2495
sg64
(lp2628
g57
(g78
g59
NtRp2629
(dp2630
g62
(dp2631
g82
g83
ssg71
g2625
sg64
(lp2632
S'HTTP_COOKIE'
p2633
asbag57
(g78
g59
NtRp2634
(dp2635
g62
(dp2636
g89
g90
ssg71
g2625
sg64
(lp2637
S':'
asbag57
(g78
g59
NtRp2638
(dp2639
g62
(dp2640
sg71
g2625
sg64
(lp2641
g57
(g58
g59
NtRp2642
(dp2643
g62
(dp2644
g70
I3
ssg71
g2638
sg64
(lp2645
g1159
asbasbasbag57
(g73
g59
NtRp2646
(dp2647
g62
(dp2648
sg71
g2495
sg64
(lp2649
g57
(g78
g59
NtRp2650
(dp2651
g62
(dp2652
g82
g83
ssg71
g2646
sg64
(lp2653
S'HTTP_HOST'
p2654
asbag57
(g78
g59
NtRp2655
(dp2656
g62
(dp2657
g89
g90
ssg71
g2646
sg64
(lp2658
S':'
asbag57
(g78
g59
NtRp2659
(dp2660
g62
(dp2661
sg71
g2646
sg64
(lp2662
g57
(g58
g59
NtRp2663
(dp2664
g62
(dp2665
g70
I3
ssg71
g2659
sg64
(lp2666
g1181
asbasbasbag57
(g73
g59
NtRp2667
(dp2668
g62
(dp2669
sg71
g2495
sg64
(lp2670
g57
(g78
g59
NtRp2671
(dp2672
g62
(dp2673
g82
g83
ssg71
g2667
sg64
(lp2674
S'HTTP_REFERER'
p2675
asbag57
(g78
g59
NtRp2676
(dp2677
g62
(dp2678
g89
g90
ssg71
g2667
sg64
(lp2679
S':'
asbag57
(g78
g59
NtRp2680
(dp2681
g62
(dp2682
sg71
g2667
sg64
(lp2683
g57
(g58
g59
NtRp2684
(dp2685
g62
(dp2686
g70
I3
ssg71
g2680
sg64
(lp2687
g1203
asbasbasbag57
(g73
g59
NtRp2688
(dp2689
g62
(dp2690
sg71
g2495
sg64
(lp2691
g57
(g78
g59
NtRp2692
(dp2693
g62
(dp2694
g82
g83
ssg71
g2688
sg64
(lp2695
S'HTTP_USER_AGENT'
p2696
asbag57
(g78
g59
NtRp2697
(dp2698
g62
(dp2699
g89
g90
ssg71
g2688
sg64
(lp2700
S':'
asbag57
(g78
g59
NtRp2701
(dp2702
g62
(dp2703
sg71
g2688
sg64
(lp2704
g57
(g58
g59
NtRp2705
(dp2706
g62
(dp2707
g70
I3
ssg71
g2701
sg64
(lp2708
g1225
asbasbasbag57
(g73
g59
NtRp2709
(dp2710
g62
(dp2711
sg71
g2495
sg64
(lp2712
g57
(g78
g59
NtRp2713
(dp2714
g62
(dp2715
g82
g83
ssg71
g2709
sg64
(lp2716
S'PATH_INFO'
p2717
asbag57
(g78
g59
NtRp2718
(dp2719
g62
(dp2720
g89
g90
ssg71
g2709
sg64
(lp2721
S':'
asbag57
(g78
g59
NtRp2722
(dp2723
g62
(dp2724
sg71
g2709
sg64
(lp2725
g57
(g58
g59
NtRp2726
(dp2727
g62
(dp2728
g70
I3
ssg71
g2722
sg64
(lp2729
g1289
asbasbasbag57
(g73
g59
NtRp2730
(dp2731
g62
(dp2732
sg71
g2495
sg64
(lp2733
g57
(g78
g59
NtRp2734
(dp2735
g62
(dp2736
g82
g83
ssg71
g2730
sg64
(lp2737
S'QUERY_STRING'
p2738
asbag57
(g78
g59
NtRp2739
(dp2740
g62
(dp2741
g89
g90
ssg71
g2730
sg64
(lp2742
S':'
asbag57
(g78
g59
NtRp2743
(dp2744
g62
(dp2745
sg71
g2730
sg64
(lp2746
g57
(g58
g59
NtRp2747
(dp2748
g62
(dp2749
g70
I3
ssg71
g2743
sg64
(lp2750
S''
asbasbasbag57
(g73
g59
NtRp2751
(dp2752
g62
(dp2753
sg71
g2495
sg64
(lp2754
g57
(g78
g59
NtRp2755
(dp2756
g62
(dp2757
g82
g83
ssg71
g2751
sg64
(lp2758
S'REMOTE_ADDR'
p2759
asbag57
(g78
g59
NtRp2760
(dp2761
g62
(dp2762
g89
g90
ssg71
g2751
sg64
(lp2763
S':'
asbag57
(g78
g59
NtRp2764
(dp2765
g62
(dp2766
sg71
g2751
sg64
(lp2767
g57
(g58
g59
NtRp2768
(dp2769
g62
(dp2770
g70
I3
ssg71
g2764
sg64
(lp2771
g214
asbasbasbag57
(g73
g59
NtRp2772
(dp2773
g62
(dp2774
sg71
g2495
sg64
(lp2775
g57
(g78
g59
NtRp2776
(dp2777
g62
(dp2778
g82
g83
ssg71
g2772
sg64
(lp2779
S'REMOTE_PORT'
p2780
asbag57
(g78
g59
NtRp2781
(dp2782
g62
(dp2783
g89
g90
ssg71
g2772
sg64
(lp2784
S':'
asbag57
(g78
g59
NtRp2785
(dp2786
g62
(dp2787
sg71
g2772
sg64
(lp2788
g57
(g58
g59
NtRp2789
(dp2790
g62
(dp2791
g70
I3
ssg71
g2785
sg64
(lp2792
g1353
asbasbasbag57
(g73
g59
NtRp2793
(dp2794
g62
(dp2795
sg71
g2495
sg64
(lp2796
g57
(g78
g59
NtRp2797
(dp2798
g62
(dp2799
g82
g83
ssg71
g2793
sg64
(lp2800
S'REQUEST_METHOD'
p2801
asbag57
(g78
g59
NtRp2802
(dp2803
g62
(dp2804
g89
g90
ssg71
g2793
sg64
(lp2805
S':'
asbag57
(g78
g59
NtRp2806
(dp2807
g62
(dp2808
sg71
g2793
sg64
(lp2809
g57
(g58
g59
NtRp2810
(dp2811
g62
(dp2812
g70
I3
ssg71
g2806
sg64
(lp2813
g1375
asbasbasbag57
(g73
g59
NtRp2814
(dp2815
g62
(dp2816
sg71
g2495
sg64
(lp2817
g57
(g78
g59
NtRp2818
(dp2819
g62
(dp2820
g82
g83
ssg71
g2814
sg64
(lp2821
S'SCRIPT_NAME'
p2822
asbag57
(g78
g59
NtRp2823
(dp2824
g62
(dp2825
g89
g90
ssg71
g2814
sg64
(lp2826
S':'
asbag57
(g78
g59
NtRp2827
(dp2828
g62
(dp2829
sg71
g2814
sg64
(lp2830
g57
(g58
g59
NtRp2831
(dp2832
g62
(dp2833
g70
I3
ssg71
g2827
sg64
(lp2834
S''
asbasbasbag57
(g73
g59
NtRp2835
(dp2836
g62
(dp2837
sg71
g2495
sg64
(lp2838
g57
(g78
g59
NtRp2839
(dp2840
g62
(dp2841
g82
g83
ssg71
g2835
sg64
(lp2842
S'SERVER_NAME'
p2843
asbag57
(g78
g59
NtRp2844
(dp2845
g62
(dp2846
g89
g90
ssg71
g2835
sg64
(lp2847
S':'
asbag57
(g78
g59
NtRp2848
(dp2849
g62
(dp2850
sg71
g2835
sg64
(lp2851
g57
(g58
g59
NtRp2852
(dp2853
g62
(dp2854
g70
I3
ssg71
g2848
sg64
(lp2855
g1418
asbasbasbag57
(g73
g59
NtRp2856
(dp2857
g62
(dp2858
sg71
g2495
sg64
(lp2859
g57
(g78
g59
NtRp2860
(dp2861
g62
(dp2862
g82
g83
ssg71
g2856
sg64
(lp2863
S'SERVER_PORT'
p2864
asbag57
(g78
g59
NtRp2865
(dp2866
g62
(dp2867
g89
g90
ssg71
g2856
sg64
(lp2868
S':'
asbag57
(g78
g59
NtRp2869
(dp2870
g62
(dp2871
sg71
g2856
sg64
(lp2872
g57
(g58
g59
NtRp2873
(dp2874
g62
(dp2875
g70
I3
ssg71
g2869
sg64
(lp2876
g1440
asbasbasbag57
(g73
g59
NtRp2877
(dp2878
g62
(dp2879
sg71
g2495
sg64
(lp2880
g57
(g78
g59
NtRp2881
(dp2882
g62
(dp2883
g82
g83
ssg71
g2877
sg64
(lp2884
S'SERVER_PROTOCOL'
p2885
asbag57
(g78
g59
NtRp2886
(dp2887
g62
(dp2888
g89
g90
ssg71
g2877
sg64
(lp2889
S':'
asbag57
(g78
g59
NtRp2890
(dp2891
g62
(dp2892
sg71
g2877
sg64
(lp2893
g57
(g58
g59
NtRp2894
(dp2895
g62
(dp2896
g70
I3
ssg71
g2890
sg64
(lp2897
g1462
asbasbasbag57
(g73
g59
NtRp2898
(dp2899
g62
(dp2900
sg71
g2495
sg64
(lp2901
g57
(g78
g59
NtRp2902
(dp2903
g62
(dp2904
g82
g83
ssg71
g2898
sg64
(lp2905
S'SERVER_SOFTWARE'
p2906
asbag57
(g78
g59
NtRp2907
(dp2908
g62
(dp2909
g89
g90
ssg71
g2898
sg64
(lp2910
S':'
asbag57
(g78
g59
NtRp2911
(dp2912
g62
(dp2913
sg71
g2898
sg64
(lp2914
g57
(g58
g59
NtRp2915
(dp2916
g62
(dp2917
g70
I3
ssg71
g2911
sg64
(lp2918
g1484
asbasbasbag57
(g73
g59
NtRp2919
(dp2920
g62
(dp2921
sg71
g2495
sg64
(lp2922
g57
(g78
g59
NtRp2923
(dp2924
g62
(dp2925
g82
g83
ssg71
g2919
sg64
(lp2926
S'wsgi.errors'
p2927
asbag57
(g78
g59
NtRp2928
(dp2929
g62
(dp2930
g89
g90
ssg71
g2919
sg64
(lp2931
S':'
asbag57
(g78
g59
NtRp2932
(dp2933
g62
(dp2934
sg71
g2919
sg64
(lp2935
g57
(g58
g59
NtRp2936
(dp2937
g62
(dp2938
g70
I3
ssg71
g2932
sg64
(lp2939
S"<open file '<stderr>', mode 'w' at 0x7f82c0a93270>"
p2940
asbasbasbag57
(g73
g59
NtRp2941
(dp2942
g62
(dp2943
sg71
g2495
sg64
(lp2944
g57
(g78
g59
NtRp2945
(dp2946
g62
(dp2947
g82
g83
ssg71
g2941
sg64
(lp2948
S'wsgi.file_wrapper'
p2949
asbag57
(g78
g59
NtRp2950
(dp2951
g62
(dp2952
g89
g90
ssg71
g2941
sg64
(lp2953
S':'
asbag57
(g78
g59
NtRp2954
(dp2955
g62
(dp2956
sg71
g2941
sg64
(lp2957
g57
(g58
g59
NtRp2958
(dp2959
g62
(dp2960
g70
I3
ssg71
g2954
sg64
(lp2961
S'<class wsgiref.util.FileWrapper at 0x2436870>'
p2962
asbasbasbag57
(g73
g59
NtRp2963
(dp2964
g62
(dp2965
sg71
g2495
sg64
(lp2966
g57
(g78
g59
NtRp2967
(dp2968
g62
(dp2969
g82
g83
ssg71
g2963
sg64
(lp2970
S'wsgi.input'
p2971
asbag57
(g78
g59
NtRp2972
(dp2973
g62
(dp2974
g89
g90
ssg71
g2963
sg64
(lp2975
S':'
asbag57
(g78
g59
NtRp2976
(dp2977
g62
(dp2978
sg71
g2963
sg64
(lp2979
g57
(g58
g59
NtRp2980
(dp2981
g62
(dp2982
g70
I3
ssg71
g2976
sg64
(lp2983
S'<cStringIO.StringO object at 0x34d2f10>'
p2984
asbasbasbag57
(g73
g59
NtRp2985
(dp2986
g62
(dp2987
sg71
g2495
sg64
(lp2988
g57
(g78
g59
NtRp2989
(dp2990
g62
(dp2991
g82
g83
ssg71
g2985
sg64
(lp2992
S'wsgi.multiprocess'
p2993
asbag57
(g78
g59
NtRp2994
(dp2995
g62
(dp2996
g89
g90
ssg71
g2985
sg64
(lp2997
S':'
asbag57
(g78
g59
NtRp2998
(dp2999
g62
(dp3000
sg71
g2985
sg64
(lp3001
g57
(g58
g59
NtRp3002
(dp3003
g62
(dp3004
g70
I3
ssg71
g2998
sg64
(lp3005
g100
asbasbasbag57
(g73
g59
NtRp3006
(dp3007
g62
(dp3008
sg71
g2495
sg64
(lp3009
g57
(g78
g59
NtRp3010
(dp3011
g62
(dp3012
g82
g83
ssg71
g3006
sg64
(lp3013
S'wsgi.multithread'
p3014
asbag57
(g78
g59
NtRp3015
(dp3016
g62
(dp3017
g89
g90
ssg71
g3006
sg64
(lp3018
S':'
asbag57
(g78
g59
NtRp3019
(dp3020
g62
(dp3021
sg71
g3006
sg64
(lp3022
g57
(g58
g59
NtRp3023
(dp3024
g62
(dp3025
g70
I3
ssg71
g3019
sg64
(lp3026
g1724
asbasbasbag57
(g73
g59
NtRp3027
(dp3028
g62
(dp3029
sg71
g2495
sg64
(lp3030
g57
(g78
g59
NtRp3031
(dp3032
g62
(dp3033
g82
g83
ssg71
g3027
sg64
(lp3034
S'wsgi.run_once'
p3035
asbag57
(g78
g59
NtRp3036
(dp3037
g62
(dp3038
g89
g90
ssg71
g3027
sg64
(lp3039
S':'
asbag57
(g78
g59
NtRp3040
(dp3041
g62
(dp3042
sg71
g3027
sg64
(lp3043
g57
(g58
g59
NtRp3044
(dp3045
g62
(dp3046
g70
I3
ssg71
g3040
sg64
(lp3047
g100
asbasbasbag57
(g73
g59
NtRp3048
(dp3049
g62
(dp3050
sg71
g2495
sg64
(lp3051
g57
(g78
g59
NtRp3052
(dp3053
g62
(dp3054
g82
g83
ssg71
g3048
sg64
(lp3055
S'wsgi.url_scheme'
p3056
asbag57
(g78
g59
NtRp3057
(dp3058
g62
(dp3059
g89
g90
ssg71
g3048
sg64
(lp3060
S':'
asbag57
(g78
g59
NtRp3061
(dp3062
g62
(dp3063
sg71
g3048
sg64
(lp3064
g57
(g58
g59
NtRp3065
(dp3066
g62
(dp3067
g70
I3
ssg71
g3061
sg64
(lp3068
g1767
asbasbasbag57
(g73
g59
NtRp3069
(dp3070
g62
(dp3071
sg71
g2495
sg64
(lp3072
g57
(g78
g59
NtRp3073
(dp3074
g62
(dp3075
g82
g83
ssg71
g3069
sg64
(lp3076
S'wsgi.version'
p3077
asbag57
(g78
g59
NtRp3078
(dp3079
g62
(dp3080
g89
g90
ssg71
g3069
sg64
(lp3081
S':'
asbag57
(g78
g59
NtRp3082
(dp3083
g62
(dp3084
sg71
g3069
sg64
(lp3085
g57
(g58
g59
NtRp3086
(dp3087
g62
(dp3088
g70
I3
ssg71
g3082
sg64
(lp3089
S'1'
asbasbasbasbasbasbasbasbasbasbasbasbasbsS'frames'
p3090
(lp3091
(dp3092
S'file'
p3093
S'/home/fish/Desktop/web2py/gluon/restricted.py'
p3094
sS'dump'
p3095
(dp3096
S'environment'
p3097
S"{'A': <class 'gluon.html.A'>, 'Auth': <class 'gluon.tools.Auth'>, 'B': <class 'gluon.html.B'>, 'BEAUTIFY': <class 'gluon.html.BEAUTIFY'>, 'BODY': <class 'gluon.html.BODY'>, 'BR': <class 'gluon.html.BR'>, 'BUTTON': <class 'gluon.html.BUTTON'>, 'CAT': <class 'gluon.html.CAT'>, 'CENTER': <class 'gluon.html.CENTER'>, 'CLEANUP': <class 'gluon.validators.CLEANUP'>, ...}"
p3098
sS'ccode'
p3099
S'<code object <module> at 0x322fbb0, file "/home/...tions/vsalad/views/default/article.html", line 1>'
p3100
ssS'lnum'
p3101
I205
sS'lines'
p3102
(dp3103
I200
S'    try:'
p3104
sI201
S'        if type(code) == types.CodeType:'
p3105
sI202
S'            ccode = code'
p3106
sI203
S'        else:'
p3107
sI204
S'            ccode = compile2(code,layer)'
p3108
sI205
S'        exec ccode in environment'
p3109
sI206
S'    except HTTP:'
p3110
sI207
S'        raise'
p3111
sI208
S'    except RestrictedError:'
p3112
sI209
S'        # do not encapsulate (obfuscate) the original RestrictedError'
p3113
ssS'call'
p3114
S'(code=\'response.write(\\\'<html lang="en">\\\\n<head>\\\\n    <s...ponse.write(\\\'\\\\n</body>\\\\n</html>\\\\n\\\', escape=False)\', environment={\'A\': <class \'gluon.html.A\'>, \'Auth\': <class \'gluon.tools.Auth\'>, \'B\': <class \'gluon.html.B\'>, \'BEAUTIFY\': <class \'gluon.html.BEAUTIFY\'>, \'BODY\': <class \'gluon.html.BODY\'>, \'BR\': <class \'gluon.html.BR\'>, \'BUTTON\': <class \'gluon.html.BUTTON\'>, \'CAT\': <class \'gluon.html.CAT\'>, \'CENTER\': <class \'gluon.html.CENTER\'>, \'CLEANUP\': <class \'gluon.validators.CLEANUP\'>, ...}, layer=\'/home/fish/Desktop/web2py/applications/vsalad/views/default/article.html\')'
p3115
sS'func'
p3116
S'restricted'
p3117
sa(dp3118
g3093
S'/home/fish/Desktop/web2py/applications/vsalad/views/default/article.html'
p3119
sg3095
(dp3120
sg3101
I17
sg3102
(dp3121
I8
S"response.write(URL('static','css/bootstrap.css'))"
p3122
sI9
S'response.write(\'" rel="stylesheet">\\n    <link href="\', escape=False)'
p3123
sI10
S"response.write(URL('static','css/bootstrap-responsive.css'))"
p3124
sI11
S'response.write(\'" rel="stylesheet">\\n\\n  \\n</head>\\n<body>\\n<div id="welcome-panel" class="hero-unit row">\\n            \\n\\n\\n        <div id="title">\\n                <h1 class="voodoo span">V&#3232;&#3232;doo {</h1> \\n                <a class="span" href=""><img src="\', escape=False)'
p3125
sI12
S"response.write(URL('static', 'images/vfish.jpg'))"
p3126
sI13
S'response.write(\'"/></a>\\n                 <h1 class="tuna span">} Tuna</h1>\\n       </div>\\n    </div>\\n\\n\\n\', escape=False)'
p3127
sI14
S'response.write(\'\\n<div id="content" class="row">\\n\', escape=False)'
p3128
sI15
S'if request.args(0):'
p3129
sI16
S'    response.write("\\n  <div id=\'article\'>\\n    <h1>", escape=False)'
p3130
sI17
S'    response.write(article.title)'
p3131
sI18
S'    response.write(" </h1>\\n    </div>\\n    <div id=\'user-text\'>\\n    <p>", escape=False)'
p3132
sI19
S'    response.write(article.content)'
p3133
sI20
S"    response.write('</p>\\n    </div>\\n', escape=False)"
p3134
sI21
S'    pass'
p3135
sI22
S"response.write('\\n</div>\\n', escape=False)"
p3136
sI23
S"response.write('\\n</body>\\n</html>\\n', escape=False)"
p3137
ssg3114
S'()'
p3138
sg3116
S'<module>'
p3139
sasS'pyver'
p3140
S'Python 2.7.2+: /usr/bin/python'
p3141
sS'session'
p3142
g57
(g58
g59
NtRp3143
(dp3144
g62
(dp3145
sg64
(lp3146
g57
(g66
g59
NtRp3147
(dp3148
g62
(dp3149
g70
I5
ssg71
Nsg64
(lp3150
g57
(g73
g59
NtRp3151
(dp3152
g62
(dp3153
sg71
g3147
sg64
(lp3154
g57
(g78
g59
NtRp3155
(dp3156
g62
(dp3157
g82
g83
ssg71
g3151
sg64
(lp3158
S'last_query'
p3159
asbag57
(g78
g59
NtRp3160
(dp3161
g62
(dp3162
g89
g90
ssg71
g3151
sg64
(lp3163
S':'
asbag57
(g78
g59
NtRp3164
(dp3165
g62
(dp3166
sg71
g3151
sg64
(lp3167
g57
(g58
g59
NtRp3168
(dp3169
g62
(dp3170
g70
I5
ssg71
g3164
sg64
(lp3171
S'db.article.id>0'
p3172
asbasbasbasbasbsS'etype'
p3173
S"<type 'exceptions.NameError'>"
p3174
sS'date'
p3175
S'Thu Apr 19 03:48:57 2012'
p3176
sS'response'
p3177
g57
(g58
g59
NtRp3178
(dp3179
g62
(dp3180
sg64
(lp3181
g57
(g66
g59
NtRp3182
(dp3183
g62
(dp3184
g70
I5
ssg71
Nsg64
(lp3185
g57
(g73
g59
NtRp3186
(dp3187
g62
(dp3188
sg71
g3182
sg64
(lp3189
g57
(g78
g59
NtRp3190
(dp3191
g62
(dp3192
g82
g83
ssg71
g3186
sg64
(lp3193
g179
asbag57
(g78
g59
NtRp3194
(dp3195
g62
(dp3196
g89
g90
ssg71
g3186
sg64
(lp3197
S':'
asbag57
(g78
g59
NtRp3198
(dp3199
g62
(dp3200
sg71
g3186
sg64
(lp3201
g57
(g58
g59
NtRp3202
(dp3203
g62
(dp3204
g70
I5
ssg71
g3198
sg64
(lp3205
S'<cStringIO.StringO object at 0x2b82500>'
p3206
asbasbasbag57
(g73
g59
NtRp3207
(dp3208
g62
(dp3209
sg71
g3182
sg64
(lp3210
g57
(g78
g59
NtRp3211
(dp3212
g62
(dp3213
g82
g83
ssg71
g3207
sg64
(lp3214
g245
asbag57
(g78
g59
NtRp3215
(dp3216
g62
(dp3217
g89
g90
ssg71
g3207
sg64
(lp3218
S':'
asbag57
(g78
g59
NtRp3219
(dp3220
g62
(dp3221
sg71
g3207
sg64
(lp3222
g57
(g58
g59
NtRp3223
(dp3224
g62
(dp3225
g70
I5
ssg71
g3219
sg64
(lp3226
g57
(g66
g59
NtRp3227
(dp3228
g62
(dp3229
g70
I4
ssg71
Nsg64
(lp3230
g57
(g73
g59
NtRp3231
(dp3232
g62
(dp3233
sg71
g3227
sg64
(lp3234
g57
(g78
g59
NtRp3235
(dp3236
g62
(dp3237
g82
g83
ssg71
g3231
sg64
(lp3238
S'session_id_vsalad'
p3239
asbag57
(g78
g59
NtRp3240
(dp3241
g62
(dp3242
g89
g90
ssg71
g3231
sg64
(lp3243
S':'
asbag57
(g78
g59
NtRp3244
(dp3245
g62
(dp3246
sg71
g3231
sg64
(lp3247
g57
(g58
g59
NtRp3248
(dp3249
g62
(dp3250
g70
I4
ssg71
g3244
sg64
(lp3251
g57
(g66
g59
NtRp3252
(dp3253
g62
(dp3254
g70
I3
ssg71
Nsg64
(lp3255
g57
(g73
g59
NtRp3256
(dp3257
g62
(dp3258
sg71
g3252
sg64
(lp3259
g57
(g78
g59
NtRp3260
(dp3261
g62
(dp3262
g82
g83
ssg71
g3256
sg64
(lp3263
g295
asbag57
(g78
g59
NtRp3264
(dp3265
g62
(dp3266
g89
g90
ssg71
g3256
sg64
(lp3267
S':'
asbag57
(g78
g59
NtRp3268
(dp3269
g62
(dp3270
sg71
g3256
sg64
(lp3271
g57
(g58
g59
NtRp3272
(dp3273
g62
(dp3274
g70
I3
ssg71
g3268
sg64
(lp3275
S''
asbasbasbag57
(g73
g59
NtRp3276
(dp3277
g62
(dp3278
sg71
g3252
sg64
(lp3279
g57
(g78
g59
NtRp3280
(dp3281
g62
(dp3282
g82
g83
ssg71
g3276
sg64
(lp3283
g316
asbag57
(g78
g59
NtRp3284
(dp3285
g62
(dp3286
g89
g90
ssg71
g3276
sg64
(lp3287
S':'
asbag57
(g78
g59
NtRp3288
(dp3289
g62
(dp3290
sg71
g3276
sg64
(lp3291
g57
(g58
g59
NtRp3292
(dp3293
g62
(dp3294
g70
I3
ssg71
g3288
sg64
(lp3295
S''
asbasbasbag57
(g73
g59
NtRp3296
(dp3297
g62
(dp3298
sg71
g3252
sg64
(lp3299
g57
(g78
g59
NtRp3300
(dp3301
g62
(dp3302
g82
g83
ssg71
g3296
sg64
(lp3303
g337
asbag57
(g78
g59
NtRp3304
(dp3305
g62
(dp3306
g89
g90
ssg71
g3296
sg64
(lp3307
S':'
asbag57
(g78
g59
NtRp3308
(dp3309
g62
(dp3310
sg71
g3296
sg64
(lp3311
g57
(g58
g59
NtRp3312
(dp3313
g62
(dp3314
g70
I3
ssg71
g3308
sg64
(lp3315
S''
asbasbasbag57
(g73
g59
NtRp3316
(dp3317
g62
(dp3318
sg71
g3252
sg64
(lp3319
g57
(g78
g59
NtRp3320
(dp3321
g62
(dp3322
g82
g83
ssg71
g3316
sg64
(lp3323
g358
asbag57
(g78
g59
NtRp3324
(dp3325
g62
(dp3326
g89
g90
ssg71
g3316
sg64
(lp3327
S':'
asbag57
(g78
g59
NtRp3328
(dp3329
g62
(dp3330
sg71
g3316
sg64
(lp3331
g57
(g58
g59
NtRp3332
(dp3333
g62
(dp3334
g70
I3
ssg71
g3328
sg64
(lp3335
S''
asbasbasbag57
(g73
g59
NtRp3336
(dp3337
g62
(dp3338
sg71
g3252
sg64
(lp3339
g57
(g78
g59
NtRp3340
(dp3341
g62
(dp3342
g82
g83
ssg71
g3336
sg64
(lp3343
g379
asbag57
(g78
g59
NtRp3344
(dp3345
g62
(dp3346
g89
g90
ssg71
g3336
sg64
(lp3347
S':'
asbag57
(g78
g59
NtRp3348
(dp3349
g62
(dp3350
sg71
g3336
sg64
(lp3351
g57
(g58
g59
NtRp3352
(dp3353
g62
(dp3354
g70
I3
ssg71
g3348
sg64
(lp3355
S''
asbasbasbag57
(g73
g59
NtRp3356
(dp3357
g62
(dp3358
sg71
g3252
sg64
(lp3359
g57
(g78
g59
NtRp3360
(dp3361
g62
(dp3362
g82
g83
ssg71
g3356
sg64
(lp3363
g400
asbag57
(g78
g59
NtRp3364
(dp3365
g62
(dp3366
g89
g90
ssg71
g3356
sg64
(lp3367
S':'
asbag57
(g78
g59
NtRp3368
(dp3369
g62
(dp3370
sg71
g3356
sg64
(lp3371
g57
(g58
g59
NtRp3372
(dp3373
g62
(dp3374
g70
I3
ssg71
g3368
sg64
(lp3375
S'/'
asbasbasbag57
(g73
g59
NtRp3376
(dp3377
g62
(dp3378
sg71
g3252
sg64
(lp3379
g57
(g78
g59
NtRp3380
(dp3381
g62
(dp3382
g82
g83
ssg71
g3376
sg64
(lp3383
g421
asbag57
(g78
g59
NtRp3384
(dp3385
g62
(dp3386
g89
g90
ssg71
g3376
sg64
(lp3387
S':'
asbag57
(g78
g59
NtRp3388
(dp3389
g62
(dp3390
sg71
g3376
sg64
(lp3391
g57
(g58
g59
NtRp3392
(dp3393
g62
(dp3394
g70
I3
ssg71
g3388
sg64
(lp3395
S''
asbasbasbag57
(g73
g59
NtRp3396
(dp3397
g62
(dp3398
sg71
g3252
sg64
(lp3399
g57
(g78
g59
NtRp3400
(dp3401
g62
(dp3402
g82
g83
ssg71
g3396
sg64
(lp3403
g442
asbag57
(g78
g59
NtRp3404
(dp3405
g62
(dp3406
g89
g90
ssg71
g3396
sg64
(lp3407
S':'
asbag57
(g78
g59
NtRp3408
(dp3409
g62
(dp3410
sg71
g3396
sg64
(lp3411
g57
(g58
g59
NtRp3412
(dp3413
g62
(dp3414
g70
I3
ssg71
g3408
sg64
(lp3415
S''
asbasbasbasbasbasbasbasbasbasbasbag57
(g73
g59
NtRp3416
(dp3417
g62
(dp3418
sg71
g3182
sg64
(lp3419
g57
(g78
g59
NtRp3420
(dp3421
g62
(dp3422
g82
g83
ssg71
g3416
sg64
(lp3423
S'delimiters'
p3424
asbag57
(g78
g59
NtRp3425
(dp3426
g62
(dp3427
g89
g90
ssg71
g3416
sg64
(lp3428
S':'
asbag57
(g78
g59
NtRp3429
(dp3430
g62
(dp3431
sg71
g3416
sg64
(lp3432
g57
(g58
g59
NtRp3433
(dp3434
g62
(dp3435
g70
I5
ssg71
g3429
sg64
(lp3436
g57
(g66
g59
NtRp3437
(dp3438
g62
(dp3439
g70
I4
ssg71
Nsg64
(lp3440
g57
(g73
g59
NtRp3441
(dp3442
g62
(dp3443
sg71
g3437
sg64
(lp3444
g57
(g78
g59
NtRp3445
(dp3446
g62
(dp3447
sg71
g3441
sg64
(lp3448
g57
(g58
g59
NtRp3449
(dp3450
g62
(dp3451
g70
I4
ssg71
g3445
sg64
(lp3452
S'{{'
p3453
asbasbasbag57
(g73
g59
NtRp3454
(dp3455
g62
(dp3456
sg71
g3437
sg64
(lp3457
g57
(g78
g59
NtRp3458
(dp3459
g62
(dp3460
sg71
g3454
sg64
(lp3461
g57
(g58
g59
NtRp3462
(dp3463
g62
(dp3464
g70
I4
ssg71
g3458
sg64
(lp3465
S'}}'
p3466
asbasbasbasbasbasbasbag57
(g73
g59
NtRp3467
(dp3468
g62
(dp3469
sg71
g3182
sg64
(lp3470
g57
(g78
g59
NtRp3471
(dp3472
g62
(dp3473
g82
g83
ssg71
g3467
sg64
(lp3474
S'files'
p3475
asbag57
(g78
g59
NtRp3476
(dp3477
g62
(dp3478
g89
g90
ssg71
g3467
sg64
(lp3479
S':'
asbag57
(g78
g59
NtRp3480
(dp3481
g62
(dp3482
sg71
g3467
sg64
(lp3483
g57
(g58
g59
NtRp3484
(dp3485
g62
(dp3486
g70
I5
ssg71
g3480
sg64
(lp3487
g57
(g66
g59
NtRp3488
(dp3489
g62
(dp3490
g70
I4
ssg71
Nsg64
(lp3491
sbasbasbasbag57
(g73
g59
NtRp3492
(dp3493
g62
(dp3494
sg71
g3182
sg64
(lp3495
g57
(g78
g59
NtRp3496
(dp3497
g62
(dp3498
g82
g83
ssg71
g3492
sg64
(lp3499
S'flash'
p3500
asbag57
(g78
g59
NtRp3501
(dp3502
g62
(dp3503
g89
g90
ssg71
g3492
sg64
(lp3504
S':'
asbag57
(g78
g59
NtRp3505
(dp3506
g62
(dp3507
sg71
g3492
sg64
(lp3508
g57
(g58
g59
NtRp3509
(dp3510
g62
(dp3511
g70
I5
ssg71
g3505
sg64
(lp3512
S''
asbasbasbag57
(g73
g59
NtRp3513
(dp3514
g62
(dp3515
sg71
g3182
sg64
(lp3516
g57
(g78
g59
NtRp3517
(dp3518
g62
(dp3519
g82
g83
ssg71
g3513
sg64
(lp3520
S'generic_patterns'
p3521
asbag57
(g78
g59
NtRp3522
(dp3523
g62
(dp3524
g89
g90
ssg71
g3513
sg64
(lp3525
S':'
asbag57
(g78
g59
NtRp3526
(dp3527
g62
(dp3528
sg71
g3513
sg64
(lp3529
g57
(g58
g59
NtRp3530
(dp3531
g62
(dp3532
g70
I5
ssg71
g3526
sg64
(lp3533
g57
(g66
g59
NtRp3534
(dp3535
g62
(dp3536
g70
I4
ssg71
Nsg64
(lp3537
g57
(g73
g59
NtRp3538
(dp3539
g62
(dp3540
sg71
g3534
sg64
(lp3541
g57
(g78
g59
NtRp3542
(dp3543
g62
(dp3544
sg71
g3538
sg64
(lp3545
g57
(g58
g59
NtRp3546
(dp3547
g62
(dp3548
g70
I4
ssg71
g3542
sg64
(lp3549
S'*'
asbasbasbasbasbasbasbag57
(g73
g59
NtRp3550
(dp3551
g62
(dp3552
sg71
g3182
sg64
(lp3553
g57
(g78
g59
NtRp3554
(dp3555
g62
(dp3556
g82
g83
ssg71
g3550
sg64
(lp3557
S'headers'
p3558
asbag57
(g78
g59
NtRp3559
(dp3560
g62
(dp3561
g89
g90
ssg71
g3550
sg64
(lp3562
S':'
asbag57
(g78
g59
NtRp3563
(dp3564
g62
(dp3565
sg71
g3550
sg64
(lp3566
g57
(g58
g59
NtRp3567
(dp3568
g62
(dp3569
g70
I5
ssg71
g3563
sg64
(lp3570
g57
(g66
g59
NtRp3571
(dp3572
g62
(dp3573
g70
I4
ssg71
Nsg64
(lp3574
g57
(g73
g59
NtRp3575
(dp3576
g62
(dp3577
sg71
g3571
sg64
(lp3578
g57
(g78
g59
NtRp3579
(dp3580
g62
(dp3581
g82
g83
ssg71
g3575
sg64
(lp3582
S'Cache-Control'
p3583
asbag57
(g78
g59
NtRp3584
(dp3585
g62
(dp3586
g89
g90
ssg71
g3575
sg64
(lp3587
S':'
asbag57
(g78
g59
NtRp3588
(dp3589
g62
(dp3590
sg71
g3575
sg64
(lp3591
g57
(g58
g59
NtRp3592
(dp3593
g62
(dp3594
g70
I4
ssg71
g3588
sg64
(lp3595
S'no-store, no-cache, must-revalidate, post-check=0, pre-check=0'
p3596
asbasbasbag57
(g73
g59
NtRp3597
(dp3598
g62
(dp3599
sg71
g3571
sg64
(lp3600
g57
(g78
g59
NtRp3601
(dp3602
g62
(dp3603
g82
g83
ssg71
g3597
sg64
(lp3604
S'Content-Type'
p3605
asbag57
(g78
g59
NtRp3606
(dp3607
g62
(dp3608
g89
g90
ssg71
g3597
sg64
(lp3609
S':'
asbag57
(g78
g59
NtRp3610
(dp3611
g62
(dp3612
sg71
g3597
sg64
(lp3613
g57
(g58
g59
NtRp3614
(dp3615
g62
(dp3616
g70
I4
ssg71
g3610
sg64
(lp3617
S'text/html; charset=utf-8'
p3618
asbasbasbag57
(g73
g59
NtRp3619
(dp3620
g62
(dp3621
sg71
g3571
sg64
(lp3622
g57
(g78
g59
NtRp3623
(dp3624
g62
(dp3625
g82
g83
ssg71
g3619
sg64
(lp3626
S'Expires'
p3627
asbag57
(g78
g59
NtRp3628
(dp3629
g62
(dp3630
g89
g90
ssg71
g3619
sg64
(lp3631
S':'
asbag57
(g78
g59
NtRp3632
(dp3633
g62
(dp3634
sg71
g3619
sg64
(lp3635
g57
(g58
g59
NtRp3636
(dp3637
g62
(dp3638
g70
I4
ssg71
g3632
sg64
(lp3639
S'Wed, 18 Apr 2012 23:48:57 GMT'
p3640
asbasbasbag57
(g73
g59
NtRp3641
(dp3642
g62
(dp3643
sg71
g3571
sg64
(lp3644
g57
(g78
g59
NtRp3645
(dp3646
g62
(dp3647
g82
g83
ssg71
g3641
sg64
(lp3648
S'Pragma'
p3649
asbag57
(g78
g59
NtRp3650
(dp3651
g62
(dp3652
g89
g90
ssg71
g3641
sg64
(lp3653
S':'
asbag57
(g78
g59
NtRp3654
(dp3655
g62
(dp3656
sg71
g3641
sg64
(lp3657
g57
(g58
g59
NtRp3658
(dp3659
g62
(dp3660
g70
I4
ssg71
g3654
sg64
(lp3661
S'no-cache'
p3662
asbasbasbag57
(g73
g59
NtRp3663
(dp3664
g62
(dp3665
sg71
g3571
sg64
(lp3666
g57
(g78
g59
NtRp3667
(dp3668
g62
(dp3669
g82
g83
ssg71
g3663
sg64
(lp3670
S'X-Powered-By'
p3671
asbag57
(g78
g59
NtRp3672
(dp3673
g62
(dp3674
g89
g90
ssg71
g3663
sg64
(lp3675
S':'
asbag57
(g78
g59
NtRp3676
(dp3677
g62
(dp3678
sg71
g3663
sg64
(lp3679
g57
(g58
g59
NtRp3680
(dp3681
g62
(dp3682
g70
I4
ssg71
g3676
sg64
(lp3683
S'web2py'
p3684
asbasbasbasbasbasbasbag57
(g73
g59
NtRp3685
(dp3686
g62
(dp3687
sg71
g3182
sg64
(lp3688
g57
(g78
g59
NtRp3689
(dp3690
g62
(dp3691
g82
g83
ssg71
g3685
sg64
(lp3692
S'menu'
p3693
asbag57
(g78
g59
NtRp3694
(dp3695
g62
(dp3696
g89
g90
ssg71
g3685
sg64
(lp3697
S':'
asbag57
(g78
g59
NtRp3698
(dp3699
g62
(dp3700
sg71
g3685
sg64
(lp3701
g57
(g58
g59
NtRp3702
(dp3703
g62
(dp3704
g70
I5
ssg71
g3698
sg64
(lp3705
g57
(g66
g59
NtRp3706
(dp3707
g62
(dp3708
g70
I4
ssg71
Nsg64
(lp3709
g57
(g73
g59
NtRp3710
(dp3711
g62
(dp3712
sg71
g3706
sg64
(lp3713
g57
(g78
g59
NtRp3714
(dp3715
g62
(dp3716
sg71
g3710
sg64
(lp3717
g57
(g58
g59
NtRp3718
(dp3719
g62
(dp3720
g70
I4
ssg71
g3714
sg64
(lp3721
g57
(g66
g59
NtRp3722
(dp3723
g62
(dp3724
g70
I3
ssg71
Nsg64
(lp3725
g57
(g73
g59
NtRp3726
(dp3727
g62
(dp3728
sg71
g3722
sg64
(lp3729
g57
(g78
g59
NtRp3730
(dp3731
g62
(dp3732
sg71
g3726
sg64
(lp3733
g57
(g58
g59
NtRp3734
(dp3735
g62
(dp3736
g70
I3
ssg71
g3730
sg64
(lp3737
cgluon.languages
lazyT_unpickle
p3738
(S't\x04\x00\x00\x00Home'
tRp3739
asbasbasbag57
(g73
g59
NtRp3740
(dp3741
g62
(dp3742
sg71
g3722
sg64
(lp3743
g57
(g78
g59
NtRp3744
(dp3745
g62
(dp3746
sg71
g3740
sg64
(lp3747
g57
(g58
g59
NtRp3748
(dp3749
g62
(dp3750
g70
I3
ssg71
g3744
sg64
(lp3751
g100
asbasbasbag57
(g73
g59
NtRp3752
(dp3753
g62
(dp3754
sg71
g3722
sg64
(lp3755
g57
(g78
g59
NtRp3756
(dp3757
g62
(dp3758
sg71
g3752
sg64
(lp3759
g57
(g58
g59
NtRp3760
(dp3761
g62
(dp3762
g70
I3
ssg71
g3756
sg64
(lp3763
S'/vsalad/default/index'
p3764
asbasbasbag57
(g73
g59
NtRp3765
(dp3766
g62
(dp3767
sg71
g3722
sg64
(lp3768
g57
(g78
g59
NtRp3769
(dp3770
g62
(dp3771
sg71
g3765
sg64
(lp3772
g57
(g58
g59
NtRp3773
(dp3774
g62
(dp3775
g70
I3
ssg71
g3769
sg64
(lp3776
g57
(g66
g59
NtRp3777
(dp3778
g62
(dp3779
g70
I2
ssg71
Nsg64
(lp3780
sbasbasbasbasbasbasbasbag57
(g73
g59
NtRp3781
(dp3782
g62
(dp3783
sg71
g3706
sg64
(lp3784
g57
(g78
g59
NtRp3785
(dp3786
g62
(dp3787
sg71
g3781
sg64
(lp3788
g57
(g58
g59
NtRp3789
(dp3790
g62
(dp3791
g70
I4
ssg71
g3785
sg64
(lp3792
g57
(g66
g59
NtRp3793
(dp3794
g62
(dp3795
g70
I3
ssg71
Nsg64
(lp3796
g57
(g73
g59
NtRp3797
(dp3798
g62
(dp3799
sg71
g3793
sg64
(lp3800
g57
(g78
g59
NtRp3801
(dp3802
g62
(dp3803
sg71
g3797
sg64
(lp3804
g57
(g58
g59
NtRp3805
(dp3806
g62
(dp3807
g70
I3
ssg71
g3801
sg64
(lp3808
g57
(cgluon.html
SPAN
p3809
g59
NtRp3810
(dp3811
g62
(dp3812
g82
S'color:yellow'
p3813
ssg71
Nsg64
(lp3814
g3684
asbasbasbasbag57
(g73
g59
NtRp3815
(dp3816
g62
(dp3817
sg71
g3793
sg64
(lp3818
g57
(g78
g59
NtRp3819
(dp3820
g62
(dp3821
sg71
g3815
sg64
(lp3822
g57
(g58
g59
NtRp3823
(dp3824
g62
(dp3825
g70
I3
ssg71
g3819
sg64
(lp3826
g100
asbasbasbag57
(g73
g59
NtRp3827
(dp3828
g62
(dp3829
sg71
g3793
sg64
(lp3830
g57
(g78
g59
NtRp3831
(dp3832
g62
(dp3833
sg71
g3827
sg64
(lp3834
g57
(g58
g59
NtRp3835
(dp3836
g62
(dp3837
g70
I3
ssg71
g3831
sg64
(lp3838
S'None'
p3839
asbasbasbag57
(g73
g59
NtRp3840
(dp3841
g62
(dp3842
sg71
g3793
sg64
(lp3843
g57
(g78
g59
NtRp3844
(dp3845
g62
(dp3846
sg71
g3840
sg64
(lp3847
g57
(g58
g59
NtRp3848
(dp3849
g62
(dp3850
g70
I3
ssg71
g3844
sg64
(lp3851
g57
(g66
g59
NtRp3852
(dp3853
g62
(dp3854
g70
I2
ssg71
Nsg64
(lp3855
g57
(g73
g59
NtRp3856
(dp3857
g62
(dp3858
sg71
g3852
sg64
(lp3859
g57
(g78
g59
NtRp3860
(dp3861
g62
(dp3862
sg71
g3856
sg64
(lp3863
g57
(g58
g59
NtRp3864
(dp3865
g62
(dp3866
g70
I2
ssg71
g3860
sg64
(lp3867
g57
(g66
g59
NtRp3868
(dp3869
g62
(dp3870
g70
I1
ssg71
Nsg64
(lp3871
g57
(g73
g59
NtRp3872
(dp3873
g62
(dp3874
sg71
g3868
sg64
(lp3875
g57
(g78
g59
NtRp3876
(dp3877
g62
(dp3878
sg71
g3872
sg64
(lp3879
g57
(g58
g59
NtRp3880
(dp3881
g62
(dp3882
g70
I1
ssg71
g3876
sg64
(lp3883
g3738
(S's\x08\x00\x00\x00My Sites'
tRp3884
asbasbasbag57
(g73
g59
NtRp3885
(dp3886
g62
(dp3887
sg71
g3868
sg64
(lp3888
g57
(g78
g59
NtRp3889
(dp3890
g62
(dp3891
sg71
g3885
sg64
(lp3892
g57
(g58
g59
NtRp3893
(dp3894
g62
(dp3895
g70
I1
ssg71
g3889
sg64
(lp3896
I00
asbasbasbag57
(g73
g59
NtRp3897
(dp3898
g62
(dp3899
sg71
g3868
sg64
(lp3900
g57
(g78
g59
NtRp3901
(dp3902
g62
(dp3903
sg71
g3897
sg64
(lp3904
g57
(g58
g59
NtRp3905
(dp3906
g62
(dp3907
g70
I1
ssg71
g3901
sg64
(lp3908
S'/admin/default/site'
p3909
asbasbasbasbasbasbasbag57
(g73
g59
NtRp3910
(dp3911
g62
(dp3912
sg71
g3852
sg64
(lp3913
g57
(g78
g59
NtRp3914
(dp3915
g62
(dp3916
sg71
g3910
sg64
(lp3917
g57
(g58
g59
NtRp3918
(dp3919
g62
(dp3920
g70
I2
ssg71
g3914
sg64
(lp3921
g57
(g66
g59
NtRp3922
(dp3923
g62
(dp3924
g70
I1
ssg71
Nsg64
(lp3925
g57
(g73
g59
NtRp3926
(dp3927
g62
(dp3928
sg71
g3922
sg64
(lp3929
g57
(g78
g59
NtRp3930
(dp3931
g62
(dp3932
sg71
g3926
sg64
(lp3933
g57
(g58
g59
NtRp3934
(dp3935
g62
(dp3936
g70
I1
ssg71
g3930
sg64
(lp3937
g3738
(S's\x08\x00\x00\x00This App'
tRp3938
asbasbasbag57
(g73
g59
NtRp3939
(dp3940
g62
(dp3941
sg71
g3922
sg64
(lp3942
g57
(g78
g59
NtRp3943
(dp3944
g62
(dp3945
sg71
g3939
sg64
(lp3946
g57
(g58
g59
NtRp3947
(dp3948
g62
(dp3949
g70
I1
ssg71
g3943
sg64
(lp3950
I00
asbasbasbag57
(g73
g59
NtRp3951
(dp3952
g62
(dp3953
sg71
g3922
sg64
(lp3954
g57
(g78
g59
NtRp3955
(dp3956
g62
(dp3957
sg71
g3951
sg64
(lp3958
g57
(g58
g59
NtRp3959
(dp3960
g62
(dp3961
g70
I1
ssg71
g3955
sg64
(lp3962
S'/admin/default/design/vsalad'
p3963
asbasbasbag57
(g73
g59
NtRp3964
(dp3965
g62
(dp3966
sg71
g3922
sg64
(lp3967
g57
(g78
g59
NtRp3968
(dp3969
g62
(dp3970
sg71
g3964
sg64
(lp3971
g57
(g58
g59
NtRp3972
(dp3973
g62
(dp3974
g70
I1
ssg71
g3968
sg64
(lp3975
(lp3976
(g3738
(S't\n\x00\x00\x00Controller'
tRp3977
I00
S'/admin/default/edit/vsalad/controllers/default.py'
tp3978
a(g3738
(S't\x04\x00\x00\x00View'
tRp3979
I00
S'/admin/default/edit/vsalad/views/default/article.html'
tp3980
a(g3738
(S't\x06\x00\x00\x00Layout'
tRp3981
I00
S'/admin/default/edit/vsalad/views/layout.html'
tp3982
a(g3738
(S't\n\x00\x00\x00Stylesheet'
tRp3983
I00
S'/admin/default/edit/vsalad/static/css/web2py.css'
tp3984
a(g3738
(S's\x08\x00\x00\x00DB Model'
tRp3985
I00
S'/admin/default/edit/vsalad/models/db.py'
tp3986
a(g3738
(S's\n\x00\x00\x00Menu Model'
tRp3987
I00
S'/admin/default/edit/vsalad/models/menu.py'
tp3988
a(g3738
(S't\x08\x00\x00\x00Database'
tRp3989
I00
S'/vsalad/appadmin/index'
tp3990
a(g3738
(S't\x06\x00\x00\x00Errors'
tRp3991
I00
S'/admin/default/errors/vsalad'
tp3992
a(g3738
(S't\x05\x00\x00\x00About'
tRp3993
I00
S'/admin/default/about/vsalad'
tp3994
aasbasbasbasbasbasbasbag57
(g73
g59
NtRp3995
(dp3996
g62
(dp3997
sg71
g3852
sg64
(lp3998
g57
(g78
g59
NtRp3999
(dp4000
g62
(dp4001
sg71
g3995
sg64
(lp4002
g57
(g58
g59
NtRp4003
(dp4004
g62
(dp4005
g70
I2
ssg71
g3999
sg64
(lp4006
g57
(g66
g59
NtRp4007
(dp4008
g62
(dp4009
g70
I1
ssg71
Nsg64
(lp4010
g57
(g73
g59
NtRp4011
(dp4012
g62
(dp4013
sg71
g4007
sg64
(lp4014
g57
(g78
g59
NtRp4015
(dp4016
g62
(dp4017
sg71
g4011
sg64
(lp4018
g57
(g58
g59
NtRp4019
(dp4020
g62
(dp4021
g70
I1
ssg71
g4015
sg64
(lp4022
S'web2py.com'
p4023
asbasbasbag57
(g73
g59
NtRp4024
(dp4025
g62
(dp4026
sg71
g4007
sg64
(lp4027
g57
(g78
g59
NtRp4028
(dp4029
g62
(dp4030
sg71
g4024
sg64
(lp4031
g57
(g58
g59
NtRp4032
(dp4033
g62
(dp4034
g70
I1
ssg71
g4028
sg64
(lp4035
I00
asbasbasbag57
(g73
g59
NtRp4036
(dp4037
g62
(dp4038
sg71
g4007
sg64
(lp4039
g57
(g78
g59
NtRp4040
(dp4041
g62
(dp4042
sg71
g4036
sg64
(lp4043
g57
(g58
g59
NtRp4044
(dp4045
g62
(dp4046
g70
I1
ssg71
g4040
sg64
(lp4047
S'http://www.web2py.com'
p4048
asbasbasbag57
(g73
g59
NtRp4049
(dp4050
g62
(dp4051
sg71
g4007
sg64
(lp4052
g57
(g78
g59
NtRp4053
(dp4054
g62
(dp4055
sg71
g4049
sg64
(lp4056
g57
(g58
g59
NtRp4057
(dp4058
g62
(dp4059
g70
I1
ssg71
g4053
sg64
(lp4060
(lp4061
(g3738
(S't\x08\x00\x00\x00Download'
tRp4062
I00
S'http://www.web2py.com/examples/default/download'
p4063
tp4064
a(g3738
(S't\x07\x00\x00\x00Support'
tRp4065
I00
S'http://www.web2py.com/examples/default/support'
p4066
tp4067
a(g3738
(S't\x04\x00\x00\x00Demo'
tRp4068
I00
S'http://web2py.com/demo_admin'
p4069
tp4070
a(g3738
(S's\x0e\x00\x00\x00Quick Examples'
tRp4071
I00
S'http://web2py.com/examples/default/examples'
p4072
tp4073
a(g3738
(S't\x03\x00\x00\x00FAQ'
tRp4074
I00
S'http://web2py.com/AlterEgo'
p4075
tp4076
a(g3738
(S't\x06\x00\x00\x00Videos'
tRp4077
I00
S'http://www.web2py.com/examples/default/videos/'
p4078
tp4079
a(g3738
(S's\x11\x00\x00\x00Free Applications'
tRp4080
I00
S'http://web2py.com/appliances'
p4081
tp4082
a(g3738
(S't\x07\x00\x00\x00Plugins'
tRp4083
I00
S'http://web2py.com/plugins'
p4084
tp4085
a(g3738
(S't\x07\x00\x00\x00Layouts'
tRp4086
I00
S'http://web2py.com/layouts'
p4087
tp4088
a(g3738
(S't\x07\x00\x00\x00Recipes'
tRp4089
I00
S'http://web2pyslices.com/'
p4090
tp4091
a(g3738
(S't\x08\x00\x00\x00Semantic'
tRp4092
I00
S'http://web2py.com/semantic'
p4093
tp4094
aasbasbasbasbasbasbasbag57
(g73
g59
NtRp4095
(dp4096
g62
(dp4097
sg71
g3852
sg64
(lp4098
g57
(g78
g59
NtRp4099
(dp4100
g62
(dp4101
sg71
g4095
sg64
(lp4102
g57
(g58
g59
NtRp4103
(dp4104
g62
(dp4105
g70
I2
ssg71
g4099
sg64
(lp4106
g57
(g66
g59
NtRp4107
(dp4108
g62
(dp4109
g70
I1
ssg71
Nsg64
(lp4110
g57
(g73
g59
NtRp4111
(dp4112
g62
(dp4113
sg71
g4107
sg64
(lp4114
g57
(g78
g59
NtRp4115
(dp4116
g62
(dp4117
sg71
g4111
sg64
(lp4118
g57
(g58
g59
NtRp4119
(dp4120
g62
(dp4121
g70
I1
ssg71
g4115
sg64
(lp4122
g3738
(S't\r\x00\x00\x00Documentation'
tRp4123
asbasbasbag57
(g73
g59
NtRp4124
(dp4125
g62
(dp4126
sg71
g4107
sg64
(lp4127
g57
(g78
g59
NtRp4128
(dp4129
g62
(dp4130
sg71
g4124
sg64
(lp4131
g57
(g58
g59
NtRp4132
(dp4133
g62
(dp4134
g70
I1
ssg71
g4128
sg64
(lp4135
I00
asbasbasbag57
(g73
g59
NtRp4136
(dp4137
g62
(dp4138
sg71
g4107
sg64
(lp4139
g57
(g78
g59
NtRp4140
(dp4141
g62
(dp4142
sg71
g4136
sg64
(lp4143
g57
(g58
g59
NtRp4144
(dp4145
g62
(dp4146
g70
I1
ssg71
g4140
sg64
(lp4147
S'http://www.web2py.com/book'
p4148
asbasbasbag57
(g73
g59
NtRp4149
(dp4150
g62
(dp4151
sg71
g4107
sg64
(lp4152
g57
(g78
g59
NtRp4153
(dp4154
g62
(dp4155
sg71
g4149
sg64
(lp4156
g57
(g58
g59
NtRp4157
(dp4158
g62
(dp4159
g70
I1
ssg71
g4153
sg64
(lp4160
(lp4161
(g3738
(S't\x07\x00\x00\x00Preface'
tRp4162
I00
S'http://www.web2py.com/book/default/chapter/00'
p4163
tp4164
a(g3738
(S't\x0c\x00\x00\x00Introduction'
tRp4165
I00
S'http://www.web2py.com/book/default/chapter/01'
p4166
tp4167
a(g3738
(S't\x06\x00\x00\x00Python'
tRp4168
I00
S'http://www.web2py.com/book/default/chapter/02'
p4169
tp4170
a(g3738
(S't\x08\x00\x00\x00Overview'
tRp4171
I00
S'http://www.web2py.com/book/default/chapter/03'
p4172
tp4173
a(g3738
(S's\x08\x00\x00\x00The Core'
tRp4174
I00
S'http://www.web2py.com/book/default/chapter/04'
p4175
tp4176
a(g3738
(S's\t\x00\x00\x00The Views'
tRp4177
I00
S'http://www.web2py.com/book/default/chapter/05'
p4178
tp4179
a(g3738
(S't\x08\x00\x00\x00Database'
tRp4180
I00
S'http://www.web2py.com/book/default/chapter/06'
p4181
tp4182
a(g3738
(S's\x14\x00\x00\x00Forms and Validators'
tRp4183
I00
S'http://www.web2py.com/book/default/chapter/07'
p4184
tp4185
a(g3738
(S's\r\x00\x00\x00Email and SMS'
tRp4186
I00
S'http://www.web2py.com/book/default/chapter/08'
p4187
tp4188
a(g3738
(S's\x0e\x00\x00\x00Access Control'
tRp4189
I00
S'http://www.web2py.com/book/default/chapter/09'
p4190
tp4191
a(g3738
(S't\x08\x00\x00\x00Services'
tRp4192
I00
S'http://www.web2py.com/book/default/chapter/10'
p4193
tp4194
a(g3738
(S's\x0c\x00\x00\x00Ajax Recipes'
tRp4195
I00
S'http://www.web2py.com/book/default/chapter/11'
p4196
tp4197
a(g3738
(S's\x16\x00\x00\x00Components and Plugins'
tRp4198
I00
S'http://www.web2py.com/book/default/chapter/12'
p4199
tp4200
a(g3738
(S's\x12\x00\x00\x00Deployment Recipes'
tRp4201
I00
S'http://www.web2py.com/book/default/chapter/13'
p4202
tp4203
a(g3738
(S's\r\x00\x00\x00Other Recipes'
tRp4204
I00
S'http://www.web2py.com/book/default/chapter/14'
p4205
tp4206
a(g3738
(S's\r\x00\x00\x00Buy this book'
tRp4207
I00
S'http://stores.lulu.com/web2py'
p4208
tp4209
aasbasbasbasbasbasbasbag57
(g73
g59
NtRp4210
(dp4211
g62
(dp4212
sg71
g3852
sg64
(lp4213
g57
(g78
g59
NtRp4214
(dp4215
g62
(dp4216
sg71
g4210
sg64
(lp4217
g57
(g58
g59
NtRp4218
(dp4219
g62
(dp4220
g70
I2
ssg71
g4214
sg64
(lp4221
g57
(g66
g59
NtRp4222
(dp4223
g62
(dp4224
g70
I1
ssg71
Nsg64
(lp4225
g57
(g73
g59
NtRp4226
(dp4227
g62
(dp4228
sg71
g4222
sg64
(lp4229
g57
(g78
g59
NtRp4230
(dp4231
g62
(dp4232
sg71
g4226
sg64
(lp4233
g57
(g58
g59
NtRp4234
(dp4235
g62
(dp4236
g70
I1
ssg71
g4230
sg64
(lp4237
g3738
(S't\t\x00\x00\x00Community'
tRp4238
asbasbasbag57
(g73
g59
NtRp4239
(dp4240
g62
(dp4241
sg71
g4222
sg64
(lp4242
g57
(g78
g59
NtRp4243
(dp4244
g62
(dp4245
sg71
g4239
sg64
(lp4246
g57
(g58
g59
NtRp4247
(dp4248
g62
(dp4249
g70
I1
ssg71
g4243
sg64
(lp4250
I00
asbasbasbag57
(g73
g59
NtRp4251
(dp4252
g62
(dp4253
sg71
g4222
sg64
(lp4254
g57
(g78
g59
NtRp4255
(dp4256
g62
(dp4257
sg71
g4251
sg64
(lp4258
g57
(g58
g59
NtRp4259
(dp4260
g62
(dp4261
g70
I1
ssg71
g4255
sg64
(lp4262
Nasbasbasbag57
(g73
g59
NtRp4263
(dp4264
g62
(dp4265
sg71
g4222
sg64
(lp4266
g57
(g78
g59
NtRp4267
(dp4268
g62
(dp4269
sg71
g4263
sg64
(lp4270
g57
(g58
g59
NtRp4271
(dp4272
g62
(dp4273
g70
I1
ssg71
g4267
sg64
(lp4274
(lp4275
(g3738
(S't\x06\x00\x00\x00Groups'
tRp4276
I00
S'http://www.web2py.com/examples/default/usergroups'
p4277
tp4278
a(g3738
(S't\x07\x00\x00\x00Twitter'
tRp4279
I00
S'http://twitter.com/web2py'
p4280
tp4281
a(g3738
(S's\t\x00\x00\x00Live Chat'
tRp4282
I00
S'http://webchat.freenode.net/?channels=web2py'
p4283
tp4284
aasbasbasbasbasbasbasbag57
(g73
g59
NtRp4285
(dp4286
g62
(dp4287
sg71
g3852
sg64
(lp4288
g57
(g78
g59
NtRp4289
(dp4290
g62
(dp4291
sg71
g4285
sg64
(lp4292
g57
(g58
g59
NtRp4293
(dp4294
g62
(dp4295
g70
I2
ssg71
g4289
sg64
(lp4296
g57
(g66
g59
NtRp4297
(dp4298
g62
(dp4299
g70
I1
ssg71
Nsg64
(lp4300
g57
(g73
g59
NtRp4301
(dp4302
g62
(dp4303
sg71
g4297
sg64
(lp4304
g57
(g78
g59
NtRp4305
(dp4306
g62
(dp4307
sg71
g4301
sg64
(lp4308
g57
(g58
g59
NtRp4309
(dp4310
g62
(dp4311
g70
I1
ssg71
g4305
sg64
(lp4312
g3738
(S't\x07\x00\x00\x00Plugins'
tRp4313
asbasbasbag57
(g73
g59
NtRp4314
(dp4315
g62
(dp4316
sg71
g4297
sg64
(lp4317
g57
(g78
g59
NtRp4318
(dp4319
g62
(dp4320
sg71
g4314
sg64
(lp4321
g57
(g58
g59
NtRp4322
(dp4323
g62
(dp4324
g70
I1
ssg71
g4318
sg64
(lp4325
I00
asbasbasbag57
(g73
g59
NtRp4326
(dp4327
g62
(dp4328
sg71
g4297
sg64
(lp4329
g57
(g78
g59
NtRp4330
(dp4331
g62
(dp4332
sg71
g4326
sg64
(lp4333
g57
(g58
g59
NtRp4334
(dp4335
g62
(dp4336
g70
I1
ssg71
g4330
sg64
(lp4337
Nasbasbasbag57
(g73
g59
NtRp4338
(dp4339
g62
(dp4340
sg71
g4297
sg64
(lp4341
g57
(g78
g59
NtRp4342
(dp4343
g62
(dp4344
sg71
g4338
sg64
(lp4345
g57
(g58
g59
NtRp4346
(dp4347
g62
(dp4348
g70
I1
ssg71
g4342
sg64
(lp4349
(lp4350
(S'plugin_wiki'
p4351
I00
S'http://web2py.com/examples/default/download'
p4352
tp4353
a(g3738
(S's\r\x00\x00\x00Other Plugins'
tRp4354
I00
g4084
tp4355
a(g3738
(S's\x0e\x00\x00\x00Layout Plugins'
tRp4356
I00
g4087
tp4357
aasbasbasbasbasbasbasbasbasbasbasbasbasbasbasbasbasbasbasbag57
(g73
g59
NtRp4358
(dp4359
g62
(dp4360
sg71
g3182
sg64
(lp4361
g57
(g78
g59
NtRp4362
(dp4363
g62
(dp4364
g82
g83
ssg71
g4358
sg64
(lp4365
S'meta'
p4366
asbag57
(g78
g59
NtRp4367
(dp4368
g62
(dp4369
g89
g90
ssg71
g4358
sg64
(lp4370
S':'
asbag57
(g78
g59
NtRp4371
(dp4372
g62
(dp4373
sg71
g4358
sg64
(lp4374
g57
(g58
g59
NtRp4375
(dp4376
g62
(dp4377
g70
I5
ssg71
g4371
sg64
(lp4378
g57
(g66
g59
NtRp4379
(dp4380
g62
(dp4381
g70
I4
ssg71
Nsg64
(lp4382
g57
(g73
g59
NtRp4383
(dp4384
g62
(dp4385
sg71
g4379
sg64
(lp4386
g57
(g78
g59
NtRp4387
(dp4388
g62
(dp4389
g82
g83
ssg71
g4383
sg64
(lp4390
S'author'
p4391
asbag57
(g78
g59
NtRp4392
(dp4393
g62
(dp4394
g89
g90
ssg71
g4383
sg64
(lp4395
S':'
asbag57
(g78
g59
NtRp4396
(dp4397
g62
(dp4398
sg71
g4383
sg64
(lp4399
g57
(g58
g59
NtRp4400
(dp4401
g62
(dp4402
g70
I4
ssg71
g4396
sg64
(lp4403
S'Your Name <you@example.com>'
p4404
asbasbasbag57
(g73
g59
NtRp4405
(dp4406
g62
(dp4407
sg71
g4379
sg64
(lp4408
g57
(g78
g59
NtRp4409
(dp4410
g62
(dp4411
g82
g83
ssg71
g4405
sg64
(lp4412
S'copyright'
p4413
asbag57
(g78
g59
NtRp4414
(dp4415
g62
(dp4416
g89
g90
ssg71
g4405
sg64
(lp4417
S':'
asbag57
(g78
g59
NtRp4418
(dp4419
g62
(dp4420
sg71
g4405
sg64
(lp4421
g57
(g58
g59
NtRp4422
(dp4423
g62
(dp4424
g70
I4
ssg71
g4418
sg64
(lp4425
S'Copyright 2011'
p4426
asbasbasbag57
(g73
g59
NtRp4427
(dp4428
g62
(dp4429
sg71
g4379
sg64
(lp4430
g57
(g78
g59
NtRp4431
(dp4432
g62
(dp4433
g82
g83
ssg71
g4427
sg64
(lp4434
S'description'
p4435
asbag57
(g78
g59
NtRp4436
(dp4437
g62
(dp4438
g89
g90
ssg71
g4427
sg64
(lp4439
S':'
asbag57
(g78
g59
NtRp4440
(dp4441
g62
(dp4442
sg71
g4427
sg64
(lp4443
g57
(g58
g59
NtRp4444
(dp4445
g62
(dp4446
g70
I4
ssg71
g4440
sg64
(lp4447
S'a cool new app'
p4448
asbasbasbag57
(g73
g59
NtRp4449
(dp4450
g62
(dp4451
sg71
g4379
sg64
(lp4452
g57
(g78
g59
NtRp4453
(dp4454
g62
(dp4455
g82
g83
ssg71
g4449
sg64
(lp4456
S'generator'
p4457
asbag57
(g78
g59
NtRp4458
(dp4459
g62
(dp4460
g89
g90
ssg71
g4449
sg64
(lp4461
S':'
asbag57
(g78
g59
NtRp4462
(dp4463
g62
(dp4464
sg71
g4449
sg64
(lp4465
g57
(g58
g59
NtRp4466
(dp4467
g62
(dp4468
g70
I4
ssg71
g4462
sg64
(lp4469
S'Web2py Web Framework'
p4470
asbasbasbag57
(g73
g59
NtRp4471
(dp4472
g62
(dp4473
sg71
g4379
sg64
(lp4474
g57
(g78
g59
NtRp4475
(dp4476
g62
(dp4477
g82
g83
ssg71
g4471
sg64
(lp4478
S'keywords'
p4479
asbag57
(g78
g59
NtRp4480
(dp4481
g62
(dp4482
g89
g90
ssg71
g4471
sg64
(lp4483
S':'
asbag57
(g78
g59
NtRp4484
(dp4485
g62
(dp4486
sg71
g4471
sg64
(lp4487
g57
(g58
g59
NtRp4488
(dp4489
g62
(dp4490
g70
I4
ssg71
g4484
sg64
(lp4491
S'web2py, python, framework'
p4492
asbasbasbasbasbasbasbag57
(g73
g59
NtRp4493
(dp4494
g62
(dp4495
sg71
g3182
sg64
(lp4496
g57
(g78
g59
NtRp4497
(dp4498
g62
(dp4499
g82
g83
ssg71
g4493
sg64
(lp4500
S'postprocessing'
p4501
asbag57
(g78
g59
NtRp4502
(dp4503
g62
(dp4504
g89
g90
ssg71
g4493
sg64
(lp4505
S':'
asbag57
(g78
g59
NtRp4506
(dp4507
g62
(dp4508
sg71
g4493
sg64
(lp4509
g57
(g58
g59
NtRp4510
(dp4511
g62
(dp4512
g70
I5
ssg71
g4506
sg64
(lp4513
g57
(g66
g59
NtRp4514
(dp4515
g62
(dp4516
g70
I4
ssg71
Nsg64
(lp4517
sbasbasbasbag57
(g73
g59
NtRp4518
(dp4519
g62
(dp4520
sg71
g3182
sg64
(lp4521
g57
(g78
g59
NtRp4522
(dp4523
g62
(dp4524
g82
g83
ssg71
g4518
sg64
(lp4525
S'session_file'
p4526
asbag57
(g78
g59
NtRp4527
(dp4528
g62
(dp4529
g89
g90
ssg71
g4518
sg64
(lp4530
S':'
asbag57
(g78
g59
NtRp4531
(dp4532
g62
(dp4533
sg71
g4518
sg64
(lp4534
g57
(g58
g59
NtRp4535
(dp4536
g62
(dp4537
g70
I5
ssg71
g4531
sg64
(lp4538
S"<open file '/home/fish/Desktop/web2py/applications/vsalad/sessions/127.0.0.1-65c5fec7-9058-48a5-9599-65c6d4c50931', mode 'rb+' at 0x2d1b1e0>"
p4539
asbasbasbag57
(g73
g59
NtRp4540
(dp4541
g62
(dp4542
sg71
g3182
sg64
(lp4543
g57
(g78
g59
NtRp4544
(dp4545
g62
(dp4546
g82
g83
ssg71
g4540
sg64
(lp4547
S'session_filename'
p4548
asbag57
(g78
g59
NtRp4549
(dp4550
g62
(dp4551
g89
g90
ssg71
g4540
sg64
(lp4552
S':'
asbag57
(g78
g59
NtRp4553
(dp4554
g62
(dp4555
sg71
g4540
sg64
(lp4556
g57
(g58
g59
NtRp4557
(dp4558
g62
(dp4559
g70
I5
ssg71
g4553
sg64
(lp4560
S'/home/fish/Desktop/web2py/applications/vsalad/sessions/127.0.0.1-65c5fec7-9058-48a5-9599-65c6d4c50931'
p4561
asbasbasbag57
(g73
g59
NtRp4562
(dp4563
g62
(dp4564
sg71
g3182
sg64
(lp4565
g57
(g78
g59
NtRp4566
(dp4567
g62
(dp4568
g82
g83
ssg71
g4562
sg64
(lp4569
S'session_id'
p4570
asbag57
(g78
g59
NtRp4571
(dp4572
g62
(dp4573
g89
g90
ssg71
g4562
sg64
(lp4574
S':'
asbag57
(g78
g59
NtRp4575
(dp4576
g62
(dp4577
sg71
g4562
sg64
(lp4578
g57
(g58
g59
NtRp4579
(dp4580
g62
(dp4581
g70
I5
ssg71
g4575
sg64
(lp4582
S'127.0.0.1-65c5fec7-9058-48a5-9599-65c6d4c50931'
p4583
asbasbasbag57
(g73
g59
NtRp4584
(dp4585
g62
(dp4586
sg71
g3182
sg64
(lp4587
g57
(g78
g59
NtRp4588
(dp4589
g62
(dp4590
g82
g83
ssg71
g4584
sg64
(lp4591
S'session_id_name'
p4592
asbag57
(g78
g59
NtRp4593
(dp4594
g62
(dp4595
g89
g90
ssg71
g4584
sg64
(lp4596
S':'
asbag57
(g78
g59
NtRp4597
(dp4598
g62
(dp4599
sg71
g4584
sg64
(lp4600
g57
(g58
g59
NtRp4601
(dp4602
g62
(dp4603
g70
I5
ssg71
g4597
sg64
(lp4604
g3239
asbasbasbag57
(g73
g59
NtRp4605
(dp4606
g62
(dp4607
sg71
g3182
sg64
(lp4608
g57
(g78
g59
NtRp4609
(dp4610
g62
(dp4611
g82
g83
ssg71
g4605
sg64
(lp4612
S'session_locked'
p4613
asbag57
(g78
g59
NtRp4614
(dp4615
g62
(dp4616
g89
g90
ssg71
g4605
sg64
(lp4617
S':'
asbag57
(g78
g59
NtRp4618
(dp4619
g62
(dp4620
sg71
g4605
sg64
(lp4621
g57
(g58
g59
NtRp4622
(dp4623
g62
(dp4624
g70
I5
ssg71
g4618
sg64
(lp4625
g1724
asbasbasbag57
(g73
g59
NtRp4626
(dp4627
g62
(dp4628
sg71
g3182
sg64
(lp4629
g57
(g78
g59
NtRp4630
(dp4631
g62
(dp4632
g82
g83
ssg71
g4626
sg64
(lp4633
S'session_new'
p4634
asbag57
(g78
g59
NtRp4635
(dp4636
g62
(dp4637
g89
g90
ssg71
g4626
sg64
(lp4638
S':'
asbag57
(g78
g59
NtRp4639
(dp4640
g62
(dp4641
sg71
g4626
sg64
(lp4642
g57
(g58
g59
NtRp4643
(dp4644
g62
(dp4645
g70
I5
ssg71
g4639
sg64
(lp4646
g100
asbasbasbag57
(g73
g59
NtRp4647
(dp4648
g62
(dp4649
sg71
g3182
sg64
(lp4650
g57
(g78
g59
NtRp4651
(dp4652
g62
(dp4653
g82
g83
ssg71
g4647
sg64
(lp4654
S'status'
p4655
asbag57
(g78
g59
NtRp4656
(dp4657
g62
(dp4658
g89
g90
ssg71
g4647
sg64
(lp4659
S':'
asbag57
(g78
g59
NtRp4660
(dp4661
g62
(dp4662
sg71
g4647
sg64
(lp4663
g57
(g58
g59
NtRp4664
(dp4665
g62
(dp4666
g70
I5
ssg71
g4660
sg64
(lp4667
S'200'
p4668
asbasbasbag57
(g73
g59
NtRp4669
(dp4670
g62
(dp4671
sg71
g3182
sg64
(lp4672
g57
(g78
g59
NtRp4673
(dp4674
g62
(dp4675
g82
g83
ssg71
g4669
sg64
(lp4676
S'subtitle'
p4677
asbag57
(g78
g59
NtRp4678
(dp4679
g62
(dp4680
g89
g90
ssg71
g4669
sg64
(lp4681
S':'
asbag57
(g78
g59
NtRp4682
(dp4683
g62
(dp4684
sg71
g4669
sg64
(lp4685
g57
(g58
g59
NtRp4686
(dp4687
g62
(dp4688
g70
I5
ssg71
g4682
sg64
(lp4689
g3738
(S's\r\x00\x00\x00customize me!'
tRp4690
asbasbasbag57
(g73
g59
NtRp4691
(dp4692
g62
(dp4693
sg71
g3182
sg64
(lp4694
g57
(g78
g59
NtRp4695
(dp4696
g62
(dp4697
g82
g83
ssg71
g4691
sg64
(lp4698
S'title'
p4699
asbag57
(g78
g59
NtRp4700
(dp4701
g62
(dp4702
g89
g90
ssg71
g4691
sg64
(lp4703
S':'
asbag57
(g78
g59
NtRp4704
(dp4705
g62
(dp4706
sg71
g4691
sg64
(lp4707
g57
(g58
g59
NtRp4708
(dp4709
g62
(dp4710
g70
I5
ssg71
g4704
sg64
(lp4711
S'Vsalad'
p4712
asbasbasbag57
(g73
g59
NtRp4713
(dp4714
g62
(dp4715
sg71
g3182
sg64
(lp4716
g57
(g78
g59
NtRp4717
(dp4718
g62
(dp4719
g82
g83
ssg71
g4713
sg64
(lp4720
g2410
asbag57
(g78
g59
NtRp4721
(dp4722
g62
(dp4723
g89
g90
ssg71
g4713
sg64
(lp4724
S':'
asbag57
(g78
g59
NtRp4725
(dp4726
g62
(dp4727
sg71
g4713
sg64
(lp4728
g57
(g58
g59
NtRp4729
(dp4730
g62
(dp4731
g70
I5
ssg71
g4725
sg64
(lp4732
g2423
asbasbasbag57
(g73
g59
NtRp4733
(dp4734
g62
(dp4735
sg71
g3182
sg64
(lp4736
g57
(g78
g59
NtRp4737
(dp4738
g62
(dp4739
g82
g83
ssg71
g4733
sg64
(lp4740
S'view'
p4741
asbag57
(g78
g59
NtRp4742
(dp4743
g62
(dp4744
g89
g90
ssg71
g4733
sg64
(lp4745
S':'
asbag57
(g78
g59
NtRp4746
(dp4747
g62
(dp4748
sg71
g4733
sg64
(lp4749
g57
(g58
g59
NtRp4750
(dp4751
g62
(dp4752
g70
I5
ssg71
g4746
sg64
(lp4753
S'default/article.html'
p4754
asbasbasbasbasbsS'locals'
p4755
(dp4756
S'Service'
p4757
S"<class 'gluon.tools.Service'>"
p4758
sS'OBJECT'
p4759
S"<class 'gluon.html.OBJECT'>"
p4760
sS'SQLDB'
p4761
S"<class 'gluon.dal.DAL'>"
p4762
sg3142
S"<Storage {'_formkey[article/4]': 'e3137ee7-cc7f-...{'version': '18.0.1025.162', 'name': 'Chrome'}}}>"
p4763
sS'LINK'
p4764
S"<class 'gluon.html.LINK'>"
p4765
sS'BR'
p4766
S"<class 'gluon.html.BR'>"
p4767
sS'local_import'
p4768
S'<function <lambda>>'
p4769
sS'OPTGROUP'
p4770
S"<class 'gluon.html.OPTGROUP'>"
p4771
sS'__package__'
p4772
S'None'
p4773
sS'PRE'
p4774
S"<class 'gluon.html.PRE'>"
p4775
sS'IS_INT_IN_RANGE'
p4776
S"<class 'gluon.validators.IS_INT_IN_RANGE'>"
p4777
sS'IS_LOWER'
p4778
S"<class 'gluon.validators.IS_LOWER'>"
p4779
sS'IS_STRONG'
p4780
S"<class 'gluon.validators.IS_STRONG'>"
p4781
sS'cache'
p4782
S'<gluon.cache.Cache object>'
p4783
sS'IS_IN_DB'
p4784
S"<class 'gluon.validators.IS_IN_DB'>"
p4785
sS'TAG'
p4786
S'<gluon.html.__TAG__ object>'
p4787
sS'SQLField'
p4788
S"<class 'gluon.dal.Field'>"
p4789
sS'mail'
p4790
S'<gluon.tools.Mail object>'
p4791
sS'BODY'
p4792
S"<class 'gluon.html.BODY'>"
p4793
sS'IS_DATE_IN_RANGE'
p4794
S"<class 'gluon.validators.IS_DATE_IN_RANGE'>"
p4795
sS'TH'
p4796
S"<class 'gluon.html.TH'>"
p4797
sS'URL'
p4798
S'<function URL>'
p4799
sS'__file__'
p4800
S"'/home/fish/Desktop/web2py/applications/vsalad/views/default/article.html'"
p4801
sS'db'
p4802
S"<DAL {'auth_event': <Table {'origin': <gluon.dal...at 0x3586050>, '_singular': 'Auth membership'}>}>"
p4803
sS'auth'
p4804
S'<gluon.tools.Auth object>'
p4805
sS'P'
S"<class 'gluon.html.P'>"
p4806
sS'TFOOT'
p4807
S"<class 'gluon.html.TFOOT'>"
p4808
sS'XHTML'
p4809
S"<class 'gluon.html.XHTML'>"
p4810
sg2297
S'<built-in function time>'
p4811
sS'ON'
p4812
g1724
sS'OL'
p4813
S"<class 'gluon.html.OL'>"
p4814
sS'TEXTAREA'
p4815
S"<class 'gluon.html.TEXTAREA'>"
p4816
sS'MENU'
p4817
S"<class 'gluon.html.MENU'>"
p4818
sS't'
S'<function article>'
p4819
sS'IS_IMAGE'
p4820
S"<class 'gluon.validators.IS_IMAGE'>"
p4821
sS'LOAD'
p4822
S'<function LOAD>'
p4823
sS'CODE'
p4824
S"<class 'gluon.html.CODE'>"
p4825
sS'HTTP'
p4826
S"<class 'gluon.http.HTTP'>"
p4827
sS'HR'
p4828
S"<class 'gluon.html.HR'>"
p4829
sS'IS_DATETIME'
p4830
S"<class 'gluon.validators.IS_DATETIME'>"
p4831
sS'HEAD'
p4832
S"<class 'gluon.html.HEAD'>"
p4833
sS'LABEL'
p4834
S"<class 'gluon.html.LABEL'>"
p4835
sS'META'
p4836
S"<class 'gluon.html.META'>"
p4837
sS'plugins'
p4838
S'<gluon.tools.PluginManager object>'
p4839
sS'SELECT'
p4840
S"<class 'gluon.html.SELECT'>"
p4841
sS'use_janrain'
p4842
S'<function use_janrain>'
p4843
sS'CENTER'
p4844
S"<class 'gluon.html.CENTER'>"
p4845
sS'prettydate'
p4846
S'<function prettydate>'
p4847
sS'custom_auth_table'
p4848
S"<Table {'_db': <DAL {'auth_event': <Table {'orig...ey': <gluon.dal.Field object at 0x7f82ac0ae0d0>}>"
p4849
sS'Crud'
p4850
S"<class 'gluon.tools.Crud'>"
p4851
sS'Auth'
p4852
S"<class 'gluon.tools.Auth'>"
p4853
sS'IS_EQUAL_TO'
p4854
S"<class 'gluon.validators.IS_EQUAL_TO'>"
p4855
sS'HTML'
p4856
S"<class 'gluon.html.HTML'>"
p4857
sS'SQLFORM'
p4858
S"<class 'gluon.sqlhtml.SQLFORM'>"
p4859
sS'EM'
p4860
S"<class 'gluon.html.EM'>"
p4861
sS'redirect'
p4862
S'<function redirect>'
p4863
sS'FIELDSET'
p4864
S"<class 'gluon.html.FIELDSET'>"
p4865
sS'__builtins__'
p4866
S"{'ArithmeticError': <type 'exceptions.ArithmeticError'>, 'AssertionError': <type 'exceptions.AssertionError'>, 'AttributeError': <type 'exceptions.AttributeError'>, 'BaseException': <type 'exceptions.BaseException'>, 'BufferError': <type 'exceptions.BufferError'>, 'BytesWarning': <type 'exceptions.BytesWarning'>, 'DeprecationWarning': <type 'exceptions.DeprecationWarning'>, 'EOFError': <type 'exceptions.EOFError'>, 'Ellipsis': Ellipsis, 'EnvironmentError': <type 'exceptions.EnvironmentError'>, ...}"
p4867
sS'embed64'
p4868
S'<function embed64>'
p4869
sS'IS_LIST_OF'
p4870
S"<class 'gluon.validators.IS_LIST_OF'>"
p4871
sS'INPUT'
p4872
S"<class 'gluon.html.INPUT'>"
p4873
sS'EMBED'
p4874
S"<class 'gluon.html.EMBED'>"
p4875
sS'_'
S'<function _>'
p4876
sS'H2'
p4877
S"<class 'gluon.html.H2'>"
p4878
sS'H3'
p4879
S"<class 'gluon.html.H3'>"
p4880
sS'BUTTON'
p4881
S"<class 'gluon.html.BUTTON'>"
p4882
sS'H1'
p4883
S"<class 'gluon.html.H1'>"
p4884
sS'H6'
p4885
S"<class 'gluon.html.H6'>"
p4886
sS'H4'
p4887
S"<class 'gluon.html.H4'>"
p4888
sS'H5'
p4889
S"<class 'gluon.html.H5'>"
p4890
sS'UL'
p4891
S"<class 'gluon.html.UL'>"
p4892
sS'IS_UPPER'
p4893
S"<class 'gluon.validators.IS_UPPER'>"
p4894
sS'xmlescape'
p4895
S'<function xmlescape>'
p4896
sS'IS_TIME'
p4897
S"<class 'gluon.validators.IS_TIME'>"
p4898
sS'OPTION'
p4899
S"<class 'gluon.html.OPTION'>"
p4900
sS'TITLE'
p4901
S"<class 'gluon.html.TITLE'>"
p4902
sS'CRYPT'
p4903
S"<class 'gluon.validators.CRYPT'>"
p4904
sS'IS_EMPTY_OR'
p4905
S"<class 'gluon.validators.IS_EMPTY_OR'>"
p4906
sS'MARKMIN'
p4907
S"<class 'gluon.html.MARKMIN'>"
p4908
sS'__name__'
p4909
S"'__restricted__'"
p4910
sS'COL'
p4911
S"<class 'gluon.html.COL'>"
p4912
sS'service'
p4913
S'<gluon.tools.Service object>'
p4914
sS'SCRIPT'
p4915
S"<class 'gluon.html.SCRIPT'>"
p4916
sS'TABLE'
p4917
S"<class 'gluon.html.TABLE'>"
p4918
sS'IS_IPV4'
p4919
S"<class 'gluon.validators.IS_IPV4'>"
p4920
sS'IS_LENGTH'
p4921
S"<class 'gluon.validators.IS_LENGTH'>"
p4922
sS'XML'
p4923
S"<class 'gluon.html.XML'>"
p4924
sS'B'
S"<class 'gluon.html.B'>"
p4925
sS'IMG'
p4926
S"<class 'gluon.html.IMG'>"
p4927
sS'SQLTABLE'
p4928
S"<class 'gluon.sqlhtml.SQLTABLE'>"
p4929
sS'IS_MATCH'
p4930
S"<class 'gluon.validators.IS_MATCH'>"
p4931
sS'IS_ALPHANUMERIC'
p4932
S"<class 'gluon.validators.IS_ALPHANUMERIC'>"
p4933
sS'SPAN'
p4934
S"<class 'gluon.html.SPAN'>"
p4935
sS'IS_SLUG'
p4936
S"<class 'gluon.validators.IS_SLUG'>"
p4937
sS'CLEANUP'
p4938
S"<class 'gluon.validators.CLEANUP'>"
p4939
sS'IS_DATE'
p4940
S"<class 'gluon.validators.IS_DATE'>"
p4941
sS'IS_EMAIL'
p4942
S"<class 'gluon.validators.IS_EMAIL'>"
p4943
sS'IS_NOT_EMPTY'
p4944
S"<class 'gluon.validators.IS_NOT_EMPTY'>"
p4945
sg56
S"<Storage {'body': <cStringIO.StringO object at 0..._vars': <Storage {}>, 'post_vars': <Storage {}>}>"
p4946
sS'BEAUTIFY'
p4947
S"<class 'gluon.html.BEAUTIFY'>"
p4948
sS'TBODY'
p4949
S"<class 'gluon.html.TBODY'>"
p4950
sS'CAT'
p4951
S"<class 'gluon.html.CAT'>"
p4952
sS'Field'
p4953
S"<class 'gluon.dal.Field'>"
p4954
sS'DIV'
p4955
S"<class 'gluon.html.DIV'>"
p4956
sS'LEGEND'
p4957
S"<class 'gluon.html.LEGEND'>"
p4958
sS'COLGROUP'
p4959
S"<class 'gluon.html.COLGROUP'>"
p4960
sS'DAL'
p4961
S"<class 'gluon.dal.DAL'>"
p4962
sS'TT'
p4963
S"<class 'gluon.html.TT'>"
p4964
sS'TR'
p4965
S"<class 'gluon.html.TR'>"
p4966
sS'LI'
p4967
S"<class 'gluon.html.LI'>"
p4968
sS'IFRAME'
p4969
S"<class 'gluon.html.IFRAME'>"
p4970
sS'TD'
p4971
S"<class 'gluon.html.TD'>"
p4972
sS'PluginManager'
p4973
S"<class 'gluon.tools.PluginManager'>"
p4974
sS'IS_URL'
p4975
S"<class 'gluon.validators.IS_URL'>"
p4976
sS'A'
S"<class 'gluon.html.A'>"
p4977
sS'STYLE'
p4978
S"<class 'gluon.html.STYLE'>"
p4979
sS'IS_DATETIME_IN_RANGE'
p4980
S"<class 'gluon.validators.IS_DATETIME_IN_RANGE'>"
p4981
sS'FORM'
p4982
S"<class 'gluon.html.FORM'>"
p4983
sS'I'
S"<class 'gluon.html.I'>"
p4984
sS'crud'
p4985
S'<gluon.tools.Crud object>'
p4986
sS'IS_NOT_IN_DB'
p4987
S"<class 'gluon.validators.IS_NOT_IN_DB'>"
p4988
sg3177
S"<Storage {'body': <cStringIO.StringO object at 0...> at 0x2f4c668>, 'view': 'default/article.html'}>"
p4989
sS'THEAD'
p4990
S"<class 'gluon.html.THEAD'>"
p4991
sS'IS_NULL_OR'
p4992
S"<class 'gluon.validators.IS_EMPTY_OR'>"
p4993
sS'IS_FLOAT_IN_RANGE'
p4994
S"<class 'gluon.validators.IS_FLOAT_IN_RANGE'>"
p4995
sS'IS_EXPR'
p4996
S"<class 'gluon.validators.IS_EXPR'>"
p4997
sS'T'
S'<gluon.languages.translator object>'
p4998
sS'IS_IN_SET'
p4999
S"<class 'gluon.validators.IS_IN_SET'>"
p5000
sS'IS_UPLOAD_FILENAME'
p5001
S"<class 'gluon.validators.IS_UPLOAD_FILENAME'>"
p5002
sS'IS_DECIMAL_IN_RANGE'
p5003
S"<class 'gluon.validators.IS_DECIMAL_IN_RANGE'>"
p5004
sssS'traceback'
p5005
S'Traceback (most recent call last):\n  File "/home/fish/Desktop/web2py/gluon/restricted.py", line 205, in restricted\n    exec ccode in environment\n  File "/home/fish/Desktop/web2py/applications/vsalad/views/default/article.html", line 17, in <module>\nNameError: name \'article\' is not defined\n'
p5006
s.